Sections:
00: "org0001:0" (0-100)
01: "org0002:100" (100-200)
02: "org0003:200" (200-38CE)


Source: "genesis_shell.asm"
                            	     1: ;==============================================================================
                            	     2: ; genesis_shell.asm — Genesis boot shell (T1 milestone)
                            	     3: ;
                            	     4: ; No Zelda code. Boots, inits VDP with verified H32 register set, clears
                            	     5: ; VRAM, writes a green test color to CRAM[0], turns on the display.
                            	     6: ; Screen should be solid green — use this to confirm VDP init is correct
                            	     7: ; before attaching any NES I/O or translated Zelda code.
                            	     8: ;
                            	     9: ; COLORFIX: VDP register 0 is ALWAYS $8004 (NOT $8000).
                            	    10: ;   bit 2 is reserved and must be 1. Writing $8000 produces dingy/dark
                            	    11: ;   colors on real hardware even when CRAM data is correct.
                            	    12: ;
                            	    13: ; H32 mode: confirmed by Reg 12 = $00 (RS0=bit0=0, RS1=bit7=0).
                            	    14: ;   256 pixels wide, 32 tiles per row.
                            	    15: ;==============================================================================
                            	    16: 
                            	    17: ;==============================================================================
                            	    18: ; Hardware addresses
                            	    19: ;==============================================================================
                            	    20: 
                            	    21: STACK_TOP       equ $00FFFFFE
                            	    22: VDP_DATA        equ $00C00000
                            	    23: VDP_CTRL        equ $00C00004
                            	    24: VERSION_PORT    equ $00A10001
                            	    25: TMSS_PORT       equ $00A14000
                            	    26: Z80_BUSREQ      equ $00A11100
                            	    27: Z80_RESET       equ $00A11200
                            	    28: 
                            	    29: ;==============================================================================
                            	    30: ; NES emulation constants
                            	    31: ;==============================================================================
                            	    32: NES_RAM_BASE    equ $00FF0000   ; Maps NES $0000-$07FF (8 pages × 256 bytes)
                            	    33: NES_RAM_SIZE    equ $0800       ; 2KB NES work RAM
                            	    34: NES_STACK_INIT  equ $00FF0200   ; NES SP=$FF → A5 = NES_RAM+$0100+$FF+1 = $FF0200
                            	    35: PPU_STATE_SIZE  equ $40         ; 64 bytes: PPU ($FF0800-$FF080F) + MMC1 ($FF0810-$FF081F) + CHR buf ($FF0820-$FF083F)
                            	    36: 
                            	    37: ;==============================================================================
                            	    38: ; VDP command long-words (written to VDP_CTRL to set VRAM/CRAM address)
                            	    39: ;==============================================================================
                            	    40: 
                            	    41: VRAM_WRITE_0000 equ $40000000       ; VRAM write to address $0000 (CD=%0100)
                            	    42: CRAM_WRITE_0000 equ $C0000000       ; CRAM write to address $0000 (CD=%1100)
                            	    43: 
                            	    44: ;==============================================================================
                            	    45: ; Genesis CRAM color: ---BBB-GGG-RRR
                            	    46: ;   Bits [11:9]=Blue, [7:5]=Green, [3:1]=Red  (3 bits each)
                            	    47: ;==============================================================================
                            	    48: 
                            	    49: COLOR_GREEN     equ $00E0           ; pure green (G=7 → bits[7:5]=111)
                            	    50: COLOR_BLACK     equ $0000
                            	    51: 
                            	    52: ;==============================================================================
                            	    53: ; VRAM layout
                            	    54: ;
                            	    55: ;   $0000–$AFFF   Tiles (CHR-RAM fills dynamically, space for 1408 tiles)
                            	    56: ;   $B000–$B7FF   Window plane   32×32 × 2 bytes = $800  (HUD strip)
                            	    57: ;   $C000–$CFFF   Plane A        64×32 × 2 bytes = $1000 (main playfield)
                            	    58: ;   $D800–$DA7F   Sprite attr    80 × 8 bytes = $280
                            	    59: ;   $DC00–$DF7F   H-scroll tbl   224 × 4 bytes = $380 (line-scroll mode)
                            	    60: ;   $E000–$EFFF   Plane B        64×32 × 2 bytes = $1000 (transition staging)
                            	    61: ;   $F000–$FFFF   Free / reserved
                            	    62: ;==============================================================================
                            	    63: 
                            	    64: ;==============================================================================
                            	    65: ; $000000 — 68000 Exception Vector Table (64 vectors × 4 bytes = $100 bytes)
                            	    66: ;
                            	    67: ; Vector layout:
                            	    68: ;   0:  Initial SSP
                            	    69: ;   1:  Initial PC (Reset)
                            	    70: ;   2–11: exception handlers
                            	    71: ;   12–23: reserved
                            	    72: ;   24: spurious interrupt
                            	    73: ;   25–27: IRQ level 1–3 auto-vectors
                            	    74: ;   28: IRQ level 4 auto-vector (H-int / HBlank)
                            	    75: ;   29: IRQ level 5 auto-vector
                            	    76: ;   30: IRQ level 6 auto-vector (V-int / VBlank) ← at $000078
                            	    77: ;   31: IRQ level 7 auto-vector
                            	    78: ;   32–63: TRAP + user-defined
                            	    79: ;==============================================================================
                            	    80: 
                            	    81:     org     $000000
                            	    82: 
00:00000000 00FFFFFE        	    83:     dc.l    STACK_TOP           ; vec  0: initial SSP
00:00000004 00000200        	    84:     dc.l    EntryPoint          ; vec  1: initial PC → boot code
00:00000008 00000362        	    85:     dc.l    ExcBusError         ; vec  2: bus error
00:0000000C 00000384        	    86:     dc.l    ExcAddrError        ; vec  3: address error
                            	    87:     rept    20
                            	    88:         dc.l    DefaultException    ; vec 4–23: exceptions + reserved
                            	    89:     endr
00:00000010 000003A6        	     1R         dc.l    DefaultException    ; vec 4–23: exceptions + reserved
                            	     2R     
00:00000014 000003A6        	     1R         dc.l    DefaultException    ; vec 4–23: exceptions + reserved
                            	     2R     
00:00000018 000003A6        	     1R         dc.l    DefaultException    ; vec 4–23: exceptions + reserved
                            	     2R     
00:0000001C 000003A6        	     1R         dc.l    DefaultException    ; vec 4–23: exceptions + reserved
                            	     2R     
00:00000020 000003A6        	     1R         dc.l    DefaultException    ; vec 4–23: exceptions + reserved
                            	     2R     
00:00000024 000003A6        	     1R         dc.l    DefaultException    ; vec 4–23: exceptions + reserved
                            	     2R     
00:00000028 000003A6        	     1R         dc.l    DefaultException    ; vec 4–23: exceptions + reserved
                            	     2R     
00:0000002C 000003A6        	     1R         dc.l    DefaultException    ; vec 4–23: exceptions + reserved
                            	     2R     
00:00000030 000003A6        	     1R         dc.l    DefaultException    ; vec 4–23: exceptions + reserved
                            	     2R     
00:00000034 000003A6        	     1R         dc.l    DefaultException    ; vec 4–23: exceptions + reserved
                            	     2R     
00:00000038 000003A6        	     1R         dc.l    DefaultException    ; vec 4–23: exceptions + reserved
                            	     2R     
00:0000003C 000003A6        	     1R         dc.l    DefaultException    ; vec 4–23: exceptions + reserved
                            	     2R     
00:00000040 000003A6        	     1R         dc.l    DefaultException    ; vec 4–23: exceptions + reserved
                            	     2R     
00:00000044 000003A6        	     1R         dc.l    DefaultException    ; vec 4–23: exceptions + reserved
                            	     2R     
00:00000048 000003A6        	     1R         dc.l    DefaultException    ; vec 4–23: exceptions + reserved
                            	     2R     
00:0000004C 000003A6        	     1R         dc.l    DefaultException    ; vec 4–23: exceptions + reserved
                            	     2R     
00:00000050 000003A6        	     1R         dc.l    DefaultException    ; vec 4–23: exceptions + reserved
                            	     2R     
00:00000054 000003A6        	     1R         dc.l    DefaultException    ; vec 4–23: exceptions + reserved
                            	     2R     
00:00000058 000003A6        	     1R         dc.l    DefaultException    ; vec 4–23: exceptions + reserved
                            	     2R     
00:0000005C 000003A6        	     1R         dc.l    DefaultException    ; vec 4–23: exceptions + reserved
                            	     2R     
00:00000060 000003A6        	    90:     dc.l    DefaultException    ; vec 24: spurious interrupt
00:00000064 000003A6        	    91:     dc.l    DefaultException    ; vec 25: IRQ level 1 (auto)
00:00000068 000003A6        	    92:     dc.l    DefaultException    ; vec 26: IRQ level 2 (EXT)
00:0000006C 000003A6        	    93:     dc.l    DefaultException    ; vec 27: IRQ level 3 (auto)
00:00000070 000003A6        	    94:     dc.l    DefaultException    ; vec 28: IRQ level 4 (H-int)
00:00000074 000003A6        	    95:     dc.l    DefaultException    ; vec 29: IRQ level 5 (auto)
00:00000078 00000352        	    96:     dc.l    VBlankISR           ; vec 30: IRQ level 6 (V-int / VBlank) ←
00:0000007C 000003A6        	    97:     dc.l    DefaultException    ; vec 31: IRQ level 7 (NMI)
                            	    98:     rept    32
                            	    99:         dc.l    DefaultException    ; vec 32–63: TRAP + user-defined
                            	   100:     endr
00:00000080 000003A6        	     1R         dc.l    DefaultException    ; vec 32–63: TRAP + user-defined
                            	     2R     
00:00000084 000003A6        	     1R         dc.l    DefaultException    ; vec 32–63: TRAP + user-defined
                            	     2R     
00:00000088 000003A6        	     1R         dc.l    DefaultException    ; vec 32–63: TRAP + user-defined
                            	     2R     
00:0000008C 000003A6        	     1R         dc.l    DefaultException    ; vec 32–63: TRAP + user-defined
                            	     2R     
00:00000090 000003A6        	     1R         dc.l    DefaultException    ; vec 32–63: TRAP + user-defined
                            	     2R     
00:00000094 000003A6        	     1R         dc.l    DefaultException    ; vec 32–63: TRAP + user-defined
                            	     2R     
00:00000098 000003A6        	     1R         dc.l    DefaultException    ; vec 32–63: TRAP + user-defined
                            	     2R     
00:0000009C 000003A6        	     1R         dc.l    DefaultException    ; vec 32–63: TRAP + user-defined
                            	     2R     
00:000000A0 000003A6        	     1R         dc.l    DefaultException    ; vec 32–63: TRAP + user-defined
                            	     2R     
00:000000A4 000003A6        	     1R         dc.l    DefaultException    ; vec 32–63: TRAP + user-defined
                            	     2R     
00:000000A8 000003A6        	     1R         dc.l    DefaultException    ; vec 32–63: TRAP + user-defined
                            	     2R     
00:000000AC 000003A6        	     1R         dc.l    DefaultException    ; vec 32–63: TRAP + user-defined
                            	     2R     
00:000000B0 000003A6        	     1R         dc.l    DefaultException    ; vec 32–63: TRAP + user-defined
                            	     2R     
00:000000B4 000003A6        	     1R         dc.l    DefaultException    ; vec 32–63: TRAP + user-defined
                            	     2R     
00:000000B8 000003A6        	     1R         dc.l    DefaultException    ; vec 32–63: TRAP + user-defined
                            	     2R     
00:000000BC 000003A6        	     1R         dc.l    DefaultException    ; vec 32–63: TRAP + user-defined
                            	     2R     
00:000000C0 000003A6        	     1R         dc.l    DefaultException    ; vec 32–63: TRAP + user-defined
                            	     2R     
00:000000C4 000003A6        	     1R         dc.l    DefaultException    ; vec 32–63: TRAP + user-defined
                            	     2R     
00:000000C8 000003A6        	     1R         dc.l    DefaultException    ; vec 32–63: TRAP + user-defined
                            	     2R     
00:000000CC 000003A6        	     1R         dc.l    DefaultException    ; vec 32–63: TRAP + user-defined
                            	     2R     
00:000000D0 000003A6        	     1R         dc.l    DefaultException    ; vec 32–63: TRAP + user-defined
                            	     2R     
00:000000D4 000003A6        	     1R         dc.l    DefaultException    ; vec 32–63: TRAP + user-defined
                            	     2R     
00:000000D8 000003A6        	     1R         dc.l    DefaultException    ; vec 32–63: TRAP + user-defined
                            	     2R     
00:000000DC 000003A6        	     1R         dc.l    DefaultException    ; vec 32–63: TRAP + user-defined
                            	     2R     
00:000000E0 000003A6        	     1R         dc.l    DefaultException    ; vec 32–63: TRAP + user-defined
                            	     2R     
00:000000E4 000003A6        	     1R         dc.l    DefaultException    ; vec 32–63: TRAP + user-defined
                            	     2R     
00:000000E8 000003A6        	     1R         dc.l    DefaultException    ; vec 32–63: TRAP + user-defined
                            	     2R     
00:000000EC 000003A6        	     1R         dc.l    DefaultException    ; vec 32–63: TRAP + user-defined
                            	     2R     
00:000000F0 000003A6        	     1R         dc.l    DefaultException    ; vec 32–63: TRAP + user-defined
                            	     2R     
00:000000F4 000003A6        	     1R         dc.l    DefaultException    ; vec 32–63: TRAP + user-defined
                            	     2R     
00:000000F8 000003A6        	     1R         dc.l    DefaultException    ; vec 32–63: TRAP + user-defined
                            	     2R     
00:000000FC 000003A6        	     1R         dc.l    DefaultException    ; vec 32–63: TRAP + user-defined
                            	     2R     
                            	   101: 
                            	   102: ;==============================================================================
                            	   103: ; $000100 — Genesis ROM Header
                            	   104: ;==============================================================================
                            	   105: 
                            	   106:     org     $000100
                            	   107: 
01:00000100 53454741204D4547	   108:     dc.b    "SEGA MEGA DRIVE "                  ; $100 system type     (16)
01:00000108 4120445249564520
01:00000110 2843294A414B4544	   109:     dc.b    "(C)JAKEDIGZ 2026"                  ; $110 copyright        (16)
01:00000118 49475A2032303236
01:00000120 544845204C454745	   110:     dc.b    "THE LEGEND OF ZELDA             "  ; $120 domestic name    (32)
01:00000128 4E44204F46205A45
01:00000130 4C44412020202020
01:00000138 2020202020202020
01:00000140 2020202020202020	   111:     dc.b    "                "                  ; $140 (pad to 48)      (16)
01:00000148 2020202020202020
01:00000150 544845204C454745	   112:     dc.b    "THE LEGEND OF ZELDA             "  ; $150 overseas name    (32)
01:00000158 4E44204F46205A45
01:00000160 4C44412020202020
01:00000168 2020202020202020
01:00000170 2020202020202020	   113:     dc.b    "                "                  ; $170 (pad to 48)      (16)
01:00000178 2020202020202020
01:00000180 474D203030303030	   114:     dc.b    "GM 00000000-00"                    ; $180 serial           (14)
01:00000188 3030302D3030
01:0000018E 0000            	   115:     dc.w    0                                   ; $18E checksum (fix_checksum.py)
01:00000190 4A20202020202020	   116:     dc.b    "J               "                  ; $190 I/O: 3-btn joy   (16)
01:00000198 2020202020202020
01:000001A0 00000000        	   117:     dc.l    $00000000                           ; $1A0 ROM start
01:000001A4 000038CD        	   118:     dc.l    RomEnd-1                            ; $1A4 ROM end
01:000001A8 00FF0000        	   119:     dc.l    $00FF0000                           ; $1A8 RAM start
01:000001AC 00FFFFFF        	   120:     dc.l    $00FFFFFF                           ; $1AC RAM end
01:000001B0 00              	   121:     dc.b    $00,$00,$00,$00,$00,$00,$00,$00     ; $1B0 no SRAM          (12)
01:000001B1 00
01:000001B2 00
01:000001B3 00
01:000001B4 00
01:000001B5 00
01:000001B6 00
01:000001B7 00
01:000001B8 00              	   122:     dc.b    $00,$00,$00,$00
01:000001B9 00
01:000001BA 00
01:000001BB 00
                            	   123:     rept    12
                            	   124:         dc.b    $20                             ; $1BC modem (spaces)   (12)
                            	   125:     endr
01:000001BC 20              	     1R         dc.b    $20                             ; $1BC modem (spaces)   (12)
                            	     2R     
01:000001BD 20              	     1R         dc.b    $20                             ; $1BC modem (spaces)   (12)
                            	     2R     
01:000001BE 20              	     1R         dc.b    $20                             ; $1BC modem (spaces)   (12)
                            	     2R     
01:000001BF 20              	     1R         dc.b    $20                             ; $1BC modem (spaces)   (12)
                            	     2R     
01:000001C0 20              	     1R         dc.b    $20                             ; $1BC modem (spaces)   (12)
                            	     2R     
01:000001C1 20              	     1R         dc.b    $20                             ; $1BC modem (spaces)   (12)
                            	     2R     
01:000001C2 20              	     1R         dc.b    $20                             ; $1BC modem (spaces)   (12)
                            	     2R     
01:000001C3 20              	     1R         dc.b    $20                             ; $1BC modem (spaces)   (12)
                            	     2R     
01:000001C4 20              	     1R         dc.b    $20                             ; $1BC modem (spaces)   (12)
                            	     2R     
01:000001C5 20              	     1R         dc.b    $20                             ; $1BC modem (spaces)   (12)
                            	     2R     
01:000001C6 20              	     1R         dc.b    $20                             ; $1BC modem (spaces)   (12)
                            	     2R     
01:000001C7 20              	     1R         dc.b    $20                             ; $1BC modem (spaces)   (12)
                            	     2R     
                            	   126:     rept    40
                            	   127:         dc.b    $20                             ; $1C8 notes (spaces)   (40)
                            	   128:     endr
01:000001C8 20              	     1R         dc.b    $20                             ; $1C8 notes (spaces)   (40)
                            	     2R     
01:000001C9 20              	     1R         dc.b    $20                             ; $1C8 notes (spaces)   (40)
                            	     2R     
01:000001CA 20              	     1R         dc.b    $20                             ; $1C8 notes (spaces)   (40)
                            	     2R     
01:000001CB 20              	     1R         dc.b    $20                             ; $1C8 notes (spaces)   (40)
                            	     2R     
01:000001CC 20              	     1R         dc.b    $20                             ; $1C8 notes (spaces)   (40)
                            	     2R     
01:000001CD 20              	     1R         dc.b    $20                             ; $1C8 notes (spaces)   (40)
                            	     2R     
01:000001CE 20              	     1R         dc.b    $20                             ; $1C8 notes (spaces)   (40)
                            	     2R     
01:000001CF 20              	     1R         dc.b    $20                             ; $1C8 notes (spaces)   (40)
                            	     2R     
01:000001D0 20              	     1R         dc.b    $20                             ; $1C8 notes (spaces)   (40)
                            	     2R     
01:000001D1 20              	     1R         dc.b    $20                             ; $1C8 notes (spaces)   (40)
                            	     2R     
01:000001D2 20              	     1R         dc.b    $20                             ; $1C8 notes (spaces)   (40)
                            	     2R     
01:000001D3 20              	     1R         dc.b    $20                             ; $1C8 notes (spaces)   (40)
                            	     2R     
01:000001D4 20              	     1R         dc.b    $20                             ; $1C8 notes (spaces)   (40)
                            	     2R     
01:000001D5 20              	     1R         dc.b    $20                             ; $1C8 notes (spaces)   (40)
                            	     2R     
01:000001D6 20              	     1R         dc.b    $20                             ; $1C8 notes (spaces)   (40)
                            	     2R     
01:000001D7 20              	     1R         dc.b    $20                             ; $1C8 notes (spaces)   (40)
                            	     2R     
01:000001D8 20              	     1R         dc.b    $20                             ; $1C8 notes (spaces)   (40)
                            	     2R     
01:000001D9 20              	     1R         dc.b    $20                             ; $1C8 notes (spaces)   (40)
                            	     2R     
01:000001DA 20              	     1R         dc.b    $20                             ; $1C8 notes (spaces)   (40)
                            	     2R     
01:000001DB 20              	     1R         dc.b    $20                             ; $1C8 notes (spaces)   (40)
                            	     2R     
01:000001DC 20              	     1R         dc.b    $20                             ; $1C8 notes (spaces)   (40)
                            	     2R     
01:000001DD 20              	     1R         dc.b    $20                             ; $1C8 notes (spaces)   (40)
                            	     2R     
01:000001DE 20              	     1R         dc.b    $20                             ; $1C8 notes (spaces)   (40)
                            	     2R     
01:000001DF 20              	     1R         dc.b    $20                             ; $1C8 notes (spaces)   (40)
                            	     2R     
01:000001E0 20              	     1R         dc.b    $20                             ; $1C8 notes (spaces)   (40)
                            	     2R     
01:000001E1 20              	     1R         dc.b    $20                             ; $1C8 notes (spaces)   (40)
                            	     2R     
01:000001E2 20              	     1R         dc.b    $20                             ; $1C8 notes (spaces)   (40)
                            	     2R     
01:000001E3 20              	     1R         dc.b    $20                             ; $1C8 notes (spaces)   (40)
                            	     2R     
01:000001E4 20              	     1R         dc.b    $20                             ; $1C8 notes (spaces)   (40)
                            	     2R     
01:000001E5 20              	     1R         dc.b    $20                             ; $1C8 notes (spaces)   (40)
                            	     2R     
01:000001E6 20              	     1R         dc.b    $20                             ; $1C8 notes (spaces)   (40)
                            	     2R     
01:000001E7 20              	     1R         dc.b    $20                             ; $1C8 notes (spaces)   (40)
                            	     2R     
01:000001E8 20              	     1R         dc.b    $20                             ; $1C8 notes (spaces)   (40)
                            	     2R     
01:000001E9 20              	     1R         dc.b    $20                             ; $1C8 notes (spaces)   (40)
                            	     2R     
01:000001EA 20              	     1R         dc.b    $20                             ; $1C8 notes (spaces)   (40)
                            	     2R     
01:000001EB 20              	     1R         dc.b    $20                             ; $1C8 notes (spaces)   (40)
                            	     2R     
01:000001EC 20              	     1R         dc.b    $20                             ; $1C8 notes (spaces)   (40)
                            	     2R     
01:000001ED 20              	     1R         dc.b    $20                             ; $1C8 notes (spaces)   (40)
                            	     2R     
01:000001EE 20              	     1R         dc.b    $20                             ; $1C8 notes (spaces)   (40)
                            	     2R     
01:000001EF 20              	     1R         dc.b    $20                             ; $1C8 notes (spaces)   (40)
                            	     2R     
01:000001F0 4A55452020202020	   129:     dc.b    "JUE             "                  ; $1F0 regions          (16)
01:000001F8 2020202020202020
                            	   130: 
                            	   131: ;==============================================================================
                            	   132: ; $000200 — Boot code
                            	   133: ;==============================================================================
                            	   134: 
                            	   135:     org     $000200
                            	   136: 
                            	   137: ;------------------------------------------------------------------------------
                            	   138: ; EntryPoint — 68000 reset vector lands here.
                            	   139: ; The 68000 boots with SR = $2700 (supervisor, all IRQs masked). We leave
                            	   140: ; interrupts masked through the entire init sequence and lower the mask at
                            	   141: ; the end of MainLoop via the STOP instruction.
                            	   142: ;------------------------------------------------------------------------------
                            	   143: EntryPoint:
                            	   144:     ;--------------------------------------------------------------------------
                            	   145:     ; TMSS handshake — check VERSION_PORT bit[0]; if set, this is a TMSS
                            	   146:     ; hardware revision that requires writing 'SEGA' ($53454741) to $A14000
                            	   147:     ; before VDP access is allowed. Safe to skip on pre-TMSS hardware.
                            	   148:     ;--------------------------------------------------------------------------
02:00000200 103900A10001    	   149:     move.b  (VERSION_PORT).l,D0
02:00000206 0200000F        	   150:     andi.b  #$0F,D0
02:0000020A 670A            	   151:     beq.s   .skip_tmss
02:0000020C 23FC5345474100A1	   152:     move.l  #$53454741,(TMSS_PORT).l   ; 'S','E','G','A'
02:00000214 4000
                            	   153: .skip_tmss:
                            	   154: 
                            	   155:     ;--------------------------------------------------------------------------
                            	   156:     ; Stop Z80 — hold it in reset to prevent bus contention during init.
                            	   157:     ;--------------------------------------------------------------------------
02:00000216 33FC010000A11100	   158:     move.w  #$0100,(Z80_BUSREQ).l
02:0000021E 33FC010000A11200	   159:     move.w  #$0100,(Z80_RESET).l
                            	   160: .z80wait:
02:00000226 0839000000A11100	   161:     btst    #0,(Z80_BUSREQ).l            ; BUSACK = bit 0 of high byte $A11100;
02:0000022E 66F6            	   162:     bne.s   .z80wait                    ; wait until Z80 releases the bus
                            	   163: 
                            	   164:     ;--------------------------------------------------------------------------
                            	   165:     ; VDP register init — H32 mode, display OFF during init.
                            	   166:     ;
                            	   167:     ; COLORFIX: Reg 0 = $8004. bit 2 MUST BE 1.
                            	   168:     ;   $8000 (bit2=0) → dingy/dark colors on hardware despite correct CRAM.
                            	   169:     ;   $8004 (bit2=1) → correct colors.
                            	   170:     ;--------------------------------------------------------------------------
02:00000230 33FC800400C00004	   171:     move.w  #$8004,(VDP_CTRL).l  ; Reg  0: bit2=1 (colorfix), no H-int, no left-blank
02:00000238 33FC813400C00004	   172:     move.w  #$8134,(VDP_CTRL).l  ; Reg  1: display OFF, VBlank IRQ, DMA, M5 (Genesis)
02:00000240 33FC823000C00004	   173:     move.w  #$8230,(VDP_CTRL).l  ; Reg  2: Plane A @ $C000  ($C000/$2000=6 → $30)
02:00000248 33FC832C00C00004	   174:     move.w  #$832C,(VDP_CTRL).l  ; Reg  3: Window  @ $B000  (bits[5:1]=22 → $2C)
02:00000250 33FC840700C00004	   175:     move.w  #$8407,(VDP_CTRL).l  ; Reg  4: Plane B @ $E000  ($E000/$2000=7 → $07)
02:00000258 33FC856C00C00004	   176:     move.w  #$856C,(VDP_CTRL).l  ; Reg  5: Sprite table @ $D800 ($D800/$200=108 → $6C)
02:00000260 33FC860000C00004	   177:     move.w  #$8600,(VDP_CTRL).l  ; Reg  6: sprite table high bit = 0
02:00000268 33FC870000C00004	   178:     move.w  #$8700,(VDP_CTRL).l  ; Reg  7: BG color = palette 0, color 0
02:00000270 33FC880000C00004	   179:     move.w  #$8800,(VDP_CTRL).l  ; Reg  8: SMS compat = 0 (unused in M5)
02:00000278 33FC890000C00004	   180:     move.w  #$8900,(VDP_CTRL).l  ; Reg  9: SMS compat = 0 (unused in M5)
02:00000280 33FC8AFF00C00004	   181:     move.w  #$8AFF,(VDP_CTRL).l  ; Reg 10: H-int counter = $FF (effectively disabled)
02:00000288 33FC8B0000C00004	   182:     move.w  #$8B00,(VDP_CTRL).l  ; Reg 11: full-screen V-scroll, full H-scroll
02:00000290 33FC8C0000C00004	   183:     move.w  #$8C00,(VDP_CTRL).l  ; Reg 12: H32 (bits7,0=0), no interlace, no shadow/hl
02:00000298 33FC8D3700C00004	   184:     move.w  #$8D37,(VDP_CTRL).l  ; Reg 13: H-scroll table @ $DC00 ($DC00/$400=55 → $37)
02:000002A0 33FC8E0000C00004	   185:     move.w  #$8E00,(VDP_CTRL).l  ; Reg 14: pattern gen base = 0 (SMS compat, unused M5)
02:000002A8 33FC8F0200C00004	   186:     move.w  #$8F02,(VDP_CTRL).l  ; Reg 15: auto-increment = 2 (word per VRAM access)
02:000002B0 33FC900100C00004	   187:     move.w  #$9001,(VDP_CTRL).l  ; Reg 16: scroll size 64H × 32V → $01
02:000002B8 33FC910000C00004	   188:     move.w  #$9100,(VDP_CTRL).l  ; Reg 17: window H position = 0
02:000002C0 33FC920000C00004	   189:     move.w  #$9200,(VDP_CTRL).l  ; Reg 18: window V position = 0
02:000002C8 33FC930000C00004	   190:     move.w  #$9300,(VDP_CTRL).l  ; Reg 19: DMA length low = 0
02:000002D0 33FC940000C00004	   191:     move.w  #$9400,(VDP_CTRL).l  ; Reg 20: DMA length high = 0
02:000002D8 33FC950000C00004	   192:     move.w  #$9500,(VDP_CTRL).l  ; Reg 21: DMA source low = 0
02:000002E0 33FC960000C00004	   193:     move.w  #$9600,(VDP_CTRL).l  ; Reg 22: DMA source mid = 0
02:000002E8 33FC970000C00004	   194:     move.w  #$9700,(VDP_CTRL).l  ; Reg 23: DMA source high/type = 0 (ROM→VRAM)
                            	   195: 
                            	   196:     ;--------------------------------------------------------------------------
                            	   197:     ; Clear VRAM — write 0 to all 32768 words (64KB) via CPU loop.
                            	   198:     ; Auto-increment = 2 is set by Reg 15 above.
                            	   199:     ;--------------------------------------------------------------------------
02:000002F0 23FC4000000000C0	   200:     move.l  #VRAM_WRITE_0000,(VDP_CTRL).l
02:000002F8 0004
02:000002FA 303C7FFF        	   201:     move.w  #32767,D0
                            	   202: .vramclear:
02:000002FE 33FC000000C00000	   203:     move.w  #0,(VDP_DATA).l
02:00000306 51C8FFF6        	   204:     dbra    D0,.vramclear
                            	   205: 
                            	   206:     ;--------------------------------------------------------------------------
                            	   207:     ; Write test palette — pure green to CRAM[0] (background color slot).
                            	   208:     ; Reg 7 above set background = palette 0, color 0 → CRAM entry 0.
                            	   209:     ;
                            	   210:     ; Result on screen: solid green = VDP init correct (colorfix working).
                            	   211:     ; Dingy/dark green = check that Reg 0 is $8004, NOT $8000.
                            	   212:     ;--------------------------------------------------------------------------
02:0000030A 23FCC000000000C0	   213:     move.l  #CRAM_WRITE_0000,(VDP_CTRL).l
02:00000312 0004
02:00000314 33FC00E000C00000	   214:     move.w  #COLOR_GREEN,(VDP_DATA).l
                            	   215: 
                            	   216:     ;--------------------------------------------------------------------------
                            	   217:     ; Display on
                            	   218:     ;--------------------------------------------------------------------------
02:0000031C 33FC817400C00004	   219:     move.w  #$8174,(VDP_CTRL).l  ; Reg 1: DISP=1, VBlank IRQ, DMA, M5
                            	   220: 
                            	   221:     ;--------------------------------------------------------------------------
                            	   222:     ; Clear NES RAM ($FF0000–$FF07FF) — 2KB of NES work RAM mapped into
                            	   223:     ; Genesis RAM at the top of the address space.
                            	   224:     ; Also clears PPU state block ($FF0800–$FF080F) in the same pass.
                            	   225:     ;--------------------------------------------------------------------------
02:00000324 207C00FF0000    	   226:     movea.l #NES_RAM_BASE,A0
02:0000032A 303C041F        	   227:     move.w  #(NES_RAM_SIZE+PPU_STATE_SIZE)/2-1,D0  ; 1031 words
                            	   228: .nesramclear:
02:0000032E 30FC0000        	   229:     move.w  #0,(A0)+
02:00000332 51C8FFFA        	   230:     dbra    D0,.nesramclear
                            	   231: 
                            	   232:     ;--------------------------------------------------------------------------
                            	   233:     ; T4: Initialize NES register equivalents before handing off to Zelda code.
                            	   234:     ;
                            	   235:     ;   A4 = NES_RAM_BASE ($FF0000) — base for all (offset,A4) NES RAM accesses
                            	   236:     ;   A5 = NES_STACK_INIT ($FF0200) — NES stack starts at SP=$FF, so the
                            	   237:     ;        first PHA decrements to $FF01FF.  A5 points one-past the top.
                            	   238:     ;   D7 = $FF — 6502 SP shadow (used by TSX/TXS and stack bound checks)
                            	   239:     ;--------------------------------------------------------------------------
02:00000336 287C00FF0000    	   240:     movea.l #NES_RAM_BASE,A4
02:0000033C 2A7C00FF0200    	   241:     movea.l #NES_STACK_INIT,A5
02:00000342 7EFF            	   242:     moveq   #-1,D7                  ; D7 = $FF (NES SP shadow)
                            	   243: 
                            	   244:     ;--------------------------------------------------------------------------
                            	   245:     ; Lower interrupt mask so VBlank (level 6) can fire.
                            	   246:     ; A4/A5/D7 are initialised above — IsrNmi is now safe to execute.
                            	   247:     ; IPL=0: all interrupt levels pass (VBlank=6, NMI-like=7).
                            	   248:     ;--------------------------------------------------------------------------
02:00000344 027CF8FF        	   249:     andi.w  #$F8FF,SR               ; IPL → 0: enable VBlank
                            	   250: 
                            	   251:     ;--------------------------------------------------------------------------
                            	   252:     ; Hand off to Zelda — jump to IsrReset (the NES Reset vector handler).
                            	   253:     ; IsrReset polls PPU $2002 (VBlank) twice, initialises MMC1, then jumps
                            	   254:     ; to RunGame which spins in LoopForever waiting for VBlank NMI.
                            	   255:     ;
                            	   256:     ; NOTE: VBlankISR below is wired to IsrNmi once T4 is validated.
                            	   257:     ; For T4, VBlank is masked by genesis boot SR ($2700) and IsrReset's SEI
                            	   258:     ; (now a NOP), so LoopForever just spins — that is the expected T4 state.
                            	   259:     ;--------------------------------------------------------------------------
02:00000348 4EB83650        	   260:     jsr     IsrReset                ; never returns (RunGame → LoopForever)
                            	   261: 
                            	   262:     ;--------------------------------------------------------------------------
                            	   263:     ; Safety net — should never be reached.
                            	   264:     ;--------------------------------------------------------------------------
                            	   265: HaltForever:
02:0000034C 4E722700        	   266:     stop    #$2700
02:00000350 60FA            	   267:     bra.s   HaltForever
                            	   268: 
                            	   269: ;==============================================================================
                            	   270: ; VBlankISR — T4: call IsrNmi (Zelda's NMI handler) then return.
                            	   271: ; IsrNmi is defined in zelda_translated/z_07.asm (included below).
                            	   272: ;
                            	   273: ; T4 note: during boot, SR=$2700 so this ISR never fires while IsrReset runs.
                            	   274: ; Once RunGame hits LoopForever and we lower SR (T5+), this fires every frame.
                            	   275: ;==============================================================================
                            	   276: VBlankISR:
                            	   277:     ; Only call IsrNmi if PPUCTRL bit 7 = 1 (NMI enable).
                            	   278:     ; On NES, VBlank NMI fires only when PPUCTRL.$80 is set.
                            	   279:     ; During IsrReset warmup PPUCTRL=0, so IsrNmi is suppressed
                            	   280:     ; until RunGame writes $A0 to $2000.
02:00000352 0839000700FF0804	   281:     btst    #7,($00FF0804).l        ; PPU_CTRL = $FF0804, bit 7 = NMI enable
02:0000035A 6704            	   282:     beq.s   .nmi_off
02:0000035C 4EB80780        	   283:     jsr     IsrNmi
                            	   284: .nmi_off:
02:00000360 4E73            	   285:     rte
                            	   286: 
                            	   287: ;==============================================================================
                            	   288: ; Exception forensics handlers
                            	   289: ;
                            	   290: ; On any exception: save type, stacked SR, faulting PC, and all data/address
                            	   291: ; registers to a known RAM block at $FF0900 before spinning.  The T5 probe
                            	   292: ; (and BizHawk debugger) can then read this block to identify the fault.
                            	   293: ;
                            	   294: ; 68000 stack frames:
                            	   295: ;   Bus Error (vec 2) / Address Error (vec 3):
                            	   296: ;     SP+0  function code / misc (word)
                            	   297: ;     SP+2  access address (long)
                            	   298: ;     SP+6  instruction register (word)
                            	   299: ;     SP+8  SR at exception time
                            	   300: ;     SP+10 PC of faulting instruction (long)
                            	   301: ;   All other exceptions:
                            	   302: ;     SP+0  SR at exception time
                            	   303: ;     SP+2  PC of faulting instruction (long)
                            	   304: ;
                            	   305: ; Forensics RAM layout ($FF0900):
                            	   306: ;   $FF0900: exception type byte (2=bus error, 3=addr error, 0=other)
                            	   307: ;   $FF0901: (pad)
                            	   308: ;   $FF0902: stacked SR (word)
                            	   309: ;   $FF0904: faulting PC (long)
                            	   310: ;   $FF0908: D0–D7, A0–A6 saved by MOVEM.L (15 longs = 60 bytes, ends $FF0943)
                            	   311: ;==============================================================================
                            	   312: 
                            	   313: ExcBusError:
02:00000362 13FC000200FF0900	   314:     move.b  #2,($FF0900).l
02:0000036A 33EF000800FF0902	   315:     move.w  8(SP),($FF0902).l
02:00000372 23EF000A00FF0904	   316:     move.l  10(SP),($FF0904).l
02:0000037A 48F97FFF00FF0908	   317:     movem.l D0-D7/A0-A6,($FF0908).l
                            	   318: .spin:
02:00000382 60FE            	   319:     bra.s   .spin
                            	   320: 
                            	   321: ExcAddrError:
02:00000384 13FC000300FF0900	   322:     move.b  #3,($FF0900).l
02:0000038C 33EF000800FF0902	   323:     move.w  8(SP),($FF0902).l
02:00000394 23EF000A00FF0904	   324:     move.l  10(SP),($FF0904).l
02:0000039C 48F97FFF00FF0908	   325:     movem.l D0-D7/A0-A6,($FF0908).l
                            	   326: .spin:
02:000003A4 60FE            	   327:     bra.s   .spin
                            	   328: 
                            	   329: DefaultException:
02:000003A6 13FC000000FF0900	   330:     move.b  #0,($FF0900).l
02:000003AE 33D700FF0902    	   331:     move.w  (SP),($FF0902).l
02:000003B4 23EF000200FF0904	   332:     move.l  2(SP),($FF0904).l
02:000003BC 48F97FFF00FF0908	   333:     movem.l D0-D7/A0-A6,($FF0908).l
                            	   334: .spin:
02:000003C4 60FE            	   335:     bra.s   .spin
                            	   336: 
                            	   337: ;==============================================================================
                            	   338: ; NES I/O emulation layer — real implementations of _ppu_*, _apu_*, _ctrl_*,
                            	   339: ; _oam_dma, _mmc1_*, _indirect_stub.  Must be included BEFORE any bank file
                            	   340: ; so all helpers are defined when z_XX.asm code references them.
                            	   341: ; (With --no-stubs the bank files no longer emit these labels themselves.)
                            	   342: ;==============================================================================
                            	   343:     include "nes_io.asm"

Source: "nes_io.asm"
                            	     1: ;==============================================================================
                            	     2: ; nes_io.asm — NES I/O emulation layer
                            	     3: ;
                            	     4: ; Included by genesis_shell.asm BEFORE z_07.asm (and all other bank files).
                            	     5: ; Provides real implementations of all _ppu_*, _apu_*, _ctrl_*, _oam_*,
                            	     6: ; _mmc1_* helpers that the transpiled Zelda code calls via BSR/JSR.
                            	     7: ;
                            	     8: ; T5 milestone: PPUADDR two-write latch + PPUDATA → Genesis VDP VRAM byte writes.
                            	     9: ;
                            	    10: ; Register contract (must match transpiler mapping):
                            	    11: ;   D0  = NES accumulator A
                            	    12: ;   D2  = NES X index
                            	    13: ;   D3  = NES Y index
                            	    14: ;   D7  = NES SP shadow
                            	    15: ;   A4  = NES RAM base ($FF0000)
                            	    16: ;   A5  = NES stack pointer (NES_RAM + $0100 region)
                            	    17: ;
                            	    18: ; All NES I/O functions must preserve D1–D7, A0–A6 except as documented.
                            	    19: ; They receive their argument in D0.b and return results in D0.b.
                            	    20: ;==============================================================================
                            	    21: 
                            	    22: ;------------------------------------------------------------------------------
                            	    23: ; PPU state RAM — placed at $FF0800 (immediately after 2KB NES work RAM).
                            	    24: ; Initialised to zero by genesis_shell before jsr IsrReset.
                            	    25: ;
                            	    26: ; Layout (12 bytes):
                            	    27: ;   +0  PPU_LATCH   (byte) write-toggle shared by $2005/$2006 (0=1st, 1=2nd)
                            	    28: ;   +1  (pad)
                            	    29: ;   +2  PPU_VADDR   (word) assembled 16-bit VRAM address
                            	    30: ;   +4  PPU_CTRL    (byte) PPUCTRL  ($2000) shadow
                            	    31: ;   +5  PPU_MASK    (byte) PPUMASK  ($2001) shadow
                            	    32: ;   +6  PPU_SCRL_X  (byte) scroll X (from first  $2005 write)
                            	    33: ;   +7  PPU_SCRL_Y  (byte) scroll Y (from second $2005 write)
                            	    34: ;   +8  PPU_DBUF    (byte) PPUDATA even-address byte buffer
                            	    35: ;   +9  PPU_DHALF   (byte) 1 when an even-address byte is buffered
                            	    36: ;   +10 (pad × 2)
                            	    37: ;------------------------------------------------------------------------------
                            	    38: PPU_STATE_BASE  equ $00FF0800
                            	    39: 
                            	    40: PPU_LATCH       equ PPU_STATE_BASE+0    ; byte: w register (0=first write)
                            	    41: PPU_VADDR       equ PPU_STATE_BASE+2    ; word: current VRAM address
                            	    42: PPU_CTRL        equ PPU_STATE_BASE+4    ; byte: PPUCTRL shadow
                            	    43: PPU_MASK        equ PPU_STATE_BASE+5    ; byte: PPUMASK shadow
                            	    44: PPU_SCRL_X      equ PPU_STATE_BASE+6    ; byte: horizontal scroll value
                            	    45: PPU_SCRL_Y      equ PPU_STATE_BASE+7    ; byte: vertical scroll value
                            	    46: PPU_DBUF        equ PPU_STATE_BASE+8    ; byte: buffered even-addr byte
                            	    47: PPU_DHALF       equ PPU_STATE_BASE+9    ; byte: 1 if even-addr byte pending
                            	    48: 
                            	    49: ;------------------------------------------------------------------------------
                            	    50: ; MMC1 state RAM — placed at $FF0810 (immediately after 16-byte PPU block).
                            	    51: ; Initialised to zero by genesis_shell before jsr IsrReset.
                            	    52: ;
                            	    53: ; Layout (6 bytes):
                            	    54: ;   +0  MMC1_SHIFT  (byte) shift register accumulator (LSB-first)
                            	    55: ;   +1  MMC1_COUNT  (byte) number of bits accumulated (0–4)
                            	    56: ;   +2  MMC1_CTRL   (byte) MMC1 control register ($8000 target)
                            	    57: ;   +3  MMC1_CHR0   (byte) CHR bank 0 register   ($A000 target)
                            	    58: ;   +4  MMC1_CHR1   (byte) CHR bank 1 register   ($C000 target)
                            	    59: ;   +5  MMC1_PRG    (byte) PRG bank register      ($E000 target)
                            	    60: ;------------------------------------------------------------------------------
                            	    61: MMC1_STATE_BASE equ PPU_STATE_BASE+$10  ; $FF0810
                            	    62: 
                            	    63: MMC1_SHIFT      equ MMC1_STATE_BASE+0   ; byte: shift accumulator
                            	    64: MMC1_COUNT      equ MMC1_STATE_BASE+1   ; byte: bits accumulated (0-4)
                            	    65: MMC1_CTRL       equ MMC1_STATE_BASE+2   ; byte: control reg ($8000)
                            	    66: MMC1_CHR0       equ MMC1_STATE_BASE+3   ; byte: CHR bank 0 ($A000)
                            	    67: MMC1_CHR1       equ MMC1_STATE_BASE+4   ; byte: CHR bank 1 ($C000)
                            	    68: MMC1_PRG        equ MMC1_STATE_BASE+5   ; byte: PRG bank ($E000)
                            	    69: 
                            	    70: ;------------------------------------------------------------------------------
                            	    71: ; CHR tile upload buffer — placed at $FF0820.
                            	    72: ; Accumulates one 16-byte NES 2BPP tile then converts it to Genesis 4BPP (32 bytes)
                            	    73: ; and DMA-writes the result to VDP VRAM.
                            	    74: ;
                            	    75: ; Layout (19 bytes):
                            	    76: ;   +0…+15  CHR_TILE_BUF  (16 bytes) raw NES 2BPP tile data
                            	    77: ;              bytes 0–7  = plane 0 (bit 0 of each pixel, row 0 first)
                            	    78: ;              bytes 8–15 = plane 1 (bit 1 of each pixel, row 0 first)
                            	    79: ;   +16     CHR_BUF_CNT   (byte) number of bytes accumulated (0–15)
                            	    80: ;   +17–18  CHR_BUF_VADDR (word) NES PPU address at start of this tile
                            	    81: ;------------------------------------------------------------------------------
                            	    82: CHR_STATE_BASE  equ PPU_STATE_BASE+$20  ; $FF0820
                            	    83: 
                            	    84: CHR_TILE_BUF    equ CHR_STATE_BASE+0    ; 16 bytes: raw NES tile bytes
                            	    85: CHR_BUF_CNT     equ CHR_STATE_BASE+16   ; byte: bytes accumulated
                            	    86: CHR_BUF_VADDR   equ CHR_STATE_BASE+17   ; word: tile's NES base address
                            	    87: 
                            	    88: ;==============================================================================
                            	    89: ; PPU register reads ($2000–$2007 → _ppu_read_0 … _ppu_read_7)
                            	    90: ;==============================================================================
                            	    91: 
                            	    92: ;------------------------------------------------------------------------------
                            	    93: ; _ppu_read_0 — PPUCTRL ($2000) — write-only on real NES, reads return open bus.
                            	    94: ; Return 0 so caller's AND/BEQ tests see nothing set.
                            	    95: ;------------------------------------------------------------------------------
                            	    96: _ppu_read_0:
02:000003C6 7000            	    97:     moveq   #0,D0
02:000003C8 4E75            	    98:     rts
                            	    99: 
                            	   100: ;------------------------------------------------------------------------------
                            	   101: ; _ppu_read_1 — PPUMASK ($2001) — write-only, open bus.
                            	   102: ;------------------------------------------------------------------------------
                            	   103: _ppu_read_1:
02:000003CA 7000            	   104:     moveq   #0,D0
02:000003CC 4E75            	   105:     rts
                            	   106: 
                            	   107: ;------------------------------------------------------------------------------
                            	   108: ; _ppu_read_2 — PPUSTATUS ($2002)
                            	   109: ;
                            	   110: ; Bit 7 = VBlank flag.  Cleared on read.  The shared write-latch (w) is also
                            	   111: ; reset on any $2002 read.
                            	   112: ;
                            	   113: ; T5 implementation: always returns $80 (VBlank always set) so IsrReset's
                            	   114: ; two warmup polling loops exit immediately.  A real VBlank flag will be
                            	   115: ; wired in T6 (software flag toggled by VBlankISR).
                            	   116: ;
                            	   117: ; IMPORTANT: must reset the PPU write-latch (PPU_LATCH).
                            	   118: ;------------------------------------------------------------------------------
                            	   119: _ppu_read_2:
02:000003CE 423900FF0800    	   120:     clr.b   (PPU_LATCH).l          ; reading $2002 resets the w register
02:000003D4 103C0080        	   121:     move.b  #$80,D0                ; VBlank flag set (warmup loops will exit)
02:000003D8 4E75            	   122:     rts
                            	   123: 
                            	   124: ;------------------------------------------------------------------------------
                            	   125: ; _ppu_read_3 — OAM addr ($2003) — write-only.
                            	   126: ; _ppu_read_4 — OAM data ($2004) — return 0 for now.
                            	   127: ; _ppu_read_5 — PPUSCROLL ($2005) — write-only.
                            	   128: ; _ppu_read_6 — PPUADDR  ($2006) — write-only.
                            	   129: ;------------------------------------------------------------------------------
                            	   130: _ppu_read_3:
                            	   131: _ppu_read_4:
                            	   132: _ppu_read_5:
                            	   133: _ppu_read_6:
02:000003DA 7000            	   134:     moveq   #0,D0
02:000003DC 4E75            	   135:     rts
                            	   136: 
                            	   137: ;------------------------------------------------------------------------------
                            	   138: ; _ppu_read_7 — PPUDATA ($2007) read
                            	   139: ;
                            	   140: ; T5: return 0.  Palette reads have a special one-cycle-delay buffer on real
                            	   141: ; NES hardware.  No reads of $2007 in Zelda's critical path; defer to T8+.
                            	   142: ;------------------------------------------------------------------------------
                            	   143: _ppu_read_7:
02:000003DE 7000            	   144:     moveq   #0,D0
02:000003E0 4E75            	   145:     rts
                            	   146: 
                            	   147: ;==============================================================================
                            	   148: ; PPU register writes ($2000–$2007 → _ppu_write_0 … _ppu_write_7)
                            	   149: ;==============================================================================
                            	   150: 
                            	   151: ;------------------------------------------------------------------------------
                            	   152: ; _ppu_write_0 — PPUCTRL ($2000)
                            	   153: ;
                            	   154: ; D0.b = value to write.
                            	   155: ; Bits of interest:
                            	   156: ;   bit 2 = VRAM address increment (0 → +1 horizontal, 1 → +32 vertical)
                            	   157: ;   bit 7 = NMI enable (0 = disable, 1 = enable on VBlank)
                            	   158: ;
                            	   159: ; We store the value so _ppu_write_7 can read the increment flag.
                            	   160: ; NMI enable is handled at the hardware level (VBlank ISR always fires);
                            	   161: ; Zelda controls this register to gate per-frame updates.
                            	   162: ;------------------------------------------------------------------------------
                            	   163: _ppu_write_0:
02:000003E2 13C000FF0804    	   164:     move.b  D0,(PPU_CTRL).l
02:000003E8 4E75            	   165:     rts
                            	   166: 
                            	   167: ;------------------------------------------------------------------------------
                            	   168: ; _ppu_write_1 — PPUMASK ($2001)
                            	   169: ; Store shadow for potential video-enable logic in T6+.
                            	   170: ;------------------------------------------------------------------------------
                            	   171: _ppu_write_1:
02:000003EA 13C000FF0805    	   172:     move.b  D0,(PPU_MASK).l
02:000003F0 4E75            	   173:     rts
                            	   174: 
                            	   175: ;------------------------------------------------------------------------------
                            	   176: ; _ppu_write_2 — PPUSTATUS ($2002) — write-only on real NES (no effect).
                            	   177: ;------------------------------------------------------------------------------
                            	   178: _ppu_write_2:
02:000003F2 4E75            	   179:     rts
                            	   180: 
                            	   181: ;------------------------------------------------------------------------------
                            	   182: ; _ppu_write_3 — OAM address ($2003) — store for future OAM DMA logic.
                            	   183: ;------------------------------------------------------------------------------
                            	   184: _ppu_write_3:
02:000003F4 4E75            	   185:     rts
                            	   186: 
                            	   187: ;------------------------------------------------------------------------------
                            	   188: ; _ppu_write_4 — OAM data ($2004) — T5: stub (OAM DMA via $4014 covers Zelda).
                            	   189: ;------------------------------------------------------------------------------
                            	   190: _ppu_write_4:
02:000003F6 4E75            	   191:     rts
                            	   192: 
                            	   193: ;------------------------------------------------------------------------------
                            	   194: ; _ppu_write_5 — PPUSCROLL ($2005)
                            	   195: ;
                            	   196: ; First  write (PPU_LATCH=0): horizontal scroll → PPU_SCRL_X, latch → 1.
                            	   197: ; Second write (PPU_LATCH=1): vertical   scroll → PPU_SCRL_Y, latch → 0.
                            	   198: ;
                            	   199: ; Writing to VDP scroll registers is deferred to T6 (visual output pass).
                            	   200: ; For T5 we just store the values so they're available when needed.
                            	   201: ;------------------------------------------------------------------------------
                            	   202: _ppu_write_5:
02:000003F8 48E74000        	   203:     movem.l D1,-(SP)
02:000003FC 123900FF0800    	   204:     move.b  (PPU_LATCH).l,D1
02:00000402 4A01            	   205:     tst.b   D1
02:00000404 6614            	   206:     bne.s   .second_write_5
                            	   207:     ; First write — horizontal scroll
02:00000406 13C000FF0806    	   208:     move.b  D0,(PPU_SCRL_X).l
02:0000040C 13FC000100FF0800	   209:     move.b  #1,(PPU_LATCH).l
02:00000414 4CDF0002        	   210:     movem.l (SP)+,D1
02:00000418 4E75            	   211:     rts
                            	   212: .second_write_5:
                            	   213:     ; Second write — vertical scroll
02:0000041A 13C000FF0807    	   214:     move.b  D0,(PPU_SCRL_Y).l
02:00000420 423900FF0800    	   215:     clr.b   (PPU_LATCH).l
02:00000426 4CDF0002        	   216:     movem.l (SP)+,D1
02:0000042A 4E75            	   217:     rts
                            	   218: 
                            	   219: ;------------------------------------------------------------------------------
                            	   220: ; _ppu_write_6 — PPUADDR ($2006)  ← T5 key implementation
                            	   221: ;
                            	   222: ; The NES PPU address register uses a two-write protocol (shared "w" latch):
                            	   223: ;   First  write: high byte of 15-bit VRAM address (bit 14 is forced clear by
                            	   224: ;                 hardware — valid VRAM is $0000–$3FFF).
                            	   225: ;   Second write: low byte.  After this write PPU_VADDR is fully updated and
                            	   226: ;                 the latch resets to 0.
                            	   227: ;
                            	   228: ; Side effect: resets the even-byte PPUDATA buffer (PPU_DHALF = 0) so that a
                            	   229: ; fresh address is always treated as the start of a new word-pair.
                            	   230: ;
                            	   231: ; Preserves: D1.
                            	   232: ;------------------------------------------------------------------------------
                            	   233: _ppu_write_6:
02:0000042C 48E74000        	   234:     movem.l D1,-(SP)
02:00000430 123900FF0800    	   235:     move.b  (PPU_LATCH).l,D1
02:00000436 4A01            	   236:     tst.b   D1
02:00000438 6618            	   237:     bne.s   .second_write_6
                            	   238:     ; ---- First write: high byte ----
                            	   239:     ; High byte goes into PPU_VADDR+0.  Force bit 6 (addr bit 14) clear to
                            	   240:     ; keep address in the valid $0000–$3FFF window (matches NES hardware).
02:0000043A 0200003F        	   241:     andi.b  #$3F,D0
02:0000043E 13C000FF0802    	   242:     move.b  D0,(PPU_VADDR).l        ; store high byte
02:00000444 13FC000100FF0800	   243:     move.b  #1,(PPU_LATCH).l
02:0000044C 4CDF0002        	   244:     movem.l (SP)+,D1
02:00000450 4E75            	   245:     rts
                            	   246: .second_write_6:
                            	   247:     ; ---- Second write: low byte ----
02:00000452 13C000FF0803    	   248:     move.b  D0,(PPU_VADDR+1).l      ; store low byte
02:00000458 423900FF0800    	   249:     clr.b   (PPU_LATCH).l           ; reset w register
02:0000045E 423900FF0809    	   250:     clr.b   (PPU_DHALF).l           ; discard any pending even-byte buffer
02:00000464 4CDF0002        	   251:     movem.l (SP)+,D1
02:00000468 4E75            	   252:     rts
                            	   253: 
                            	   254: ;------------------------------------------------------------------------------
                            	   255: ; _ppu_write_7 — PPUDATA ($2007)  ← T16 full implementation
                            	   256: ;
                            	   257: ; Routes byte writes to one of two paths based on PPU_VADDR:
                            	   258: ;
                            	   259: ;   CHR-RAM path  (PPU_VADDR $0000–$1FFF):
                            	   260: ;     Accumulates 16 bytes per NES tile in CHR_TILE_BUF, then on the 16th
                            	   261: ;     byte converts the 2BPP NES tile to 4BPP Genesis format and writes the
                            	   262: ;     32-byte result to VDP VRAM at Genesis addr = NES_addr × 2.
                            	   263: ;
                            	   264: ;   Nametable/palette path (PPU_VADDR $2000–$3FFF):
                            	   265: ;     Buffers even-address bytes and flushes pairs as 16-bit VDP words
                            	   266: ;     (unchanged from T5 — correct for nametable clears and palette writes).
                            	   267: ;
                            	   268: ; NES 2BPP → Genesis 4BPP conversion:
                            	   269: ;   16 bytes in: 8 bytes plane-0 then 8 bytes plane-1 (one bit per pixel)
                            	   270: ;   32 bytes out: 4 bytes per row, 2 pixels per byte, high-nibble = left pixel
                            	   271: ;   Pixel color = (plane1_bit << 1) | plane0_bit   (values 0–3)
                            	   272: ;
                            	   273: ; VDP auto-increment = 2 (Reg 15 = $8F02 set by genesis_shell).
                            	   274: ; PPU_VADDR increments by 1 (horizontal mode, bit 2 of PPUCTRL = 0).
                            	   275: ;
                            	   276: ; Preserves: D0–D5, A0–A6 (all saved/restored).
                            	   277: ;------------------------------------------------------------------------------
                            	   278: _ppu_write_7:
02:0000046A 48E7FC80        	   279:     movem.l D0-D5/A0,-(SP)          ; save all working registers (D0 = NES acc)
                            	   280: 
02:0000046E 323900FF0802    	   281:     move.w  (PPU_VADDR).l,D1        ; D1 = current NES PPU address
                            	   282: 
                            	   283:     ; Route: CHR range ($0000–$1FFF) vs nametable/palette ($2000–$3FFF)
02:00000474 0C412000        	   284:     cmpi.w  #$2000,D1
02:00000478 6444            	   285:     bhs     .nt_write               ; ≥$2000 → nametable / palette path
                            	   286: 
                            	   287:     ;==========================================================================
                            	   288:     ; CHR TILE BUFFER PATH
                            	   289:     ;==========================================================================
                            	   290:     ; Buffer each byte.  On the 16th byte, convert the tile and upload it.
02:0000047A 7400            	   291:     moveq   #0,D2
02:0000047C 143900FF0830    	   292:     move.b  (CHR_BUF_CNT).l,D2     ; D2 = bytes accumulated so far (0–15)
                            	   293: 
                            	   294:     ; Save this tile's base address on the first byte (aligned to 16 bytes)
02:00000482 4A02            	   295:     tst.b   D2
02:00000484 660C            	   296:     bne.s   .chr_store_byte
02:00000486 3601            	   297:     move.w  D1,D3
02:00000488 0243FFF0        	   298:     andi.w  #$FFF0,D3               ; round down to 16-byte tile boundary
02:0000048C 33C300FF0831    	   299:     move.w  D3,(CHR_BUF_VADDR).l
                            	   300: 
                            	   301: .chr_store_byte:
02:00000492 41F900FF0820    	   302:     lea     (CHR_TILE_BUF).l,A0
02:00000498 11802000        	   303:     move.b  D0,(A0,D2.w)            ; CHR_TILE_BUF[count] = byte
02:0000049C 523900FF0830    	   304:     addq.b  #1,(CHR_BUF_CNT).l     ; increment count
02:000004A2 616E            	   305:     bsr     .inc_ppuaddr            ; advance PPU_VADDR
                            	   306: 
02:000004A4 0C39001000FF0830	   307:     cmpi.b  #16,(CHR_BUF_CNT).l
02:000004AC 660A            	   308:     bne.s   .chr_ret                ; not yet 16 bytes — keep buffering
                            	   309: 
                            	   310:     ; Complete tile — convert 2BPP → 4BPP and upload to VDP VRAM
02:000004AE 61000086        	   311:     bsr     .chr_convert_upload
02:000004B2 423900FF0830    	   312:     clr.b   (CHR_BUF_CNT).l
                            	   313: 
                            	   314: .chr_ret:
02:000004B8 4CDF013F        	   315:     movem.l (SP)+,D0-D5/A0
02:000004BC 4E75            	   316:     rts
                            	   317: 
                            	   318:     ;==========================================================================
                            	   319:     ; NAMETABLE / PALETTE PATH  (PPU_VADDR $2000–$3FFF)
                            	   320:     ;==========================================================================
                            	   321:     ; Word-pair buffering: buffer even-address byte, flush word on odd address.
                            	   322:     ;==========================================================================
                            	   323: .nt_write:
02:000004BE 08010000        	   324:     btst    #0,D1
02:000004C2 6616            	   325:     bne.s   .nt_odd_byte            ; odd address → flush word
                            	   326: 
                            	   327:     ; ---- Even address: buffer the byte ----
02:000004C4 13C000FF0808    	   328:     move.b  D0,(PPU_DBUF).l
02:000004CA 13FC000100FF0809	   329:     move.b  #1,(PPU_DHALF).l
02:000004D2 613E            	   330:     bsr     .inc_ppuaddr
02:000004D4 4CDF013F        	   331:     movem.l (SP)+,D0-D5/A0
02:000004D8 4E75            	   332:     rts
                            	   333: 
                            	   334: .nt_odd_byte:
                            	   335:     ; ---- Odd address: assemble word and write to VDP VRAM ----
                            	   336:     ; VDP VRAM write command for word-aligned address (D1–1):
02:000004DA 7400            	   337:     moveq   #0,D2
02:000004DC 3401            	   338:     move.w  D1,D2                   ; D2.w = odd VRAM address
02:000004DE 5342            	   339:     subq.w  #1,D2                   ; D2.w = even (word-aligned)
02:000004E0 4842            	   340:     swap    D2                      ; D2   = word_addr << 16
02:000004E2 008240000000    	   341:     ori.l   #$40000000,D2           ; D2   = VDP VRAM-write command long
02:000004E8 23C200C00004    	   342:     move.l  D2,(VDP_CTRL).l
                            	   343: 
                            	   344:     ; Build word: high byte = PPU_DBUF (even), low byte = D0 (odd)
02:000004EE 7400            	   345:     moveq   #0,D2
02:000004F0 143900FF0808    	   346:     move.b  (PPU_DBUF).l,D2        ; D2.b = buffered even byte
02:000004F6 E14A            	   347:     lsl.w   #8,D2                  ; shift to high byte of word
02:000004F8 024000FF        	   348:     andi.w  #$00FF,D0              ; mask to byte
02:000004FC 8440            	   349:     or.w    D0,D2                  ; D2.w = complete word
02:000004FE 33C200C00000    	   350:     move.w  D2,(VDP_DATA).l        ; commit to VDP VRAM
                            	   351: 
02:00000504 423900FF0809    	   352:     clr.b   (PPU_DHALF).l
02:0000050A 6106            	   353:     bsr     .inc_ppuaddr
02:0000050C 4CDF013F        	   354:     movem.l (SP)+,D0-D5/A0
02:00000510 4E75            	   355:     rts
                            	   356: 
                            	   357:     ;==========================================================================
                            	   358:     ; .inc_ppuaddr — advance PPU_VADDR by 1 or 32.
                            	   359:     ; PPUCTRL bit 2: 0 → +1 horizontal, 1 → +32 vertical.
                            	   360:     ; Modifies D1.w.
                            	   361:     ;==========================================================================
                            	   362: .inc_ppuaddr:
02:00000512 323900FF0802    	   363:     move.w  (PPU_VADDR).l,D1
02:00000518 0839000200FF0804	   364:     btst    #2,(PPU_CTRL).l
02:00000520 6604            	   365:     bne.s   .inc32
02:00000522 5241            	   366:     addq.w  #1,D1
02:00000524 6004            	   367:     bra.s   .store_inc
                            	   368: .inc32:
02:00000526 06410020        	   369:     addi.w  #32,D1
                            	   370: .store_inc:
02:0000052A 02413FFF        	   371:     andi.w  #$3FFF,D1               ; clamp to valid PPU address range
02:0000052E 33C100FF0802    	   372:     move.w  D1,(PPU_VADDR).l
02:00000534 4E75            	   373:     rts
                            	   374: 
                            	   375:     ;==========================================================================
                            	   376:     ; .chr_convert_upload — convert 16-byte NES 2BPP tile to 32-byte Genesis
                            	   377:     ;                        4BPP and write to VDP VRAM.
                            	   378:     ;
                            	   379:     ; Input: CHR_TILE_BUF holds the 16 tile bytes.
                            	   380:     ;        CHR_BUF_VADDR holds the NES CHR base address (× 16-aligned).
                            	   381:     ;
                            	   382:     ; Genesis VRAM tile address = CHR_BUF_VADDR × 2 (tiles are 32 bytes each).
                            	   383:     ;
                            	   384:     ; For each of 8 rows:
                            	   385:     ;   plane0_row = CHR_TILE_BUF[row]       (bit 0 of each of 8 pixels)
                            	   386:     ;   plane1_row = CHR_TILE_BUF[row+8]     (bit 1 of each of 8 pixels)
                            	   387:     ;
                            	   388:     ; Pixel color = (plane1_bit << 1) | plane0_bit  →  4-bit Genesis nibble
                            	   389:     ;
                            	   390:     ; Output format per row (4 Genesis bytes = 2 VDP words):
                            	   391:     ;   byte 0: pixels 0,1  (high nibble = pixel 0, low nibble = pixel 1)
                            	   392:     ;   byte 1: pixels 2,3
                            	   393:     ;   byte 2: pixels 4,5
                            	   394:     ;   byte 3: pixels 6,7
                            	   395:     ;
                            	   396:     ; expand_nibble(n) helper: scatters 4-bit value n to positions 12,8,4,0
                            	   397:     ; of a 16-bit word (one bit per nibble).  Then OR-ing plane0 expansion
                            	   398:     ; with (plane1 expansion << 1) gives the correct Genesis word.
                            	   399:     ;
                            	   400:     ; Uses D0–D5/A0 (all caller-saved at _ppu_write_7 entry).
                            	   401:     ;==========================================================================
                            	   402: .chr_convert_upload:
                            	   403:     ; Set VDP write address: Genesis tile addr = NES CHR addr × 2
02:00000536 323900FF0831    	   404:     move.w  (CHR_BUF_VADDR).l,D1
02:0000053C D241            	   405:     add.w   D1,D1                   ; D1 = NES_addr × 2  (lsl #1)
                            	   406:     ; VDP VRAM write command for D1.w (< $4000, so upper word = 0):
02:0000053E 2401            	   407:     move.l  D1,D2
02:00000540 4842            	   408:     swap    D2                      ; D2 = D1.w << 16 (high word = addr)
02:00000542 008240000000    	   409:     ori.l   #$40000000,D2           ; VDP VRAM-write command
02:00000548 23C200C00004    	   410:     move.l  D2,(VDP_CTRL).l
                            	   411: 
02:0000054E 41F900FF0820    	   412:     lea     (CHR_TILE_BUF).l,A0     ; A0 → plane-0 row bytes (0..7)
02:00000554 7A07            	   413:     moveq   #7,D5                   ; 8 rows, counter 7..0
                            	   414: 
                            	   415: .ccu_row:
02:00000556 1610            	   416:     move.b  0(A0),D3                ; D3.b = plane 0 for this row
02:00000558 18280008        	   417:     move.b  8(A0),D4                ; D4.b = plane 1 for this row
02:0000055C 5288            	   418:     addq.l  #1,A0                   ; advance to next plane-0 row byte
                            	   419: 
                            	   420:     ; ---- Pixels 0-3 (upper nibbles of D3 and D4) ----
02:0000055E 1203            	   421:     move.b  D3,D1
02:00000560 E809            	   422:     lsr.b   #4,D1                   ; D1.b = upper nibble of plane0 (pix 0-3)
02:00000562 0201000F        	   423:     andi.b  #$0F,D1
02:00000566 6138            	   424:     bsr     .expand_nibble          ; D2.w = plane0 expansion (bit0 of each nibble)
02:00000568 3002            	   425:     move.w  D2,D0                   ; save plane0 expansion
                            	   426: 
02:0000056A 1204            	   427:     move.b  D4,D1
02:0000056C E809            	   428:     lsr.b   #4,D1                   ; D1.b = upper nibble of plane1 (pix 0-3)
02:0000056E 0201000F        	   429:     andi.b  #$0F,D1
02:00000572 612C            	   430:     bsr     .expand_nibble          ; D2.w = plane1 expansion
02:00000574 E34A            	   431:     lsl.w   #1,D2                   ; ×2 → puts plane1 bits in bit1 of each nibble
02:00000576 8440            	   432:     or.w    D0,D2                   ; combine: each nibble = (p1_bit<<1)|p0_bit
02:00000578 33C200C00000    	   433:     move.w  D2,(VDP_DATA).l         ; write pixels 0-3 (2 VDP bytes via auto-incr)
                            	   434: 
                            	   435:     ; ---- Pixels 4-7 (lower nibbles of D3 and D4) ----
02:0000057E 1203            	   436:     move.b  D3,D1
02:00000580 0201000F        	   437:     andi.b  #$0F,D1                 ; D1.b = lower nibble of plane0 (pix 4-7)
02:00000584 611A            	   438:     bsr     .expand_nibble
02:00000586 3002            	   439:     move.w  D2,D0                   ; save plane0 expansion
                            	   440: 
02:00000588 1204            	   441:     move.b  D4,D1
02:0000058A 0201000F        	   442:     andi.b  #$0F,D1                 ; D1.b = lower nibble of plane1 (pix 4-7)
02:0000058E 6110            	   443:     bsr     .expand_nibble
02:00000590 E34A            	   444:     lsl.w   #1,D2                   ; ×2 for plane1
02:00000592 8440            	   445:     or.w    D0,D2
02:00000594 33C200C00000    	   446:     move.w  D2,(VDP_DATA).l         ; write pixels 4-7
                            	   447: 
02:0000059A 5305            	   448:     subq.b  #1,D5
02:0000059C 6CB8            	   449:     bge.s   .ccu_row                ; loop for all 8 rows
02:0000059E 4E75            	   450:     rts
                            	   451: 
                            	   452:     ;==========================================================================
                            	   453:     ; .expand_nibble — scatter 4-bit nibble to bit-0 of each output nibble.
                            	   454:     ;
                            	   455:     ; Input:  D1.b = 4-bit value n (bits 3..0 = pixels 0..3 of one plane)
                            	   456:     ; Output: D2.w = bit3→pos12, bit2→pos8, bit1→pos4, bit0→pos0
                            	   457:     ;         Represents the plane-0 (or plane-1) contribution to 4 pixels.
                            	   458:     ;         Caller left-shifts by 1 for plane-1 (bit-1 contribution).
                            	   459:     ;
                            	   460:     ; Example: n = 0b1010 (pixels 0,2 set; pixels 1,3 clear)
                            	   461:     ;   output = $1010  ($1000 | $0010)
                            	   462:     ;   Meaning: pixel 0 nibble = 1, pixel 1 = 0, pixel 2 = 1, pixel 3 = 0.
                            	   463:     ;
                            	   464:     ; Uses: D0 (caller's D0 is saved on stack by _ppu_write_7).
                            	   465:     ;==========================================================================
                            	   466: .expand_nibble:
02:000005A0 7400            	   467:     moveq   #0,D2
                            	   468: 
                            	   469:     ; bit 3 of D1 → bit 12 of D2  (shift: 3→12, i.e. ×(4096/8) = ×512 = <<9)
02:000005A2 1001            	   470:     move.b  D1,D0
02:000005A4 02000008        	   471:     andi.b  #$08,D0                 ; isolate bit 3 ($08)
02:000005A8 E148            	   472:     lsl.w   #8,D0                   ; shift 8: $08 → $0800
02:000005AA E348            	   473:     lsl.w   #1,D0                   ; shift 1 more: $0800 → $1000  (bit 12)
02:000005AC 8440            	   474:     or.w    D0,D2
                            	   475: 
                            	   476:     ; bit 2 of D1 → bit 8 of D2  (<<6: $04 → $0100)
02:000005AE 1001            	   477:     move.b  D1,D0
02:000005B0 02000004        	   478:     andi.b  #$04,D0
02:000005B4 ED48            	   479:     lsl.w   #6,D0
02:000005B6 8440            	   480:     or.w    D0,D2
                            	   481: 
                            	   482:     ; bit 1 of D1 → bit 4 of D2  (<<3: $02 → $0010)
02:000005B8 1001            	   483:     move.b  D1,D0
02:000005BA 02000002        	   484:     andi.b  #$02,D0
02:000005BE E748            	   485:     lsl.w   #3,D0
02:000005C0 8440            	   486:     or.w    D0,D2
                            	   487: 
                            	   488:     ; bit 0 of D1 → bit 0 of D2  (no shift: $01 → $0001)
02:000005C2 1001            	   489:     move.b  D1,D0
02:000005C4 02000001        	   490:     andi.b  #$01,D0
02:000005C8 8440            	   491:     or.w    D0,D2
                            	   492: 
02:000005CA 4E75            	   493:     rts
                            	   494: 
                            	   495: ;==============================================================================
                            	   496: ; Controller I/O
                            	   497: ;==============================================================================
                            	   498: 
                            	   499: ;------------------------------------------------------------------------------
                            	   500: ; _ctrl_strobe — $4016 write: strobe the controller latch.
                            	   501: ; T5: stub — no input yet.
                            	   502: ;------------------------------------------------------------------------------
                            	   503: _ctrl_strobe:
02:000005CC 4E75            	   504:     rts
                            	   505: 
                            	   506: ;------------------------------------------------------------------------------
                            	   507: ; _ctrl_read_1 — $4016 read: read one bit from controller 1.
                            	   508: ; T5: return 0 (no buttons pressed) — no input yet.
                            	   509: ;------------------------------------------------------------------------------
                            	   510: _ctrl_read_1:
02:000005CE 7000            	   511:     moveq   #0,D0
02:000005D0 4E75            	   512:     rts
                            	   513: 
                            	   514: ;------------------------------------------------------------------------------
                            	   515: ; _ctrl_read_2 — $4017 read: controller 2 / frame counter.
                            	   516: ; Return 0.
                            	   517: ;------------------------------------------------------------------------------
                            	   518: _ctrl_read_2:
02:000005D2 7000            	   519:     moveq   #0,D0
02:000005D4 4E75            	   520:     rts
                            	   521: 
                            	   522: ;==============================================================================
                            	   523: ; OAM DMA
                            	   524: ;==============================================================================
                            	   525: 
                            	   526: ;------------------------------------------------------------------------------
                            	   527: ; _oam_dma — $4014 write: OAM DMA transfer.
                            	   528: ;
                            	   529: ; On NES, writing page number P to $4014 copies 256 bytes from CPU page P
                            	   530: ; ($PP00–$PPFF) to OAM.  Zelda writes #$02, meaning copy from $0200–$02FF.
                            	   531: ; NES $0200–$02FF maps to Genesis RAM $FF0200–$FF02FF (NES_RAM_BASE + $0200).
                            	   532: ;
                            	   533: ; T5: Stub — no sprite output yet.  In T7 we'll DMA the data into VDP OAM
                            	   534: ; via the sprite attribute table at VRAM $D800.
                            	   535: ;------------------------------------------------------------------------------
                            	   536: _oam_dma:
02:000005D6 4E75            	   537:     rts
                            	   538: 
                            	   539: ;==============================================================================
                            	   540: ; MMC1 mapper writes ($8000 / $A000 / $C000 / $E000)
                            	   541: ;==============================================================================
                            	   542: ;
                            	   543: ; T11b: real MMC1 shift-register decoder.
                            	   544: ;
                            	   545: ; Protocol: five consecutive writes to a register address.  Each write
                            	   546: ; contributes bit 0 (LSB first) to the 5-bit shift accumulator.  Writing
                            	   547: ; any byte with bit 7 set resets the shift register immediately.  On the
                            	   548: ; 5th valid write the accumulated 5-bit value is stored in the corresponding
                            	   549: ; MMC1 state register and the accumulator resets.
                            	   550: ;
                            	   551: ; MMC1 register map (Genesis RAM, $FF0812–$FF0815):
                            	   552: ;   $8000 writes → MMC1_CTRL  (mirroring, PRG mode, CHR mode)
                            	   553: ;   $A000 writes → MMC1_CHR0  (CHR bank 0)
                            	   554: ;   $C000 writes → MMC1_CHR1  (CHR bank 1)
                            	   555: ;   $E000 writes → MMC1_PRG   (PRG bank + RAM enable)
                            	   556: ;
                            	   557: ; Register contract:
                            	   558: ;   D0.b = write value (NES accumulator, from transpiler)
                            	   559: ;   D1-D3 saved/restored  (D3 = NES Y index — MUST be preserved)
                            	   560: ;   D3 repurposed internally as target register offset (0-3 from MMC1_CTRL)
                            	   561: ;   D1 = bit count (work), D2 = bit value (work)
                            	   562: ;
                            	   563: ; Expected state at LoopForever (T11b probe):
                            	   564: ;   MMC1_CTRL = $0F  (IsrReset → SetMMC1Control($0F))
                            	   565: ;   MMC1_PRG  = $05  (RunGame  → SwitchBank(5))
                            	   566: ;   MMC1_SHIFT = $00, MMC1_COUNT = $00  (reset after each 5th write)
                            	   567: ;==============================================================================
                            	   568: 
                            	   569: _mmc1_write_8000:
02:000005D8 48E77000        	   570:     movem.l D1-D3,-(SP)
02:000005DC 7600            	   571:     moveq   #0,D3                   ; CTRL is at offset 0 from MMC1_CTRL
02:000005DE 6016            	   572:     bra.s   _mmc1_common
                            	   573: 
                            	   574: _mmc1_write_a000:
02:000005E0 48E77000        	   575:     movem.l D1-D3,-(SP)
02:000005E4 7601            	   576:     moveq   #1,D3                   ; CHR0 is at offset 1
02:000005E6 600E            	   577:     bra.s   _mmc1_common
                            	   578: 
                            	   579: _mmc1_write_c000:
02:000005E8 48E77000        	   580:     movem.l D1-D3,-(SP)
02:000005EC 7602            	   581:     moveq   #2,D3                   ; CHR1 is at offset 2
02:000005EE 6006            	   582:     bra.s   _mmc1_common
                            	   583: 
                            	   584: _mmc1_write_e000:
02:000005F0 48E77000        	   585:     movem.l D1-D3,-(SP)
02:000005F4 7603            	   586:     moveq   #3,D3                   ; PRG is at offset 3
                            	   587:     ; fall through to _mmc1_common
                            	   588: 
                            	   589: _mmc1_common:
                            	   590:     ; Check bit 7 — reset strobe
02:000005F6 08000007        	   591:     btst    #7,D0
02:000005FA 6712            	   592:     beq.s   .no_reset
02:000005FC 423900FF0810    	   593:     clr.b   (MMC1_SHIFT).l
02:00000602 423900FF0811    	   594:     clr.b   (MMC1_COUNT).l
02:00000608 4CDF000E        	   595:     movem.l (SP)+,D1-D3
02:0000060C 4E75            	   596:     rts
                            	   597: 
                            	   598: .no_reset:
                            	   599:     ; Shift bit 0 of D0 into position MMC1_COUNT of the accumulator
02:0000060E 123900FF0811    	   600:     move.b  (MMC1_COUNT).l,D1      ; D1.b = current count (0–4)
02:00000614 1400            	   601:     move.b  D0,D2
02:00000616 02020001        	   602:     andi.b  #1,D2                   ; D2.b = bit 0 of write value
02:0000061A E32A            	   603:     lsl.b   D1,D2                   ; D2.b = bit shifted to correct position
02:0000061C 853900FF0810    	   604:     or.b    D2,(MMC1_SHIFT).l       ; accumulate into shift register
                            	   605: 
                            	   606:     ; Increment count; check for completion
02:00000622 523900FF0811    	   607:     addq.b  #1,(MMC1_COUNT).l
02:00000628 0C39000500FF0811	   608:     cmpi.b  #5,(MMC1_COUNT).l
02:00000630 6620            	   609:     bne.s   .mmc1_done              ; not yet 5 bits — wait for more writes
                            	   610: 
                            	   611:     ; 5th write: copy 5-bit shift value to the target state register
02:00000632 143900FF0810    	   612:     move.b  (MMC1_SHIFT).l,D2
02:00000638 0202001F        	   613:     andi.b  #$1F,D2                 ; mask to 5 bits
02:0000063C 41F900FF0812    	   614:     lea     (MMC1_CTRL).l,A0        ; A0 = base of MMC1_CTRL ($FF0812)
02:00000642 11823000        	   615:     move.b  D2,(A0,D3.w)            ; store at MMC1_CTRL + D3 offset
                            	   616: 
                            	   617:     ; Reset accumulator
02:00000646 423900FF0810    	   618:     clr.b   (MMC1_SHIFT).l
02:0000064C 423900FF0811    	   619:     clr.b   (MMC1_COUNT).l
                            	   620: 
                            	   621: .mmc1_done:
02:00000652 4CDF000E        	   622:     movem.l (SP)+,D1-D3
02:00000656 4E75            	   623:     rts
                            	   624: 
                            	   625: ;==============================================================================
                            	   626: ; APU writes ($4000–$4017)  — T5: silent stubs, audio in T10+
                            	   627: ;==============================================================================
                            	   628: _apu_write_4000:
                            	   629: _apu_write_4001:
                            	   630: _apu_write_4002:
                            	   631: _apu_write_4003:
                            	   632: _apu_write_4004:
                            	   633: _apu_write_4005:
                            	   634: _apu_write_4006:
                            	   635: _apu_write_4007:
                            	   636: _apu_write_4008:
                            	   637: _apu_write_400a:
                            	   638: _apu_write_400b:
                            	   639: _apu_write_400c:
                            	   640: _apu_write_400e:
                            	   641: _apu_write_400f:
                            	   642: _apu_write_4010:
                            	   643: _apu_write_4011:
                            	   644: _apu_write_4012:
                            	   645: _apu_write_4013:
                            	   646: _apu_write_4015:
                            	   647: _apu_write_4016:
                            	   648: _apu_write_4017:
02:00000658 4E75            	   649:     rts
                            	   650: 
                            	   651: ;==============================================================================
                            	   652: ; _indirect_stub — JMP (abs) indirect placeholder.
                            	   653: ; Called when the transpiler can't resolve an indirect jump target at
                            	   654: ; translate-time.  Halts via an infinite bra so BizHawk shows PC stuck here.
                            	   655: ; In T9+ these will be replaced by computed dispatch tables.
                            	   656: ;==============================================================================
                            	   657: _indirect_stub:
02:0000065A 60FE            	   658:     bra.s   _indirect_stub          ; spin — caught as deliberate halt in T9+
                            	   659: 
                            	   660: ;==============================================================================
                            	   661: ; _m68k_tablejump — M68K-native replacement for the NES JSR-trick TableJump.
                            	   662: ;
                            	   663: ; On NES, "JSR TableJump" is a JSR-trick: the bytes after the JSR are a
                            	   664: ; table of 16-bit vectors.  TableJump pops the return address from the 6502
                            	   665: ; stack to find the table base, then jumps through it using the value in A.
                            	   666: ;
                            	   667: ; In M68K, BSR pushes the return address (= table base) onto A7 (M68K stack),
                            	   668: ; not A5 (our NES stack).  The original TableJump pulled from A5 (zeros),
                            	   669: ; constructing a bogus NES address and jumping into garbage.
                            	   670: ;
                            	   671: ; This replacement correctly pops the M68K return address as the dc.l table
                            	   672: ; base, indexes by D0.b × 4, and dispatches.
                            	   673: ;
                            	   674: ; Calling convention:
                            	   675: ;   D0.b = mode index
                            	   676: ;   (A7)  = base address of the dc.l jump table (pushed by BSR)
                            	   677: ;   Jumps directly to the selected target (does not RTS).
                            	   678: ;==============================================================================
                            	   679: _m68k_tablejump:
02:0000065C 205F            	   680:     movea.l (SP)+,A0        ; pop M68K return address = dc.l table base
02:0000065E C07C00FF        	   681:     and.w   #$00FF,D0       ; zero-extend mode byte → word
02:00000662 E548            	   682:     lsl.w   #2,D0           ; D0.w = index × 4  (each dc.l = 4 bytes)
02:00000664 20700000        	   683:     movea.l (A0,D0.W),A0   ; load 32-bit target address from table
02:00000668 4ED0            	   684:     jmp     (A0)            ; dispatch (no return)
                            	   685: 

Source: "genesis_shell.asm"
                            	   344: 
                            	   345: ;==============================================================================
                            	   346: ; Zelda translated code — generated by tools/transpile_6502.py --no-stubs
                            	   347: ; Bank 7 (fixed bank, $C000-$FFFF on NES) contains IsrReset, IsrNmi, RunGame.
                            	   348: ; vasm CWD is src/ (set by build.bat pushd), so path is relative to src/.
                            	   349: ;==============================================================================
                            	   350:     include "zelda_translated/z_07.asm"

Source: "zelda_translated\z_07.asm"
                            	     1: ;==============================================================================
                            	     2: ; z_07.asm — auto-generated by transpile_6502.py
                            	     3: ; Source: reference/aldonunez/Z_07.asm
                            	     4: ; DO NOT EDIT — regenerate with: python tools/transpile_6502.py
                            	     5: ;
                            	     6: ; Register convention:
                            	     7: ;   D0 = 6502 A  (accumulator)
                            	     8: ;   D1 = scratch
                            	     9: ;   D2 = 6502 X  (X index register)
                            	    10: ;   D3 = 6502 Y  (Y index register)
                            	    11: ;   D4,D5 = scratch (used by indirect addressing sequences)
                            	    12: ;   D6 = scratch
                            	    13: ;   D7 = 6502 SP shadow (NES stack pointer, $0100 area)
                            	    14: ;   A4 = NES RAM base ($FF0000) — init by genesis_shell.asm
                            	    15: ;   A5 = NES stack pointer ($FF0200 initially, grows downward)
                            	    16: ;==============================================================================
                            	    17: 
                            	    18: NES_RAM         equ $FF0000
                            	    19: NES_SRAM        equ $FF6000
                            	    20: NES_STACK_BASE  equ $FF0100
                            	    21: 
                            	    22: ;==============================================================================
                            	    23: ; NES RAM variable offsets (used as (offset,A4) — A4=NES_RAM)
                            	    24: ; Source: Variables.inc + CommonVars.inc
                            	    25: ;==============================================================================
                            	    26: GLEEOK_DIRCOUNTERH                      equ $0000  ; NES RAM offset
                            	    27: GLEEOK_DIRCOUNTERV                      equ $0001  ; NES RAM offset
                            	    28: GLEEOK_SPEEDX                           equ $0002  ; NES RAM offset
                            	    29: GLEEOK_SPEEDY                           equ $0003  ; NES RAM offset
                            	    30: GLEEOK_DIRCHANGECOUNTER                 equ $0004  ; NES RAM offset
                            	    31: GLEEOK_DELAY                            equ $0005  ; NES RAM offset
                            	    32: CurLevel                                equ $0010  ; NES RAM offset
                            	    33: IsUpdatingMode                          equ $0011  ; NES RAM offset
                            	    34: GameMode                                equ $0012  ; NES RAM offset
                            	    35: GameSubmode                             equ $0013  ; NES RAM offset
                            	    36: TileBufSelector                         equ $0014  ; NES RAM offset
                            	    37: FrameCounter                            equ $0015  ; NES RAM offset
                            	    38: CurSaveSlot                             equ $0016  ; NES RAM offset
                            	    39: Random                                  equ $0018  ; NES RAM offset
                            	    40: StunCycle                               equ $0026  ; NES RAM offset
                            	    41: DoorTimer                               equ $0027  ; NES RAM offset
                            	    42: ObjTimer                                equ $0028  ; NES RAM offset
                            	    43: FluteTimer                              equ $003C  ; NES RAM offset
                            	    44: ObjStunTimer                            equ $003D  ; NES RAM offset
                            	    45: ChaseLongTimer                          equ $004A  ; NES RAM offset
                            	    46: MonstersFromEdgesLongTimer              equ $004B  ; NES RAM offset
                            	    47: SwordBlockedLongTimer                   equ $004C  ; NES RAM offset
                            	    48: RedLeeverLongTimer                      equ $004D  ; NES RAM offset
                            	    49: EndingFlashLongTimer                    equ $004D  ; NES RAM offset
                            	    50: HelpDropCount                           equ $0050  ; NES RAM offset
                            	    51: HelpDropValue                           equ $0051  ; NES RAM offset
                            	    52: ProcessedNarrowObj                      equ $0052  ; NES RAM offset
                            	    53: DoorwayDir                              equ $0053  ; NES RAM offset
                            	    54: TriggeredDoorCmd                        equ $0054  ; NES RAM offset
                            	    55: TriggeredDoorDir                        equ $0055  ; NES RAM offset
                            	    56: Link_GoStraightWhenDiagInput            equ $0056  ; NES RAM offset
                            	    57: Link_GoStraight                         equ $0057  ; NES RAM offset
                            	    58: VScrollAddrHi                           equ $0058  ; NES RAM offset
                            	    59: EmptyMonsterSlot                        equ $0059  ; NES RAM offset
                            	    60: UndergroundExitType                     equ $005A  ; NES RAM offset
                            	    61: TargetMode                              equ $005B  ; NES RAM offset
                            	    62: SwitchNameTablesReq                     equ $005C  ; NES RAM offset
                            	    63: CurScanRoomId                           equ $005D  ; NES RAM offset
                            	    64: SubmenuScrollProgress                   equ $005E  ; NES RAM offset
                            	    65: OddBaseNameTableOverride                equ $005F  ; NES RAM offset
                            	    66: ChaseOtherTarget                        equ $0060  ; NES RAM offset
                            	    67: ChaseTargetX                            equ $0061  ; NES RAM offset
                            	    68: ChaseTargetY                            equ $0062  ; NES RAM offset
                            	    69: World_IsFillingHearts                   equ $0063  ; NES RAM offset
                            	    70: LadderSlot                              equ $0064  ; NES RAM offset
                            	    71: UndergroundEntranceTile                 equ $0065  ; NES RAM offset
                            	    72: SongScriptPtrLo                         equ $0066  ; NES RAM offset
                            	    73: SongScriptPtrHi                         equ $0067  ; NES RAM offset
                            	    74: EffectCounter                           equ $0069  ; NES RAM offset
                            	    75: CurNoteLowPeriodSq0                     equ $006A  ; NES RAM offset
                            	    76: CurNoteLowPeriodSq1                     equ $006B  ; NES RAM offset
                            	    77: SongPhraseIndex                         equ $006C  ; NES RAM offset
                            	    78: CustomEnvelopeOffsetTune1               equ $006D  ; NES RAM offset
                            	    79: NoteLengthTune1                         equ $006E  ; NES RAM offset
                            	    80: NoteCounterTune1                        equ $006F  ; NES RAM offset
                            	    81: ObjX                                    equ $0070  ; NES RAM offset
                            	    82: ObjY                                    equ $0084  ; NES RAM offset
                            	    83: ObjDir                                  equ $0098  ; NES RAM offset
                            	    84: ObjRoomItemId                           equ $0098  ; NES RAM offset
                            	    85: RoomItemId                              equ $00AB  ; NES RAM offset
                            	    86: ObjState                                equ $00AC  ; NES RAM offset
                            	    87: Item_ObjItemId                          equ $00AC  ; NES RAM offset
                            	    88: ObjShoveDir                             equ $00C0  ; NES RAM offset
                            	    89: ObjShoveDistance                        equ $00D3  ; NES RAM offset
                            	    90: Paused                                  equ $00E0  ; NES RAM offset
                            	    91: MenuState                               equ $00E1  ; NES RAM offset
                            	    92: VScrollAddrLo                           equ $00E2  ; NES RAM offset
                            	    93: IsSprite0CheckActive                    equ $00E3  ; NES RAM offset
                            	    94: DeathTurns                              equ $00E5  ; NES RAM offset
                            	    95: VScrollStartFrame                       equ $00E6  ; NES RAM offset
                            	    96: CurColumn                               equ $00E8  ; NES RAM offset
                            	    97: CurRow                                  equ $00E9  ; NES RAM offset
                            	    98: WhirlwindPrevRoomId                     equ $00EA  ; NES RAM offset
                            	    99: RoomId                                  equ $00EB  ; NES RAM offset
                            	   100: NextRoomId                              equ $00EC  ; NES RAM offset
                            	   101: PrevRow                                 equ $00ED  ; NES RAM offset
                            	   102: CurOpenedDoors                          equ $00EE  ; NES RAM offset
                            	   103: _Unknown_F3                             equ $00F3  ; NES RAM offset
                            	   104: InitializedGame                         equ $00F4  ; NES RAM offset
                            	   105: TransferredCommonPatterns               equ $00F5  ; NES RAM offset
                            	   106: TransferredDemoPatterns                 equ $00F6  ; NES RAM offset
                            	   107: ReturnToBank4                           equ $00F7  ; NES RAM offset
                            	   108: ButtonsPressed                          equ $00F8  ; NES RAM offset
                            	   109: ButtonsDown                             equ $00FA  ; NES RAM offset
                            	   110: CurVScroll                              equ $00FC  ; NES RAM offset
                            	   111: CurHScroll                              equ $00FD  ; NES RAM offset
                            	   112: CurPpuMask_2001                         equ $00FE  ; NES RAM offset
                            	   113: CurPpuControl_2000                      equ $00FF  ; NES RAM offset
                            	   114: PositiveGridCellSize                    equ $010E  ; NES RAM offset
                            	   115: NegativeGridCellSize                    equ $010F  ; NES RAM offset
                            	   116: Sprites                                 equ $0200  ; NES RAM offset
                            	   117: DynTileBufLen                           equ $0301  ; NES RAM offset
                            	   118: DynTileBuf                              equ $0302  ; NES RAM offset
                            	   119: OpenDoorwayMask                         equ $033F  ; NES RAM offset
                            	   120: CurObjIndex                             equ $0340  ; NES RAM offset
                            	   121: RollingSpriteIndex                      equ $0341  ; NES RAM offset
                            	   122: FirstSpriteIndex                        equ $0342  ; NES RAM offset
                            	   123: LeftSpriteOffset                        equ $0343  ; NES RAM offset
                            	   124: RightSpriteOffset                       equ $0344  ; NES RAM offset
                            	   125: RoomBoundLeft                           equ $0346  ; NES RAM offset
                            	   126: RoomBoundRight                          equ $0347  ; NES RAM offset
                            	   127: RoomBoundUp                             equ $0348  ; NES RAM offset
                            	   128: RoomBoundDown                           equ $0349  ; NES RAM offset
                            	   129: ObjectFirstUnwalkableTile               equ $034A  ; NES RAM offset
                            	   130: ShotCollidesWithLink                    equ $034B  ; NES RAM offset
                            	   131: ActiveMonsterShots                      equ $034C  ; NES RAM offset
                            	   132: RoomAllDead                             equ $034D  ; NES RAM offset
                            	   133: RoomObjCount                            equ $034E  ; NES RAM offset
                            	   134: ObjType                                 equ $034F  ; NES RAM offset
                            	   135: RoomKillCount                           equ $034F  ; NES RAM offset
                            	   136: RoomObjTemplateType                     equ $035F  ; NES RAM offset
                            	   137: ObjMovingLimit                          equ $0380  ; NES RAM offset
                            	   138: ObjAngleFrac                            equ $0380  ; NES RAM offset
                            	   139: Shot_ObjBounceDir                       equ $0380  ; NES RAM offset
                            	   140: Moldorm_ObjOldDir                       equ $0380  ; NES RAM offset
                            	   141: Gohma_ObjShootTimer                     equ $0380  ; NES RAM offset
                            	   142: Gleook_HeadInfo2                        equ $0381  ; NES RAM offset
                            	   143: Manhandla_SegmentJustDied               equ $0383  ; NES RAM offset
                            	   144: Manhandla_BounceDir                     equ $0385  ; NES RAM offset
                            	   145: ObjGridOffset                           equ $0394  ; NES RAM offset
                            	   146: ObjRemDistance                          equ $0394  ; NES RAM offset
                            	   147: ObjAngleWhole                           equ $0394  ; NES RAM offset
                            	   148: Shot_ObjBounceDist                      equ $0394  ; NES RAM offset
                            	   149: RedWizzrobe_ObjFadeCounter              equ $0394  ; NES RAM offset
                            	   150: Gleeok_NeckXs3                          equ $0395  ; NES RAM offset
                            	   151: ObjPosFrac                              equ $03A8  ; NES RAM offset
                            	   152: Item_ObjItemLifetime                    equ $03A8  ; NES RAM offset
                            	   153: Gleook_HeadInfo3                        equ $03A9  ; NES RAM offset
                            	   154: ObjQSpeedFrac                           equ $03BC  ; NES RAM offset
                            	   155: Moldorm_ObjBounceDir                    equ $03BC  ; NES RAM offset
                            	   156: Gleeok_NeckYs3                          equ $03BD  ; NES RAM offset
                            	   157: ObjAnimCounter                          equ $03D0  ; NES RAM offset
                            	   158: ObjAnimFrame                            equ $03E4  ; NES RAM offset
                            	   159: ObjInputDir                             equ $03F8  ; NES RAM offset
                            	   160: ObjMetastate                            equ $0405  ; NES RAM offset
                            	   161: Item_ObjMonsterType                     equ $0412  ; NES RAM offset
                            	   162: StairsTargetY                           equ $0412  ; NES RAM offset
                            	   163: ObjWantsToShoot                         equ $0412  ; NES RAM offset
                            	   164: ObjPushTimer                            equ $0412  ; NES RAM offset
                            	   165: TileObjRoomId                           equ $0412  ; NES RAM offset
                            	   166: Fireball_ObjDirToTargetX                equ $0412  ; NES RAM offset
                            	   167: Flyer_ObjSpeedFrac                      equ $0412  ; NES RAM offset
                            	   168: Jumper_ObjSpeedWholeY                   equ $0412  ; NES RAM offset
                            	   169: Wallmaster_ObjStep                      equ $0412  ; NES RAM offset
                            	   170: PolsVoice_ObjSpeedWhole                 equ $0412  ; NES RAM offset
                            	   171: BlueWizzrobe_ObjTurnCounter             equ $0412  ; NES RAM offset
                            	   172: RedWizzrobe_ObjAnimCounter              equ $0412  ; NES RAM offset
                            	   173: Manhandla_ObjSpeedAccum                 equ $0412  ; NES RAM offset
                            	   174: Gohma_ObjDistTraveled                   equ $0412  ; NES RAM offset
                            	   175: TriforceGlowTimer                       equ $0412  ; NES RAM offset
                            	   176: PeaceCharDelayCounter                   equ $0412  ; NES RAM offset
                            	   177: TriforceGlowCycle                       equ $0413  ; NES RAM offset
                            	   178: Gleeok_ObjHeadInfo                      equ $0413  ; NES RAM offset
                            	   179: Gleeok_ObjHeadDirCounterH               equ $0413  ; NES RAM offset
                            	   180: PeaceCharIndex                          equ $0413  ; NES RAM offset
                            	   181: CaveFlags                               equ $0413  ; NES RAM offset
                            	   182: Gleeok_ObjHeadDirCounterV               equ $0414  ; NES RAM offset
                            	   183: ScrolledScreenCount                     equ $0415  ; NES RAM offset
                            	   184: Gleeok_ObjHeadSpeedX                    equ $0415  ; NES RAM offset
                            	   185: PersonTextSelector                      equ $0415  ; NES RAM offset
                            	   186: Gleeok_ObjHeadSpeedY                    equ $0416  ; NES RAM offset
                            	   187: TextboxCharIndex                        equ $0416  ; NES RAM offset
                            	   188: PersonTextIndex                         equ $0416  ; NES RAM offset
                            	   189: DemoLineAttrVramAddrLo                  equ $0417  ; NES RAM offset
                            	   190: Gleeok_ObjHeadDirChangeCounter          equ $0417  ; NES RAM offset
                            	   191: DemoLineAttrVramAddrHi                  equ $0418  ; NES RAM offset
                            	   192: Gleeok_ObjHeadDelay                     equ $0418  ; NES RAM offset
                            	   193: DemoLineIndex                           equ $0419  ; NES RAM offset
                            	   194: DemoTimer                               equ $041A  ; NES RAM offset
                            	   195: ScrolledLineCount                       equ $041B  ; NES RAM offset
                            	   196: DemoLineTileVramAddrLo                  equ $041C  ; NES RAM offset
                            	   197: DemoLineTileVramAddrHi                  equ $041D  ; NES RAM offset
                            	   198: ObjTurnRate                             equ $041F  ; NES RAM offset
                            	   199: Fireball_ObjQSpeedX                     equ $041F  ; NES RAM offset
                            	   200: Flyer_ObjSpeed                          equ $041F  ; NES RAM offset
                            	   201: Jumper_ObjSpeedFracY                    equ $041F  ; NES RAM offset
                            	   202: Wallmaster_ObjTilesCrossed              equ $041F  ; NES RAM offset
                            	   203: Digdogger_ObjSpeedFrac                  equ $041F  ; NES RAM offset
                            	   204: PolsVoice_ObjLastTile                   equ $041F  ; NES RAM offset
                            	   205: Wizzrobe_ObjLastTile                    equ $041F  ; NES RAM offset
                            	   206: Manhandla_ObjSpeedFrac                  equ $041F  ; NES RAM offset
                            	   207: Gohma_ObjMoveAccum                      equ $041F  ; NES RAM offset
                            	   208: InitializedWaterfallAnimation           equ $041F  ; NES RAM offset
                            	   209: CharBoardIndex                          equ $041F  ; NES RAM offset
                            	   210: Gleook_HeadInfo0                        equ $0420  ; NES RAM offset
                            	   211: TitleWaveYs                             equ $0420  ; NES RAM offset
                            	   212: InitializedNameField                    equ $0420  ; NES RAM offset
                            	   213: NameCharOffset                          equ $0421  ; NES RAM offset
                            	   214: NameInputCharBuf                        equ $0422  ; NES RAM offset
                            	   215: CaveItemIds                             equ $0422  ; NES RAM offset
                            	   216: StillHoldingButton                      equ $0426  ; NES RAM offset
                            	   217: HeldButton                              equ $0427  ; NES RAM offset
                            	   218: SubsequentButtonRepeat                  equ $0428  ; NES RAM offset
                            	   219: ButtonRepeatTimer                       equ $0429  ; NES RAM offset
                            	   220: ModeE_WrappedAroundBoardY               equ $042A  ; NES RAM offset
                            	   221: ObjRefId                                equ $042C  ; NES RAM offset
                            	   222: ObjCaptureTimer                         equ $042C  ; NES RAM offset
                            	   223: Flyer_ObjTurns                          equ $042C  ; NES RAM offset
                            	   224: Digdogger_ObjSpeedWhole                 equ $042C  ; NES RAM offset
                            	   225: Dodongo_ObjBloatedSubstate              equ $042C  ; NES RAM offset
                            	   226: PolsVoice_ObjTargetY                    equ $042C  ; NES RAM offset
                            	   227: Manhandla_ObjSpeedWhole                 equ $042C  ; NES RAM offset
                            	   228: Gohma_ObjNextOpenEyeCounter             equ $042C  ; NES RAM offset
                            	   229: Ganon_ObjPhase                          equ $042C  ; NES RAM offset
                            	   230: DemoPhase                               equ $042C  ; NES RAM offset
                            	   231: DemoSubphase                            equ $042D  ; NES RAM offset
                            	   232: Gleook_HeadInfo1                        equ $042D  ; NES RAM offset
                            	   233: DemoLineTextIndex                       equ $042E  ; NES RAM offset
                            	   234: CaveCurPriceIndex                       equ $042E  ; NES RAM offset
                            	   235: DemoItemRow                             equ $042F  ; NES RAM offset
                            	   236: CaveCurPriceOffset                      equ $042F  ; NES RAM offset
                            	   237: CavePrices                              equ $0430  ; NES RAM offset
                            	   238: Fireball_ObjDirToTargetY                equ $0437  ; NES RAM offset
                            	   239: Flyer_ObjDistTraveled                   equ $0437  ; NES RAM offset
                            	   240: Digdogger_ObjTargetSpeedFrac            equ $0437  ; NES RAM offset
                            	   241: Dodongo_ObjBombHits                     equ $0437  ; NES RAM offset
                            	   242: Manhandla_ObjPrevFrame                  equ $0437  ; NES RAM offset
                            	   243: DemoPhase0Subphase1Cycle                equ $0437  ; NES RAM offset
                            	   244: DemoPhase0Subphase1Timer                equ $0438  ; NES RAM offset
                            	   245: Gleeok_NeckXs0                          equ $0438  ; NES RAM offset
                            	   246: CaveChosenIndex                         equ $0438  ; NES RAM offset
                            	   247: Fireball_ObjQSpeedY                     equ $0444  ; NES RAM offset
                            	   248: Flyer_ObjFlyingState                    equ $0444  ; NES RAM offset
                            	   249: Jumper_ObjTargetY                       equ $0444  ; NES RAM offset
                            	   250: Digdogger_ObjTargetSpeedWhole           equ $0444  ; NES RAM offset
                            	   251: PolsVoice_ObjSpeedFrac                  equ $0444  ; NES RAM offset
                            	   252: Gohma_ObjEyeOpenTimer                   equ $0444  ; NES RAM offset
                            	   253: DemoItemIds                             equ $0444  ; NES RAM offset
                            	   254: Ganon_ScenePhase                        equ $0445  ; NES RAM offset
                            	   255: Gleeok_NeckYs0                          equ $0445  ; NES RAM offset
                            	   256: MoneyGameAmounts                        equ $0448  ; NES RAM offset
                            	   257: ObjShootTimer                           equ $0451  ; NES RAM offset
                            	   258: Fireball_ObjPosFracX                    equ $0451  ; NES RAM offset
                            	   259: Jumper_ObjReversalCount                 equ $0451  ; NES RAM offset
                            	   260: Manhandla_ObjFrameAccum                 equ $0451  ; NES RAM offset
                            	   261: Gohma_ObjGoStraight                     equ $0451  ; NES RAM offset
                            	   262: Gleeok_NeckXs1                          equ $0452  ; NES RAM offset
                            	   263: Fireball_ObjPosFracY                    equ $045E  ; NES RAM offset
                            	   264: Digdogger_ObjSpeedFlag                  equ $045E  ; NES RAM offset
                            	   265: Dodongo_ObjBloatedTimer                 equ $045E  ; NES RAM offset
                            	   266: Gohma_ObjSprints                        equ $045E  ; NES RAM offset
                            	   267: Patra_ObjManeuverIndex                  equ $045E  ; NES RAM offset
                            	   268: Gleeok_NeckYs1                          equ $045F  ; NES RAM offset
                            	   269: TextboxCharPtr                          equ $045F  ; NES RAM offset
                            	   270: PersonTextPtr                           equ $045F  ; NES RAM offset
                            	   271: Flyer_ObjOffsetX                        equ $046B  ; NES RAM offset
                            	   272: Digdogger_ObjIsChild                    equ $046B  ; NES RAM offset
                            	   273: Gohma_ObjEyeState                       equ $046B  ; NES RAM offset
                            	   274: Ganon_ObjAnimationFrame                 equ $046B  ; NES RAM offset
                            	   275: Gleeok_NeckXs2                          equ $046C  ; NES RAM offset
                            	   276: ObjTurnTimer                            equ $0478  ; NES RAM offset
                            	   277: Flyer_ObjOffsetY                        equ $0478  ; NES RAM offset
                            	   278: Digdogger_ObjCurPart                    equ $0478  ; NES RAM offset
                            	   279: Aquamentus_ObjFireballOffset            equ $0478  ; NES RAM offset
                            	   280: Manhandla_ObjFrame                      equ $0478  ; NES RAM offset
                            	   281: Gohma_ObjEyeAnimCounter                 equ $0478  ; NES RAM offset
                            	   282: Ganon_ObjCloudDist                      equ $0478  ; NES RAM offset
                            	   283: Gleeok_NeckYs2                          equ $0479  ; NES RAM offset
                            	   284: ObjHP                                   equ $0485  ; NES RAM offset
                            	   285: ObjUninitialized                        equ $0492  ; NES RAM offset
                            	   286: ObjCollidedTile                         equ $049E  ; NES RAM offset
                            	   287: ObjInvincibilityMask                    equ $04B2  ; NES RAM offset
                            	   288: ObjAttr                                 equ $04BF  ; NES RAM offset
                            	   289: PersonFireballsEnabled                  equ $04CC  ; NES RAM offset
                            	   290: LevelBlockAttrsByteF                    equ $04CD  ; NES RAM offset
                            	   291: ShutterTrigger                          equ $04CE  ; NES RAM offset
                            	   292: BlockPushComplete                       equ $04CF  ; NES RAM offset
                            	   293: FlyingMaxSpeedFrac                      equ $04D1  ; NES RAM offset
                            	   294: GleeokCurNeck                           equ $04D7  ; NES RAM offset
                            	   295: GleeokSignedRefSegmentDistance          equ $04D8  ; NES RAM offset
                            	   296: GleeokPrimarySegmentLimits              equ $04D9  ; NES RAM offset
                            	   297: GleeokSecondarySegmentLimits            equ $04DB  ; NES RAM offset
                            	   298: GleeokTertiarySegmentLimits             equ $04DD  ; NES RAM offset
                            	   299: StatusBarMapTrigger                     equ $04E5  ; NES RAM offset
                            	   300: GleeokAnimationTimer                    equ $04E6  ; NES RAM offset
                            	   301: Lamnola_Speed                           equ $04E6  ; NES RAM offset
                            	   302: GleeokBodyAnimationFrame                equ $04E7  ; NES RAM offset
                            	   303: Lamnola_Type                            equ $04E7  ; NES RAM offset
                            	   304: Statue_ObjFireballTimer                 equ $04E8  ; NES RAM offset
                            	   305: ObjInvincibilityTimer                   equ $04F0  ; NES RAM offset
                            	   306: LeftAlignHalfWidthObj                   equ $0504  ; NES RAM offset
                            	   307: ItemTypeToLift                          equ $0505  ; NES RAM offset
                            	   308: ItemLiftTimer                           equ $0506  ; NES RAM offset
                            	   309: ChildDigdoggerCount                     equ $0507  ; NES RAM offset
                            	   310: SummonedWhirlwind                       equ $0508  ; NES RAM offset
                            	   311: TriforceFanfareActive                   equ $0509  ; NES RAM offset
                            	   312: CreditsRow                              equ $050A  ; NES RAM offset
                            	   313: CreditsTileOffset                       equ $050B  ; NES RAM offset
                            	   314: CreditsVramPage                         equ $050C  ; NES RAM offset
                            	   315: CreditsVramLine                         equ $050D  ; NES RAM offset
                            	   316: CreditsLineIndex                        equ $050E  ; NES RAM offset
                            	   317: LamnolaViableDirMask                    equ $050F  ; NES RAM offset
                            	   318: ActiveRedLeeverCount                    equ $0510  ; NES RAM offset
                            	   319: Gleeok_WrithingCounter                  equ $0510  ; NES RAM offset
                            	   320: GleeokDeadNeckMask                      equ $0511  ; NES RAM offset
                            	   321: LinkParalyzed                           equ $0512  ; NES RAM offset
                            	   322: UsedCandle                              equ $0513  ; NES RAM offset
                            	   323: ZoraActive                              equ $0514  ; NES RAM offset
                            	   324: ActiveBoulders                          equ $0515  ; NES RAM offset
                            	   325: SecretColorCycle                        equ $051A  ; NES RAM offset
                            	   326: UsedFlute                               equ $051B  ; NES RAM offset
                            	   327: FadeCycle                               equ $051C  ; NES RAM offset
                            	   328: PatternBlockIndex                       equ $051D  ; NES RAM offset
                            	   329: BrighteningRoom                         equ $051E  ; NES RAM offset
                            	   330: CandleState                             equ $051F  ; NES RAM offset
                            	   331: PrevOpenedDoors                         equ $0521  ; NES RAM offset
                            	   332: WhirlwindTeleportingState               equ $0522  ; NES RAM offset
                            	   333: TeleportingLevelIndex                   equ $0523  ; NES RAM offset
                            	   334: SpawnCycle                              equ $0524  ; NES RAM offset
                            	   335: CurEdgeSpawnCell                        equ $0525  ; NES RAM offset
                            	   336: CaveSourceRoomId                        equ $0526  ; NES RAM offset
                            	   337: CellarSourceRoomId                      equ $0527  ; NES RAM offset
                            	   338: SkippedDemo                             equ $0528  ; NES RAM offset
                            	   339: WorldKillCycle                          equ $052A  ; NES RAM offset
                            	   340: RoomTileObjType                         equ $052B  ; NES RAM offset
                            	   341: RoomTileObjX                            equ $052C  ; NES RAM offset
                            	   342: RoomTileObjY                            equ $052D  ; NES RAM offset
                            	   343: SwordBlocked                            equ $052E  ; NES RAM offset
                            	   344: MazeStep                                equ $052F  ; NES RAM offset
                            	   345: PlayAreaAttrs                           equ $0530  ; NES RAM offset
                            	   346: LevelKillCounts                         equ $0560  ; NES RAM offset
                            	   347: CurNoteLowPeriodTrg                     equ $05F0  ; NES RAM offset
                            	   348: SampleCounter                           equ $05F2  ; NES RAM offset
                            	   349: SeaSfxCounter                           equ $05F3  ; NES RAM offset
                            	   350: NoteLengthTableBase                     equ $05F4  ; NES RAM offset
                            	   351: FirstNoteIndexSongNoise                 equ $05F5  ; NES RAM offset
                            	   352: BackgroundSample                        equ $05F6  ; NES RAM offset
                            	   353: SongRequest                             equ $0600  ; NES RAM offset
                            	   354: SampleRequest                           equ $0601  ; NES RAM offset
                            	   355: Tune1Request                            equ $0602  ; NES RAM offset
                            	   356: EffectRequest                           equ $0603  ; NES RAM offset
                            	   357: Tune0Request                            equ $0604  ; NES RAM offset
                            	   358: Tune0                                   equ $0605  ; NES RAM offset
                            	   359: Effect                                  equ $0606  ; NES RAM offset
                            	   360: Tune1                                   equ $0607  ; NES RAM offset
                            	   361: Sample                                  equ $0608  ; NES RAM offset
                            	   362: Song                                    equ $0609  ; NES RAM offset
                            	   363: NoteOffsetSongSq1                       equ $060A  ; NES RAM offset
                            	   364: NoteOffsetSongSq0                       equ $060B  ; NES RAM offset
                            	   365: NoteOffsetSongTrg                       equ $060C  ; NES RAM offset
                            	   366: NoteOffsetSongNoise                     equ $060D  ; NES RAM offset
                            	   367: TunePtr0                                equ $060E  ; NES RAM offset
                            	   368: NoteLengthSongSq0                       equ $060F  ; NES RAM offset
                            	   369: NoteLengthSongSq1                       equ $0610  ; NES RAM offset
                            	   370: NoteCounterSongSq1                      equ $0611  ; NES RAM offset
                            	   371: CustomEnvelopeOffsetSongSq1             equ $0612  ; NES RAM offset
                            	   372: NoteCounterSongSq0                      equ $0613  ; NES RAM offset
                            	   373: CustomEnvelopeOffsetSongSq0             equ $0614  ; NES RAM offset
                            	   374: NoteLengthSongTrg                       equ $0615  ; NES RAM offset
                            	   375: NoteCounterSongTrg                      equ $0616  ; NES RAM offset
                            	   376: NoteCounterSongNoise                    equ $0617  ; NES RAM offset
                            	   377: TunePtr1                                equ $0618  ; NES RAM offset
                            	   378: SongEnvelopeSelector                    equ $0619  ; NES RAM offset
                            	   379: SongVibrationCounterSq1                 equ $061B  ; NES RAM offset
                            	   380: SongVibrationCounterSq0                 equ $061C  ; NES RAM offset
                            	   381: SongVibrationCounterTrg                 equ $061D  ; NES RAM offset
                            	   382: SongRepetitionsTrg                      equ $061E  ; NES RAM offset
                            	   383: SongRepeatStartOffset                   equ $061F  ; NES RAM offset
                            	   384: CurRoomHistoryIndex                     equ $0620  ; NES RAM offset
                            	   385: RoomHistory                             equ $0621  ; NES RAM offset
                            	   386: WorldKillCount                          equ $0627  ; NES RAM offset
                            	   387: QuestNumbers                            equ $062D  ; NES RAM offset
                            	   388: DeathCounts                             equ $0630  ; NES RAM offset
                            	   389: IsSaveSlotActive                        equ $0633  ; NES RAM offset
                            	   390: IsRegisterSaveFileOptionEnabled         equ $0636  ; NES RAM offset
                            	   391: IsEliminateSaveFileOptionEnabled        equ $0637  ; NES RAM offset
                            	   392: Names                                   equ $0638  ; NES RAM offset
                            	   393: SaveSlotHearts                          equ $0650  ; NES RAM offset
                            	   394: SelectedItemSlot                        equ $0656  ; NES RAM offset
                            	   395: Items                                   equ $0657  ; NES RAM offset
                            	   396: InvBombs                                equ $0658  ; NES RAM offset
                            	   397: InvArrow                                equ $0659  ; NES RAM offset
                            	   398: Bow                                     equ $065A  ; NES RAM offset
                            	   399: InvCandle                               equ $065B  ; NES RAM offset
                            	   400: InvFood                                 equ $065D  ; NES RAM offset
                            	   401: Potion                                  equ $065E  ; NES RAM offset
                            	   402: InvRaft                                 equ $0660  ; NES RAM offset
                            	   403: InvBook                                 equ $0661  ; NES RAM offset
                            	   404: InvRing                                 equ $0662  ; NES RAM offset
                            	   405: InvLadder                               equ $0663  ; NES RAM offset
                            	   406: InvMagicKey                             equ $0664  ; NES RAM offset
                            	   407: InvBracelet                             equ $0665  ; NES RAM offset
                            	   408: InvLetter                               equ $0666  ; NES RAM offset
                            	   409: InvCompass                              equ $0667  ; NES RAM offset
                            	   410: InvMap                                  equ $0668  ; NES RAM offset
                            	   411: InvCompass9                             equ $0669  ; NES RAM offset
                            	   412: InvMap9                                 equ $066A  ; NES RAM offset
                            	   413: InvClock                                equ $066C  ; NES RAM offset
                            	   414: InvRupees                               equ $066D  ; NES RAM offset
                            	   415: InvKeys                                 equ $066E  ; NES RAM offset
                            	   416: HeartValues                             equ $066F  ; NES RAM offset
                            	   417: HeartPartial                            equ $0670  ; NES RAM offset
                            	   418: InvTriforce                             equ $0671  ; NES RAM offset
                            	   419: LastBossDefeated                        equ $0672  ; NES RAM offset
                            	   420: InvBoomerang                            equ $0674  ; NES RAM offset
                            	   421: InvMagicBoomerang                       equ $0675  ; NES RAM offset
                            	   422: InvMagicShield                          equ $0676  ; NES RAM offset
                            	   423: MaxBombs                                equ $067C  ; NES RAM offset
                            	   424: RupeesToAdd                             equ $067D  ; NES RAM offset
                            	   425: RupeesToSubtract                        equ $067E  ; NES RAM offset
                            	   426: WorldFlags                              equ $067F  ; NES RAM offset
                            	   427: PpuControl_2000                         equ $2000  ; NES I/O
                            	   428: PpuMask_2001                            equ $2001  ; NES I/O
                            	   429: PpuStatus_2002                          equ $2002  ; NES I/O
                            	   430: OamAddr_2003                            equ $2003  ; NES I/O
                            	   431: OamData_2004                            equ $2004  ; NES I/O
                            	   432: PpuScroll_2005                          equ $2005  ; NES I/O
                            	   433: PpuAddr_2006                            equ $2006  ; NES I/O
                            	   434: PpuData_2007                            equ $2007  ; NES I/O
                            	   435: Sq0Duty_4000                            equ $4000  ; NES I/O
                            	   436: Sq0Sweep_4001                           equ $4001  ; NES I/O
                            	   437: Sq0Timer_4002                           equ $4002  ; NES I/O
                            	   438: Sq0Length_4003                          equ $4003  ; NES I/O
                            	   439: Sq1Duty_4004                            equ $4004  ; NES I/O
                            	   440: Sq1Sweep_4005                           equ $4005  ; NES I/O
                            	   441: Sq1Timer_4006                           equ $4006  ; NES I/O
                            	   442: Sq1Length_4007                          equ $4007  ; NES I/O
                            	   443: TrgLinear_4008                          equ $4008  ; NES I/O
                            	   444: TrgTimer_400A                           equ $400A  ; NES I/O
                            	   445: TrgLength_400B                          equ $400B  ; NES I/O
                            	   446: NoiseVolume_400C                        equ $400C  ; NES I/O
                            	   447: NoisePeriod_400E                        equ $400E  ; NES I/O
                            	   448: NoiseLength_400F                        equ $400F  ; NES I/O
                            	   449: DmcFreq_4010                            equ $4010  ; NES I/O
                            	   450: DmcCounter_4011                         equ $4011  ; NES I/O
                            	   451: DmcAddress_4012                         equ $4012  ; NES I/O
                            	   452: DmcLength_4013                          equ $4013  ; NES I/O
                            	   453: SpriteDma_4014                          equ $4014  ; NES I/O
                            	   454: ApuStatus_4015                          equ $4015  ; NES I/O
                            	   455: Ctrl1_4016                              equ $4016  ; NES I/O
                            	   456: Ctrl2_FrameCtr_4017                     equ $4017  ; NES I/O
                            	   457: SaveRamBegin                            equ $6001  ; NES SRAM
                            	   458: SaveFileAName0                          equ $6002  ; NES SRAM
                            	   459: SaveFileAName1                          equ $600A  ; NES SRAM
                            	   460: SaveFileAName2                          equ $6012  ; NES SRAM
                            	   461: SaveFileAItems0                         equ $601A  ; NES SRAM
                            	   462: SaveFileAItems1                         equ $6042  ; NES SRAM
                            	   463: SaveFileAItems2                         equ $606A  ; NES SRAM
                            	   464: SaveFileAWorldFlags0                    equ $6092  ; NES SRAM
                            	   465: SaveFileAWorldFlags1                    equ $6212  ; NES SRAM
                            	   466: SaveFileAWorldFlags2                    equ $6392  ; NES SRAM
                            	   467: SaveFileASlotActive0                    equ $6512  ; NES SRAM
                            	   468: SaveFileASlotActive1                    equ $6513  ; NES SRAM
                            	   469: SaveFileASlotActive2                    equ $6514  ; NES SRAM
                            	   470: SaveFileADeathCount0                    equ $6515  ; NES SRAM
                            	   471: SaveFileADeathCount1                    equ $6516  ; NES SRAM
                            	   472: SaveFileADeathCount2                    equ $6517  ; NES SRAM
                            	   473: SaveFileAQuestNumber0                   equ $651B  ; NES SRAM
                            	   474: SaveFileAQuestNumber1                   equ $651C  ; NES SRAM
                            	   475: SaveFileAQuestNumber2                   equ $651D  ; NES SRAM
                            	   476: SaveFileOpenMarkers                     equ $651E  ; NES SRAM
                            	   477: SaveFileCloseMarkers                    equ $6521  ; NES SRAM
                            	   478: FileAChecksums                          equ $6524  ; NES SRAM
                            	   479: IsSaveFileBCommitted                    equ $652A  ; NES SRAM
                            	   480: PlayAreaTiles                           equ $6530  ; NES SRAM
                            	   481: LevelBlockAttrsA                        equ $687E  ; NES SRAM
                            	   482: LevelBlockAttrsB                        equ $68FE  ; NES SRAM
                            	   483: LevelBlockAttrsC                        equ $697E  ; NES SRAM
                            	   484: LevelBlockAttrsD                        equ $69FE  ; NES SRAM
                            	   485: LevelBlockAttrsE                        equ $6A7E  ; NES SRAM
                            	   486: LevelBlockAttrsF                        equ $6AFE  ; NES SRAM
                            	   487: LevelInfo_PalettesTransferBuf           equ $6B7E  ; NES SRAM
                            	   488: LevelInfo_FoeCounts                     equ $6BA2  ; NES SRAM
                            	   489: LevelInfo_StartY                        equ $6BA6  ; NES SRAM
                            	   490: LevelInfo_ShortcutOrItemPosArray        equ $6BA7  ; NES SRAM
                            	   491: LevelInfo_SubmenuMapRotation            equ $6BAB  ; NES SRAM
                            	   492: LevelInfo_StatusBarMapXOffset           equ $6BAC  ; NES SRAM
                            	   493: LevelInfo_StartRoomId                   equ $6BAD  ; NES SRAM
                            	   494: LevelInfo_TriforceRoomId                equ $6BAE  ; NES SRAM
                            	   495: LevelInfo_WorldFlagsAddr                equ $6BAF  ; NES SRAM
                            	   496: LevelInfo_LevelNumber                   equ $6BB1  ; NES SRAM
                            	   497: LevelInfo_CellarRoomIdArray             equ $6BB2  ; NES SRAM
                            	   498: LevelInfo_BossRoomId                    equ $6BBC  ; NES SRAM
                            	   499: LevelInfo_SubmenuMapMask                equ $6BBD  ; NES SRAM
                            	   500: LevelInfo_StatusBarMapTransferBuf       equ $6BCD  ; NES SRAM
                            	   501: LevelInfo_PaletteCycles                 equ $6BFA  ; NES SRAM
                            	   502: LevelInfo_DeathPaletteSeries            equ $6C5A  ; NES SRAM
                            	   503: SaveRamEnd                              equ $7FFF  ; NES SRAM
                            	   504: ;==============================================================================
                            	   505: ; Begin translated Z_07.asm code
                            	   506: ;==============================================================================
                            	   507: 
                            	   508: ; [skipped] .INCLUDE "Variables.inc"
                            	   509: ; [skipped] .INCLUDE "CommonVars.inc"
                            	   510: 
                            	   511: ; === .SEGMENT "BANK_07_00" ===
                            	   512: 
                            	   513: 
                            	   514: ; Imports from program bank 00
                            	   515: 
                            	   516: ; .IMPORT DriveAudio
                            	   517: 
                            	   518: ; Imports from program bank 01
                            	   519: 
                            	   520: ; .IMPORT CheckInitWhirlwindAndBeginUpdate
                            	   521: ; .IMPORT CheckPassiveTileObjects
                            	   522: ; .IMPORT CheckPowerTriforceFanfare
                            	   523: ; .IMPORT CheckTileObjectsBlocking
                            	   524: ; .IMPORT CopyCommonCodeToRam
                            	   525: ; .IMPORT InitCave
                            	   526: ; .IMPORT InitGrumble_Full
                            	   527: ; .IMPORT InitRupeeStash_Full
                            	   528: ; .IMPORT InitTrap_Full
                            	   529: ; .IMPORT InitUnderworldPerson_Full
                            	   530: ; .IMPORT InitUnderworldPersonLifeOrMoney_Full
                            	   531: ; .IMPORT SummonWhirlwind
                            	   532: ; .IMPORT TransferDemoPatterns
                            	   533: ; .IMPORT UpdateCavePerson
                            	   534: ; .IMPORT UpdateGrumble_Full
                            	   535: ; .IMPORT UpdateRupeeStash_Full
                            	   536: ; .IMPORT UpdateTrap_Full
                            	   537: ; .IMPORT UpdateUnderworldPerson_Full
                            	   538: ; .IMPORT UpdateUnderworldPersonLifeOrMoney_Full
                            	   539: ; .IMPORT UpdateWhirlwind_Full
                            	   540: 
                            	   541: ; Imports from RAM code bank 01
                            	   542: 
                            	   543: ; .IMPORT _CalcDiagonalSpeedIndex
                            	   544: ; .IMPORT Abs
                            	   545: ; .IMPORT Add1ToInt16At0
                            	   546: ; .IMPORT AddQSpeedToPositionFraction
                            	   547: ; .IMPORT Anim_SetSpriteDescriptorAttributes
                            	   548: ; .IMPORT Anim_SetSpriteDescriptorRedPaletteRow
                            	   549: ; .IMPORT Anim_WriteItemSprites
                            	   550: ; .IMPORT Anim_WriteSpecificItemSprites
                            	   551: ; .IMPORT Anim_WriteStaticItemSpritesWithAttributes
                            	   552: ; .IMPORT AnimateAndDrawObjectWalking
                            	   553: ; .IMPORT BeginShove
                            	   554: ; .IMPORT BeginUpdateMode
                            	   555: ; .IMPORT BoundByRoom
                            	   556: ; .IMPORT BoundByRoomWithA
                            	   557: ; .IMPORT CheckLinkCollision
                            	   558: ; .IMPORT CheckMonsterCollisions
                            	   559: ; .IMPORT CheckPersonBlocking
                            	   560: ; .IMPORT DestroyObject_WRAM
                            	   561: ; .IMPORT DoObjectsCollide
                            	   562: ; .IMPORT DrawObjectWithAnim
                            	   563: ; .IMPORT DrawObjectWithType
                            	   564: ; .IMPORT GetDirectionsAndDistancesToTarget
                            	   565: ; .IMPORT GetOppositeDir
                            	   566: ; .IMPORT GetRoomFlagUWItemState
                            	   567: ; .IMPORT HideObjectSprites
                            	   568: ; .IMPORT ItemIdToDescriptor
                            	   569: ; .IMPORT ItemIdToSlot
                            	   570: ; .IMPORT ItemSlotToPaletteOffsetsOrValues
                            	   571: ; .IMPORT Link_BeHarmed
                            	   572: ; .IMPORT MapScreenPosToPpuAddr
                            	   573: ; .IMPORT MoveShot
                            	   574: ; .IMPORT PlaceWeapon
                            	   575: ; .IMPORT PlayBoomerangSfx
                            	   576: ; .IMPORT PlayEffect
                            	   577: ; .IMPORT PlaySample
                            	   578: ; .IMPORT ReverseDirections
                            	   579: ; .IMPORT SetBoomerangSpeed
                            	   580: ; .IMPORT ShowLinkSpritesBehindHorizontalDoors
                            	   581: ; .IMPORT SubQSpeedFromPositionFraction
                            	   582: ; .IMPORT TryTakeRoomItem
                            	   583: ; .IMPORT UpdateBombFlashEffect
                            	   584: ; .IMPORT UpdatePlayerPositionMarker
                            	   585: ; .IMPORT UpdatePositionMarker
                            	   586: ; .IMPORT UpdateWorldCurtainEffect
                            	   587: ; .IMPORT WieldCandle
                            	   588: ; .IMPORT World_ChangeRupees
                            	   589: ; .IMPORT WriteBlankPrioritySprites
                            	   590: 
                            	   591: ; Imports from program bank 02
                            	   592: 
                            	   593: ; .IMPORT InitDemo_RunTasks
                            	   594: ; .IMPORT InitMode1_Full
                            	   595: ; .IMPORT InitMode13_Full
                            	   596: ; .IMPORT InitModeEandF_Full
                            	   597: ; .IMPORT TransferCommonPatterns
                            	   598: ; .IMPORT UpdateMode0Demo
                            	   599: ; .IMPORT UpdateMode13WinGame
                            	   600: ; .IMPORT UpdateMode1Menu
                            	   601: ; .IMPORT UpdateModeDSave
                            	   602: ; .IMPORT UpdateModeERegister
                            	   603: ; .IMPORT UpdateModeFElimination
                            	   604: 
                            	   605: ; Imports from program bank 03
                            	   606: 
                            	   607: ; .IMPORT TransferLevelPatternBlocks
                            	   608: 
                            	   609: ; Imports from program bank 04
                            	   610: 
                            	   611: ; .IMPORT _InitMonsterShot_Unknown54
                            	   612: ; .IMPORT CheckZora
                            	   613: ; .IMPORT DestroyCountedMonsterShot
                            	   614: ; .IMPORT ExtractHitPointValue
                            	   615: ; .IMPORT InitAquamentus
                            	   616: ; .IMPORT InitArmosOrFlyingGhini
                            	   617: ; .IMPORT InitBlueKeese
                            	   618: ; .IMPORT InitBoulder
                            	   619: ; .IMPORT InitBoulderSet
                            	   620: ; .IMPORT InitBubble
                            	   621: ; .IMPORT InitDarknut
                            	   622: ; .IMPORT InitDigdogger1
                            	   623: ; .IMPORT InitDigdogger2
                            	   624: ; .IMPORT InitDodongo
                            	   625: ; .IMPORT InitFastOctorock
                            	   626: ; .IMPORT InitGanon
                            	   627: ; .IMPORT InitGel
                            	   628: ; .IMPORT InitGleeok
                            	   629: ; .IMPORT InitGleeokHead
                            	   630: ; .IMPORT InitGohma
                            	   631: ; .IMPORT InitLamnola
                            	   632: ; .IMPORT InitLeever
                            	   633: ; .IMPORT InitManhandla
                            	   634: ; .IMPORT InitMoldorm
                            	   635: ; .IMPORT InitMonsterShot
                            	   636: ; .IMPORT InitPatra
                            	   637: ; .IMPORT InitPeahat
                            	   638: ; .IMPORT InitPondFairy
                            	   639: ; .IMPORT InitRedOrBlackKeese
                            	   640: ; .IMPORT InitRope
                            	   641: ; .IMPORT InitSlowOctorockOrGhini
                            	   642: ; .IMPORT InitTektite
                            	   643: ; .IMPORT InitWalker
                            	   644: ; .IMPORT InitZelda
                            	   645: ; .IMPORT RevealAndFlagSecretStairsObj
                            	   646: ; .IMPORT SetUpDroppedItem
                            	   647: ; .IMPORT UpdateAquamentus
                            	   648: ; .IMPORT UpdateArmos
                            	   649: ; .IMPORT UpdateBlock
                            	   650: ; .IMPORT UpdateBlueLeever
                            	   651: ; .IMPORT UpdateBlueWizzrobe
                            	   652: ; .IMPORT UpdateBoulderSet
                            	   653: ; .IMPORT UpdateBubble
                            	   654: ; .IMPORT UpdateCandle
                            	   655: ; .IMPORT UpdateDarknut
                            	   656: ; .IMPORT UpdateDigdogger
                            	   657: ; .IMPORT UpdateDock
                            	   658: ; .IMPORT UpdateDodongo
                            	   659: ; .IMPORT UpdateFireball
                            	   660: ; .IMPORT UpdateFlyingGhini
                            	   661: ; .IMPORT UpdateGanon
                            	   662: ; .IMPORT UpdateGel
                            	   663: ; .IMPORT UpdateGhini
                            	   664: ; .IMPORT UpdateGibdo
                            	   665: ; .IMPORT UpdateGleeok
                            	   666: ; .IMPORT UpdateGleeokHead
                            	   667: ; .IMPORT UpdateGohma
                            	   668: ; .IMPORT UpdateGoriya
                            	   669: ; .IMPORT UpdateGuardFire
                            	   670: ; .IMPORT UpdateItem
                            	   671: ; .IMPORT UpdateKeese
                            	   672: ; .IMPORT UpdateLamnola
                            	   673: ; .IMPORT UpdateLikeLike
                            	   674: ; .IMPORT UpdateLynel
                            	   675: ; .IMPORT UpdateManhandla
                            	   676: ; .IMPORT UpdateMoblin
                            	   677: ; .IMPORT UpdateMoldorm
                            	   678: ; .IMPORT UpdateMonsterArrow
                            	   679: ; .IMPORT UpdateMonsterShot
                            	   680: ; .IMPORT UpdateOctorock
                            	   681: ; .IMPORT UpdatePatra
                            	   682: ; .IMPORT UpdatePatraChild
                            	   683: ; .IMPORT UpdatePeahat
                            	   684: ; .IMPORT UpdatePolsVoice
                            	   685: ; .IMPORT UpdatePondFairy
                            	   686: ; .IMPORT UpdateRedLeever
                            	   687: ; .IMPORT UpdateRedWizzrobe
                            	   688: ; .IMPORT UpdateRockOrGravestone
                            	   689: ; .IMPORT UpdateRockWall
                            	   690: ; .IMPORT UpdateRope
                            	   691: ; .IMPORT UpdateStalfos
                            	   692: ; .IMPORT UpdateStandingFire
                            	   693: ; .IMPORT UpdateStatues
                            	   694: ; .IMPORT UpdateTektiteOrBoulder
                            	   695: ; .IMPORT UpdateTree
                            	   696: ; .IMPORT UpdateVire
                            	   697: ; .IMPORT UpdateWallmaster
                            	   698: ; .IMPORT UpdateZelda
                            	   699: ; .IMPORT UpdateZol
                            	   700: ; .IMPORT UpdateZora
                            	   701: 
                            	   702: ; Imports from program bank 05
                            	   703: 
                            	   704: ; .IMPORT AnimateAndDrawLinkBehindBackground
                            	   705: ; .IMPORT CalculateNextRoomForDoor
                            	   706: ; .IMPORT ChangePlayMapSquareOW
                            	   707: ; .IMPORT CheckBossSoundEffectUW
                            	   708: ; .IMPORT CheckDoorway
                            	   709: ; .IMPORT CheckLadder
                            	   710: ; .IMPORT CheckShutters
                            	   711: ; .IMPORT CheckSubroom
                            	   712: ; .IMPORT CheckUnderworldSecrets
                            	   713: ; .IMPORT CheckWarps
                            	   714: ; .IMPORT ClearRam
                            	   715: ; .IMPORT CreateRoomObjects
                            	   716: ; .IMPORT DrawItemInInventoryWithX
                            	   717: ; .IMPORT DrawLinkBetweenRooms
                            	   718: ; .IMPORT FetchTileMapAddr
                            	   719: ; .IMPORT FindAndSelectOccupiedItemSlot
                            	   720: ; .IMPORT FindDoorAttrByDoorBit
                            	   721: ; .IMPORT FindNextEdgeSpawnCell
                            	   722: ; .IMPORT HasCompass
                            	   723: ; .IMPORT InitMode10
                            	   724: ; .IMPORT InitMode11
                            	   725: ; .IMPORT InitMode12
                            	   726: ; .IMPORT InitMode3_Sub2
                            	   727: ; .IMPORT InitMode3_Sub3_TransferTopHalfAttrs
                            	   728: ; .IMPORT InitMode3_Sub4_TransferBottomHalfAttrs
                            	   729: ; .IMPORT InitMode3_Sub5
                            	   730: ; .IMPORT InitMode3_Sub6
                            	   731: ; .IMPORT InitMode3_Sub7
                            	   732: ; .IMPORT InitMode3_Sub8
                            	   733: ; .IMPORT InitMode4
                            	   734: ; .IMPORT InitMode6
                            	   735: ; .IMPORT InitMode7Submodes
                            	   736: ; .IMPORT InitMode8
                            	   737: ; .IMPORT InitMode9
                            	   738: ; .IMPORT InitModeA
                            	   739: ; .IMPORT InitModeB
                            	   740: ; .IMPORT InitModeC
                            	   741: ; .IMPORT InitModeD
                            	   742: ; .IMPORT InitSaveRam
                            	   743: ; .IMPORT IsDistanceSafeToSpawn
                            	   744: ; .IMPORT Link_HandleInput
                            	   745: ; .IMPORT MaskCurPpuMaskGrayscale
                            	   746: ; .IMPORT SetupObjRoomBounds
                            	   747: ; .IMPORT UpdateDoors
                            	   748: ; .IMPORT UpdateMenuAndMeters
                            	   749: ; .IMPORT UpdateMode10Stairs_Full
                            	   750: ; .IMPORT UpdateMode11Death_Full
                            	   751: ; .IMPORT UpdateMode12EndLevel_Full
                            	   752: ; .IMPORT UpdateMode7SubmodeAndDrawLink
                            	   753: ; .IMPORT UpdateMode8ContinueQuestion_Full
                            	   754: ; .IMPORT WaitAndScrollToSplitBottom
                            	   755: ; .IMPORT World_FillHearts
                            	   756: 
                            	   757: ; Imports from program bank 06
                            	   758: 
                            	   759: ; .IMPORT CopyCommonDataToRam
                            	   760: ; .IMPORT InitMode2_Submodes
                            	   761: ; .IMPORT TransferCurTileBuf
                            	   762: ; .IMPORT UpdateMode2Load_Full
                            	   763: 
                            	   764: ; Imports from RAM code bank 06
                            	   765: 
                            	   766: ; .IMPORT LevelPaletteRow7TransferBuf
                            	   767: ; .IMPORT MenuPalettesTransferBuf
                            	   768: 
                            	   769: ; .EXPORT _FaceUnblockedDir
                            	   770: ; .EXPORT Anim_AdvanceAnimCounterAndSetObjPosForSpriteDescriptor
                            	   771: ; .EXPORT Anim_FetchObjPosForSpriteDescriptor
                            	   772: ; .EXPORT Anim_SetObjHFlipForSpriteDescriptor
                            	   773: ; .EXPORT AnimateItemObject
                            	   774: ; .EXPORT AnimateObjectWalking
                            	   775: ; .EXPORT AnimatePond
                            	   776: ; .EXPORT CalculateNextRoom
                            	   777: ; .EXPORT ChangeTileObjTiles
                            	   778: ; .EXPORT CheckScreenEdge
                            	   779: ; .EXPORT ClearRam0300UpTo
                            	   780: ; .EXPORT ClearRoomHistory
                            	   781: ; .EXPORT DecrementInvincibilityTimer
                            	   782: ; .EXPORT DestroyMonster
                            	   783: ; .EXPORT DrawArrow
                            	   784: ; .EXPORT DrawItemInInventory
                            	   785: ; .EXPORT DrawLinkLiftingItem
                            	   786: ; .EXPORT DrawSpritesBetweenRooms
                            	   787: ; .EXPORT DrawStatusBarItemsAndEnsureItemSelected
                            	   788: ; .EXPORT DrawSwordShotOrMagicShot
                            	   789: ; .EXPORT EndGameMode
                            	   790: ; .EXPORT FillTileMap
                            	   791: ; .EXPORT FindEmptyMonsterSlot
                            	   792: ; .EXPORT GetCollidableTile
                            	   793: ; .EXPORT GetCollidableTileStill
                            	   794: ; .EXPORT GetCollidingTileMoving
                            	   795: ; .EXPORT GetRoomFlags
                            	   796: ; .EXPORT GetUniqueRoomId
                            	   797: ; .EXPORT GoToNextMode
                            	   798: ; .EXPORT GoToNextModeFromPlay
                            	   799: ; .EXPORT HandleShotBlocked
                            	   800: ; .EXPORT HideAllSprites
                            	   801: ; .EXPORT LevelMasks
                            	   802: ; .EXPORT Link_EndMoveAndAnimate
                            	   803: ; .EXPORT Link_EndMoveAndAnimate_Bank1
                            	   804: ; .EXPORT Link_EndMoveAndAnimate_Bank4
                            	   805: ; .EXPORT Link_EndMoveAndAnimateBetweenRooms
                            	   806: ; .EXPORT Link_EndMoveAndAnimateInRoom
                            	   807: ; .EXPORT Link_EndMoveAndDraw
                            	   808: ; .EXPORT Link_EndMoveAndDraw_Bank1
                            	   809: ; .EXPORT Link_EndMoveAndDraw_Bank4
                            	   810: ; .EXPORT MarkRoomVisited
                            	   811: ; .EXPORT MoveObject
                            	   812: ; .EXPORT Obj_Shove
                            	   813: ; .EXPORT PatchAndCueLevelPalettesTransferAndAdvanceSubmode
                            	   814: ; .EXPORT PlayAreaColumnAddrs
                            	   815: ; .EXPORT ResetMovingDir
                            	   816: ; .EXPORT ResetObjMetastate
                            	   817: ; .EXPORT ResetObjMetastateAndTimer
                            	   818: ; .EXPORT ResetObjState
                            	   819: ; .EXPORT ResetPlayerState
                            	   820: ; .EXPORT ResetShoveInfo
                            	   821: ; .EXPORT ReverseObjDir
                            	   822: ; .EXPORT RunCrossRoomTasksAndBeginUpdateMode
                            	   823: ; .EXPORT RunCrossRoomTasksAndBeginUpdateMode_EnterPlayModes
                            	   824: ; .EXPORT RunCrossRoomTasksAndBeginUpdateMode_PlayModesNoCellar
                            	   825: ; .EXPORT SaveSlotToPaletteRowOffset
                            	   826: ; .EXPORT SetShoveInfoWith0
                            	   827: ; .EXPORT SetTypeAndClearObject
                            	   828: ; .EXPORT SetUpAndDrawLinkLiftingItem
                            	   829: ; .EXPORT TableJump
                            	   830: ; .EXPORT TurnOffAllVideo
                            	   831: ; .EXPORT TurnOffVideoAndClearArtifacts
                            	   832: ; .EXPORT UpdateArrowOrBoomerang
                            	   833: ; .EXPORT UpdateDeadDummy
                            	   834: ; .EXPORT UpdateHeartsAndRupees
                            	   835: ; .EXPORT UpdatePlayer
                            	   836: ; .EXPORT UpdateTriforcePositionMarker
                            	   837: ; .EXPORT Walker_Move
                            	   838: ; .EXPORT WieldFlute
                            	   839: 
                            	   840:     even
                            	   841: PcmSamples:
                            	   842: ; .INCBIN "dat/PcmSamples.dat" not found — stub 128 zero bytes
                            	   843:     rept    128
                            	   844:         dc.b    0
                            	   845:     endr
02:0000066A 00              	     1R         dc.b    0
                            	     2R     
02:0000066B 00              	     1R         dc.b    0
                            	     2R     
02:0000066C 00              	     1R         dc.b    0
                            	     2R     
02:0000066D 00              	     1R         dc.b    0
                            	     2R     
02:0000066E 00              	     1R         dc.b    0
                            	     2R     
02:0000066F 00              	     1R         dc.b    0
                            	     2R     
02:00000670 00              	     1R         dc.b    0
                            	     2R     
02:00000671 00              	     1R         dc.b    0
                            	     2R     
02:00000672 00              	     1R         dc.b    0
                            	     2R     
02:00000673 00              	     1R         dc.b    0
                            	     2R     
02:00000674 00              	     1R         dc.b    0
                            	     2R     
02:00000675 00              	     1R         dc.b    0
                            	     2R     
02:00000676 00              	     1R         dc.b    0
                            	     2R     
02:00000677 00              	     1R         dc.b    0
                            	     2R     
02:00000678 00              	     1R         dc.b    0
                            	     2R     
02:00000679 00              	     1R         dc.b    0
                            	     2R     
02:0000067A 00              	     1R         dc.b    0
                            	     2R     
02:0000067B 00              	     1R         dc.b    0
                            	     2R     
02:0000067C 00              	     1R         dc.b    0
                            	     2R     
02:0000067D 00              	     1R         dc.b    0
                            	     2R     
02:0000067E 00              	     1R         dc.b    0
                            	     2R     
02:0000067F 00              	     1R         dc.b    0
                            	     2R     
02:00000680 00              	     1R         dc.b    0
                            	     2R     
02:00000681 00              	     1R         dc.b    0
                            	     2R     
02:00000682 00              	     1R         dc.b    0
                            	     2R     
02:00000683 00              	     1R         dc.b    0
                            	     2R     
02:00000684 00              	     1R         dc.b    0
                            	     2R     
02:00000685 00              	     1R         dc.b    0
                            	     2R     
02:00000686 00              	     1R         dc.b    0
                            	     2R     
02:00000687 00              	     1R         dc.b    0
                            	     2R     
02:00000688 00              	     1R         dc.b    0
                            	     2R     
02:00000689 00              	     1R         dc.b    0
                            	     2R     
02:0000068A 00              	     1R         dc.b    0
                            	     2R     
02:0000068B 00              	     1R         dc.b    0
                            	     2R     
02:0000068C 00              	     1R         dc.b    0
                            	     2R     
02:0000068D 00              	     1R         dc.b    0
                            	     2R     
02:0000068E 00              	     1R         dc.b    0
                            	     2R     
02:0000068F 00              	     1R         dc.b    0
                            	     2R     
02:00000690 00              	     1R         dc.b    0
                            	     2R     
02:00000691 00              	     1R         dc.b    0
                            	     2R     
02:00000692 00              	     1R         dc.b    0
                            	     2R     
02:00000693 00              	     1R         dc.b    0
                            	     2R     
02:00000694 00              	     1R         dc.b    0
                            	     2R     
02:00000695 00              	     1R         dc.b    0
                            	     2R     
02:00000696 00              	     1R         dc.b    0
                            	     2R     
02:00000697 00              	     1R         dc.b    0
                            	     2R     
02:00000698 00              	     1R         dc.b    0
                            	     2R     
02:00000699 00              	     1R         dc.b    0
                            	     2R     
02:0000069A 00              	     1R         dc.b    0
                            	     2R     
02:0000069B 00              	     1R         dc.b    0
                            	     2R     
02:0000069C 00              	     1R         dc.b    0
                            	     2R     
02:0000069D 00              	     1R         dc.b    0
                            	     2R     
02:0000069E 00              	     1R         dc.b    0
                            	     2R     
02:0000069F 00              	     1R         dc.b    0
                            	     2R     
02:000006A0 00              	     1R         dc.b    0
                            	     2R     
02:000006A1 00              	     1R         dc.b    0
                            	     2R     
02:000006A2 00              	     1R         dc.b    0
                            	     2R     
02:000006A3 00              	     1R         dc.b    0
                            	     2R     
02:000006A4 00              	     1R         dc.b    0
                            	     2R     
02:000006A5 00              	     1R         dc.b    0
                            	     2R     
02:000006A6 00              	     1R         dc.b    0
                            	     2R     
02:000006A7 00              	     1R         dc.b    0
                            	     2R     
02:000006A8 00              	     1R         dc.b    0
                            	     2R     
02:000006A9 00              	     1R         dc.b    0
                            	     2R     
02:000006AA 00              	     1R         dc.b    0
                            	     2R     
02:000006AB 00              	     1R         dc.b    0
                            	     2R     
02:000006AC 00              	     1R         dc.b    0
                            	     2R     
02:000006AD 00              	     1R         dc.b    0
                            	     2R     
02:000006AE 00              	     1R         dc.b    0
                            	     2R     
02:000006AF 00              	     1R         dc.b    0
                            	     2R     
02:000006B0 00              	     1R         dc.b    0
                            	     2R     
02:000006B1 00              	     1R         dc.b    0
                            	     2R     
02:000006B2 00              	     1R         dc.b    0
                            	     2R     
02:000006B3 00              	     1R         dc.b    0
                            	     2R     
02:000006B4 00              	     1R         dc.b    0
                            	     2R     
02:000006B5 00              	     1R         dc.b    0
                            	     2R     
02:000006B6 00              	     1R         dc.b    0
                            	     2R     
02:000006B7 00              	     1R         dc.b    0
                            	     2R     
02:000006B8 00              	     1R         dc.b    0
                            	     2R     
02:000006B9 00              	     1R         dc.b    0
                            	     2R     
02:000006BA 00              	     1R         dc.b    0
                            	     2R     
02:000006BB 00              	     1R         dc.b    0
                            	     2R     
02:000006BC 00              	     1R         dc.b    0
                            	     2R     
02:000006BD 00              	     1R         dc.b    0
                            	     2R     
02:000006BE 00              	     1R         dc.b    0
                            	     2R     
02:000006BF 00              	     1R         dc.b    0
                            	     2R     
02:000006C0 00              	     1R         dc.b    0
                            	     2R     
02:000006C1 00              	     1R         dc.b    0
                            	     2R     
02:000006C2 00              	     1R         dc.b    0
                            	     2R     
02:000006C3 00              	     1R         dc.b    0
                            	     2R     
02:000006C4 00              	     1R         dc.b    0
                            	     2R     
02:000006C5 00              	     1R         dc.b    0
                            	     2R     
02:000006C6 00              	     1R         dc.b    0
                            	     2R     
02:000006C7 00              	     1R         dc.b    0
                            	     2R     
02:000006C8 00              	     1R         dc.b    0
                            	     2R     
02:000006C9 00              	     1R         dc.b    0
                            	     2R     
02:000006CA 00              	     1R         dc.b    0
                            	     2R     
02:000006CB 00              	     1R         dc.b    0
                            	     2R     
02:000006CC 00              	     1R         dc.b    0
                            	     2R     
02:000006CD 00              	     1R         dc.b    0
                            	     2R     
02:000006CE 00              	     1R         dc.b    0
                            	     2R     
02:000006CF 00              	     1R         dc.b    0
                            	     2R     
02:000006D0 00              	     1R         dc.b    0
                            	     2R     
02:000006D1 00              	     1R         dc.b    0
                            	     2R     
02:000006D2 00              	     1R         dc.b    0
                            	     2R     
02:000006D3 00              	     1R         dc.b    0
                            	     2R     
02:000006D4 00              	     1R         dc.b    0
                            	     2R     
02:000006D5 00              	     1R         dc.b    0
                            	     2R     
02:000006D6 00              	     1R         dc.b    0
                            	     2R     
02:000006D7 00              	     1R         dc.b    0
                            	     2R     
02:000006D8 00              	     1R         dc.b    0
                            	     2R     
02:000006D9 00              	     1R         dc.b    0
                            	     2R     
02:000006DA 00              	     1R         dc.b    0
                            	     2R     
02:000006DB 00              	     1R         dc.b    0
                            	     2R     
02:000006DC 00              	     1R         dc.b    0
                            	     2R     
02:000006DD 00              	     1R         dc.b    0
                            	     2R     
02:000006DE 00              	     1R         dc.b    0
                            	     2R     
02:000006DF 00              	     1R         dc.b    0
                            	     2R     
02:000006E0 00              	     1R         dc.b    0
                            	     2R     
02:000006E1 00              	     1R         dc.b    0
                            	     2R     
02:000006E2 00              	     1R         dc.b    0
                            	     2R     
02:000006E3 00              	     1R         dc.b    0
                            	     2R     
02:000006E4 00              	     1R         dc.b    0
                            	     2R     
02:000006E5 00              	     1R         dc.b    0
                            	     2R     
02:000006E6 00              	     1R         dc.b    0
                            	     2R     
02:000006E7 00              	     1R         dc.b    0
                            	     2R     
02:000006E8 00              	     1R         dc.b    0
                            	     2R     
02:000006E9 00              	     1R         dc.b    0
                            	     2R     
                            	   846: 
                            	   847:     even
                            	   848: PlayAreaColumnAddrs:
02:000006EA 30              	   849:     dc.b    $30, $65, $46, $65, $5C, $65, $72, $65
02:000006EB 65
02:000006EC 46
02:000006ED 65
02:000006EE 5C
02:000006EF 65
02:000006F0 72
02:000006F1 65
02:000006F2 88              	   850:     dc.b    $88, $65, $9E, $65, $B4, $65, $CA, $65
02:000006F3 65
02:000006F4 9E
02:000006F5 65
02:000006F6 B4
02:000006F7 65
02:000006F8 CA
02:000006F9 65
02:000006FA E0              	   851:     dc.b    $E0, $65, $F6, $65, $0C, $66, $22, $66
02:000006FB 65
02:000006FC F6
02:000006FD 65
02:000006FE 0C
02:000006FF 66
02:00000700 22
02:00000701 66
02:00000702 38              	   852:     dc.b    $38, $66, $4E, $66, $64, $66, $7A, $66
02:00000703 66
02:00000704 4E
02:00000705 66
02:00000706 64
02:00000707 66
02:00000708 7A
02:00000709 66
02:0000070A 90              	   853:     dc.b    $90, $66, $A6, $66, $BC, $66, $D2, $66
02:0000070B 66
02:0000070C A6
02:0000070D 66
02:0000070E BC
02:0000070F 66
02:00000710 D2
02:00000711 66
02:00000712 E8              	   854:     dc.b    $E8, $66, $FE, $66, $14, $67, $2A, $67
02:00000713 66
02:00000714 FE
02:00000715 66
02:00000716 14
02:00000717 67
02:00000718 2A
02:00000719 67
02:0000071A 40              	   855:     dc.b    $40, $67, $56, $67, $6C, $67, $82, $67
02:0000071B 67
02:0000071C 56
02:0000071D 67
02:0000071E 6C
02:0000071F 67
02:00000720 82
02:00000721 67
02:00000722 98              	   856:     dc.b    $98, $67, $AE, $67, $C4, $67, $DA, $67
02:00000723 67
02:00000724 AE
02:00000725 67
02:00000726 C4
02:00000727 67
02:00000728 DA
02:00000729 67
                            	   857: 
                            	   858:     even
                            	   859: RunGame:
02:0000072A 7000            	   860:     moveq   #0,D0
02:0000072C 194000F4        	   861:     move.b  D0,($00F4,A4)
02:00000730 7005            	   862:     moveq   #5,D0
02:00000732 61002F98        	   863:     bsr     SwitchBank
02:00000736 6100316E        	   864:     bsr     InitSaveRam
02:0000073A 61003132        	   865:     bsr     ClearRam
02:0000073E 6114            	   866:     bsr     ClearAllAudioAndVideo
02:00000740 102C00FF        	   867:     move.b  ($00FF,A4),D0
02:00000744 000000A0        	   868:     ori.b #$A0,D0
02:00000748 6100FC98        	   869:     bsr     _ppu_write_0  ; PPU $2000 write, D0=val
02:0000074C 194000FF        	   870:     move.b  D0,($00FF,A4)
                            	   871:     even
                            	   872: LoopForever:
02:00000750 4EF80750        	   873:     jmp     LoopForever
                            	   874: 
                            	   875:     even
                            	   876: ClearAllAudioAndVideo:
02:00000754 7000            	   877:     moveq   #0,D0
02:00000756 6100FF00        	   878:     bsr     _apu_write_4011  ; APU/IO write
02:0000075A 700F            	   879:     moveq   #15,D0
02:0000075C 6100FEFA        	   880:     bsr     _apu_write_4015  ; APU/IO write
                            	   881:     ; Turn off video.
                            	   882:     ; TODO: except clipping is explicitly disabled. Why?
02:00000760 7006            	   883:     moveq   #6,D0
02:00000762 6100FC86        	   884:     bsr     _ppu_write_1  ; PPU $2001 write, D0=val
                            	   885:     even
                            	   886: TurnOffVideoAndClearArtifacts:
02:00000766 61000294        	   887:     bsr     HideAllSprites
02:0000076A 61000196        	   888:     bsr     ResetPpuRegisters
02:0000076E 610002EC        	   889:     bsr     TurnOffAllVideo
02:00000772 7020            	   890:     moveq   #32,D0
02:00000774 6102            	   891:     bsr     ClearNameTableWithHiAddr
02:00000776 7028            	   892:     moveq   #40,D0
                            	   893:     even
                            	   894: ClearNameTableWithHiAddr:
02:00000778 7424            	   895:     moveq   #36,D2
02:0000077A 7600            	   896:     moveq   #0,D3
02:0000077C 4EF80920        	   897:     jmp     ClearNameTable
                            	   898: 
                            	   899:     even
                            	   900: IsrNmi:
02:00000780 102C00FF        	   901:     move.b  ($00FF,A4),D0
02:00000784 142C005C        	   902:     move.b  ($005C,A4),D2
02:00000788 6704            	   903:     beq  _anon_z07_0
02:0000078A 0A000002        	   904:     eori.b #$02,D0
                            	   905: _anon_z07_0:
02:0000078E 0200007F        	   906:     andi.b #$7F,D0
02:00000792 194000FF        	   907:     move.b  D0,($00FF,A4)
02:00000796 0200007E        	   908:     andi.b #$7E,D0
02:0000079A 6100FC46        	   909:     bsr     _ppu_write_0  ; PPU $2000 write, D0=val
                            	   910:     ; Set PPUMASK.
                            	   911:     ; Start with curren mask value, but ...
02:0000079E 102C00FE        	   912:     move.b  ($00FE,A4),D0
02:000007A2 162C00E3        	   913:     move.b  ($00E3,A4),D3
02:000007A6 660C            	   914:     bne  _L_z07_IsrNmi_EnableAllVideo
02:000007A8 162C0014        	   915:     move.b  ($0014,A4),D3
02:000007AC 660A            	   916:     bne  _L_z07_IsrNmi_SetPpuMask
02:000007AE 162C0017        	   917:     move.b  ($0017,A4),D3
02:000007B2 6604            	   918:     bne  _L_z07_IsrNmi_SetPpuMask
                            	   919:     even
                            	   920: _L_z07_IsrNmi_EnableAllVideo:
02:000007B4 0000001E        	   921:     ori.b #$1E,D0
                            	   922:     even
                            	   923: _L_z07_IsrNmi_SetPpuMask:
02:000007B8 6100FC30        	   924:     bsr     _ppu_write_1  ; PPU $2001 write, D0=val
02:000007BC 194000FE        	   925:     move.b  D0,($00FE,A4)
                            	   926:     ; Copy all our sprites to OAM.
                            	   927:     ;
02:000007C0 7000            	   928:     moveq   #0,D0
02:000007C2 6100FC30        	   929:     bsr     _ppu_write_3  ; PPU $2003 write, D0=val
02:000007C6 7002            	   930:     moveq   #2,D0
02:000007C8 6100FE0C        	   931:     bsr     _oam_dma         ; $4014 OAM DMA, D0=page
                            	   932:     ; Reset scroll register.
                            	   933:     ;
02:000007CC 7000            	   934:     moveq   #0,D0
02:000007CE 6100FC28        	   935:     bsr     _ppu_write_5  ; PPU $2005 write, D0=val
02:000007D2 6100FC24        	   936:     bsr     _ppu_write_5  ; PPU $2005 write, D0=val
02:000007D6 7006            	   937:     moveq   #6,D0
02:000007D8 61002EF2        	   938:     bsr     SwitchBank
02:000007DC 610030E8        	   939:     bsr     TransferCurTileBuf
                            	   940:     ; Reset PPUADDR.
                            	   941:     ; I believe that the write of $3F00 is unneeded.
02:000007E0 703F            	   942:     moveq   #63,D0
02:000007E2 6100FC48        	   943:     bsr     _ppu_write_6  ; PPU $2006 write, D0=val
02:000007E6 7000            	   944:     moveq   #0,D0
02:000007E8 6100FC42        	   945:     bsr     _ppu_write_6  ; PPU $2006 write, D0=val
02:000007EC 6100FC3E        	   946:     bsr     _ppu_write_6  ; PPU $2006 write, D0=val
02:000007F0 6100FC3A        	   947:     bsr     _ppu_write_6  ; PPU $2006 write, D0=val
                            	   948:     even
                            	   949: _L_z07_IsrNmi_WaitVBlankEnd:
                            	   950:     ; If Sprite 0 Hit is set,
                            	   951:     ; then wait for it to be cleared by the ending of VBLANK.
                            	   952:     ;
02:000007F4 6100FBD8        	   953:     bsr     _ppu_read_2  ; PPU $2002 read → D0
02:000007F8 02000040        	   954:     andi.b #$40,D0
02:000007FC 66F6            	   955:     bne  _L_z07_IsrNmi_WaitVBlankEnd
02:000007FE 6100FBCE        	   956:     bsr     _ppu_read_2  ; PPU $2002 read → D0
                            	   957:     ; Wait for Sprite 0 hit, if needed.
                            	   958:     ;
02:00000802 102C00E3        	   959:     move.b  ($00E3,A4),D0
02:00000806 670A            	   960:     beq  _L_z07_IsrNmi_CheckScroll
02:00000808 7005            	   961:     moveq   #5,D0
02:0000080A 61002EC0        	   962:     bsr     SwitchBank
02:0000080E 610030AE        	   963:     bsr     WaitAndScrollToSplitBottom
                            	   964:     even
                            	   965: _L_z07_IsrNmi_CheckScroll:
                            	   966:     ; If updating a game mode instead of initializing one,
                            	   967:     ; then simply scroll for game modes 0, 5, 9, $B, $C, $13.
02:00000812 102C0011        	   968:     move.b  ($0011,A4),D0
02:00000816 6740            	   969:     beq  _L_z07_IsrNmi_UpdateTimers
02:00000818 102C0012        	   970:     move.b  ($0012,A4),D0
02:0000081C 671E            	   971:     beq  _L_z07_IsrNmi_SetScroll
02:0000081E 0C000005        	   972:     cmpi.b  #$05,D0
02:00000822 6718            	   973:     beq  _L_z07_IsrNmi_SetScroll
02:00000824 0C000009        	   974:     cmpi.b  #$09,D0
02:00000828 6712            	   975:     beq  _L_z07_IsrNmi_SetScroll
02:0000082A 0C00000B        	   976:     cmpi.b  #$0B,D0
02:0000082E 670C            	   977:     beq  _L_z07_IsrNmi_SetScroll
02:00000830 0C00000C        	   978:     cmpi.b  #$0C,D0
02:00000834 6706            	   979:     beq  _L_z07_IsrNmi_SetScroll
02:00000836 0C000013        	   980:     cmpi.b  #$13,D0
02:0000083A 661C            	   981:     bne  _L_z07_IsrNmi_UpdateTimers
                            	   982:     even
                            	   983: _L_z07_IsrNmi_SetScroll:
02:0000083C 6100FB90        	   984:     bsr     _ppu_read_2  ; PPU $2002 read → D0
02:00000840 102C00FD        	   985:     move.b  ($00FD,A4),D0
02:00000844 6100FBB2        	   986:     bsr     _ppu_write_5  ; PPU $2005 write, D0=val
02:00000848 102C00FC        	   987:     move.b  ($00FC,A4),D0
02:0000084C 6100FBAA        	   988:     bsr     _ppu_write_5  ; PPU $2005 write, D0=val
02:00000850 102C00FF        	   989:     move.b  ($00FF,A4),D0
02:00000854 6100FB8C        	   990:     bsr     _ppu_write_0  ; PPU $2000 write, D0=val
                            	   991:     even
                            	   992: _L_z07_IsrNmi_UpdateTimers:
                            	   993:     ; If paused or in menu, then don't decrement timers.
                            	   994:     ;
02:00000858 102C00E1        	   995:     move.b  ($00E1,A4),D0
02:0000085C 122C00E0        	   996:     move.b  ($00E0,A4),D1
02:00000860 8001            	   997:     or.b  D1,D0
02:00000862 662A            	   998:     bne  _L_z07_IsrNmi_CheckInput
02:00000864 7426            	   999:     moveq   #38,D2
02:00000866 703C            	  1000:     moveq   #60,D0
02:00000868 764E            	  1001:     moveq   #78,D3
02:0000086A 1882            	  1002:     move.b  D2,($0000,A4)
02:0000086C 53342000        	  1003:     subq.b  #1,($00,A4,D2.W)
02:00000870 6A08            	  1004:     bpl  _L_z07_IsrNmi_DecTimers
02:00000872 7009            	  1005:     moveq   #9,D0
02:00000874 19802000        	  1006:     move.b  D0,($00,A4,D2.W)
02:00000878 1003            	  1007:     move.b  D3,D0
                            	  1008:     even
                            	  1009: _L_z07_IsrNmi_DecTimers:
02:0000087A 1400            	  1010:     move.b  D0,D2
                            	  1011:     even
                            	  1012: _L_z07_IsrNmi_LoopTimer:
02:0000087C 10342000        	  1013:     move.b  ($00,A4,D2.W),D0
02:00000880 6704            	  1014:     beq  _anon_z07_1
02:00000882 53342000        	  1015:     subq.b  #1,($00,A4,D2.W)
                            	  1016: _anon_z07_1:
02:00000886 5302            	  1017:     subq.b  #1,D2
02:00000888 1214            	  1018:     move.b  ($0000,A4),D1
02:0000088A B401            	  1019:     cmp.b   D1,D2
02:0000088C 66EE            	  1020:     bne  _L_z07_IsrNmi_LoopTimer
                            	  1021:     even
                            	  1022: _L_z07_IsrNmi_CheckInput:
                            	  1023:     ; Sprite 0 is used for scrolling. Input isn't checked while scrolling.
                            	  1024:     ;
02:0000088E 102C00E3        	  1025:     move.b  ($00E3,A4),D0
02:00000892 6604            	  1026:     bne  _L_z07_IsrNmi_ScrambleRandom
02:00000894 610001D2        	  1027:     bsr     ReadInputs
                            	  1028:     even
                            	  1029: _L_z07_IsrNmi_ScrambleRandom:
02:00000898 7418            	  1030:     moveq   #24,D2
02:0000089A 760D            	  1031:     moveq   #13,D3
02:0000089C 10342000        	  1032:     move.b  ($00,A4,D2.W),D0
02:000008A0 02000002        	  1033:     andi.b #$02,D0
02:000008A4 1880            	  1034:     move.b  D0,($0000,A4)
02:000008A6 10342001        	  1035:     move.b  ($01,A4,D2.W),D0
02:000008AA 02000002        	  1036:     andi.b #$02,D0
02:000008AE 1214            	  1037:     move.b  ($0000,A4),D1
02:000008B0 B300            	  1038:     eor.b  D1,D0
02:000008B2 023C00EE        	  1039:     andi.b  #$EE,CCR  ; CLC: clear C+X
02:000008B6 6704            	  1040:     beq  _L_z07_IsrNmi_LoopRandom
02:000008B8 003C0011        	  1041:     ori.b   #$11,CCR  ; SEC: set C+X
                            	  1042:     even
                            	  1043: _L_z07_IsrNmi_LoopRandom:
02:000008BC 12342000        	  1044:     move.b  ($00,A4,D2.W),D1
02:000008C0 E211            	  1045:     roxr.b  #1,D1   ; ROR $00,X
02:000008C2 19812000        	  1046:     move.b  D1,($00,A4,D2.W)
02:000008C6 5202            	  1047:     addq.b  #1,D2
02:000008C8 5303            	  1048:     subq.b  #1,D3
02:000008CA 66F0            	  1049:     bne  _L_z07_IsrNmi_LoopRandom
02:000008CC 7000            	  1050:     moveq   #0,D0
02:000008CE 61002DFC        	  1051:     bsr     SwitchBank
02:000008D2 61002E32        	  1052:     bsr     DriveAudio
02:000008D6 522C0015        	  1053:     addq.b  #1,($0015,A4)
02:000008DA 102C0011        	  1054:     move.b  ($0011,A4),D0
02:000008DE 6608            	  1055:     bne  _L_z07_IsrNmi_Update
02:000008E0 610006AA        	  1056:     bsr     InitializeGameOrMode
02:000008E4 4EF808EC        	  1057:     jmp     _L_z07_IsrNmi_EnableNMI
                            	  1058: 
                            	  1059:     even
                            	  1060: _L_z07_IsrNmi_Update:
02:000008E8 61000A0A        	  1061:     bsr     UpdateMode
                            	  1062:     even
                            	  1063: _L_z07_IsrNmi_EnableNMI:
02:000008EC 6100FAE0        	  1064:     bsr     _ppu_read_2  ; PPU $2002 read → D0
02:000008F0 102C00FF        	  1065:     move.b  ($00FF,A4),D0
02:000008F4 00000080        	  1066:     ori.b #$80,D0
02:000008F8 6100FAE8        	  1067:     bsr     _ppu_write_0  ; PPU $2000 write, D0=val
02:000008FC 194000FF        	  1068:     move.b  D0,($00FF,A4)
02:00000900 4E75            	  1069:     rts   ; RTI → RTS (IsrNmi is a subroutine; VBlankISR handles the RTE)
                            	  1070: 
                            	  1071:     even
                            	  1072: ResetPpuRegisters:
02:00000902 7000            	  1073:     moveq   #0,D0
02:00000904 6100FAF2        	  1074:     bsr     _ppu_write_5  ; PPU $2005 write, D0=val
02:00000908 194000FD        	  1075:     move.b  D0,($00FD,A4)
02:0000090C 6100FAEA        	  1076:     bsr     _ppu_write_5  ; PPU $2005 write, D0=val
02:00000910 194000FC        	  1077:     move.b  D0,($00FC,A4)
02:00000914 7030            	  1078:     moveq   #48,D0
02:00000916 6100FACA        	  1079:     bsr     _ppu_write_0  ; PPU $2000 write, D0=val
02:0000091A 194000FF        	  1080:     move.b  D0,($00FF,A4)
02:0000091E 4E75            	  1081:     rts
                            	  1082: 
                            	  1083: ; Params:
                            	  1084: ; A: Hi byte of starting VRAM address
                            	  1085: ; X: Tile number
                            	  1086: ; Y: Tile attribute byte
                            	  1087: ;
                            	  1088:     even
                            	  1089: ClearNameTable:
02:00000920 1880            	  1090:     move.b  D0,($0000,A4)
02:00000922 19420001        	  1091:     move.b  D2,($0001,A4)
02:00000926 19430002        	  1092:     move.b  D3,($0002,A4)
02:0000092A 6100FAA2        	  1093:     bsr     _ppu_read_2  ; PPU $2002 read → D0
02:0000092E 102C00FF        	  1094:     move.b  ($00FF,A4),D0
02:00000932 020000FB        	  1095:     andi.b #$FB,D0
02:00000936 6100FAAA        	  1096:     bsr     _ppu_write_0  ; PPU $2000 write, D0=val
02:0000093A 194000FF        	  1097:     move.b  D0,($00FF,A4)
02:0000093E 1014            	  1098:     move.b  ($0000,A4),D0
02:00000940 6100FAEA        	  1099:     bsr     _ppu_write_6  ; PPU $2006 write, D0=val
02:00000944 7600            	  1100:     moveq   #0,D3
02:00000946 2F00            	  1101:     move.l  D0,-(SP)       ; save A (6502 STX/STY never modifies A)
02:00000948 1003            	  1102:     move.b  D3,D0  ; D3 → D0 for I/O write
02:0000094A 6100FAE0        	  1103:     bsr     _ppu_write_6  ; PPU $2006 write, D0=val
02:0000094E 201F            	  1104:     move.l  (SP)+,D0       ; restore A
02:00000950 7404            	  1105:     moveq   #4,D2
02:00000952 0C000020        	  1106:     cmpi.b  #$20,D0
02:00000956 6404            	  1107:     bcc  _anon_z07_2
02:00000958 142C0002        	  1108:     move.b  ($0002,A4),D2
                            	  1109: _anon_z07_2:
02:0000095C 7600            	  1110:     moveq   #0,D3
02:0000095E 102C0001        	  1111:     move.b  ($0001,A4),D0
                            	  1112:     even
                            	  1113: _L_z07_ClearNameTable_LoopTile:
02:00000962 6100FB06        	  1114:     bsr     _ppu_write_7  ; PPU $2007 write, D0=val
02:00000966 5303            	  1115:     subq.b  #1,D3
02:00000968 66F8            	  1116:     bne  _L_z07_ClearNameTable_LoopTile
02:0000096A 5302            	  1117:     subq.b  #1,D2
02:0000096C 66F4            	  1118:     bne  _L_z07_ClearNameTable_LoopTile
02:0000096E 162C0002        	  1119:     move.b  ($0002,A4),D3
02:00000972 1014            	  1120:     move.b  ($0000,A4),D0
02:00000974 0C000020        	  1121:     cmpi.b  #$20,D0
02:00000978 6522            	  1122:     bcs  _L_z07_ClearNameTable_RestoreX
02:0000097A 123C0002        	  1123:     move.b  #$02,D1
02:0000097E D101            	  1124:     addx.b  D1,D0   ; ADC #$02 (X flag = 6502 C)
02:00000980 6100FAAA        	  1125:     bsr     _ppu_write_6  ; PPU $2006 write, D0=val
02:00000984 103C00C0        	  1126:     move.b  #$C0,D0
02:00000988 6100FAA2        	  1127:     bsr     _ppu_write_6  ; PPU $2006 write, D0=val
02:0000098C 7440            	  1128:     moveq   #64,D2
                            	  1129:     even
                            	  1130: _L_z07_ClearNameTable_LoopAttr:
02:0000098E 2F00            	  1131:     move.l  D0,-(SP)       ; save A (6502 STX/STY never modifies A)
02:00000990 1003            	  1132:     move.b  D3,D0  ; D3 → D0 for I/O write
02:00000992 6100FAD6        	  1133:     bsr     _ppu_write_7  ; PPU $2007 write, D0=val
02:00000996 201F            	  1134:     move.l  (SP)+,D0       ; restore A
02:00000998 5302            	  1135:     subq.b  #1,D2
02:0000099A 66F2            	  1136:     bne  _L_z07_ClearNameTable_LoopAttr
                            	  1137:     even
                            	  1138: _L_z07_ClearNameTable_RestoreX:
                            	  1139:     ; Set X to the passed in value.
                            	  1140:     ; Y was already its passed in value.
02:0000099C 142C0001        	  1141:     move.b  ($0001,A4),D2
02:000009A0 4E75            	  1142:     rts
                            	  1143: 
                            	  1144:     even
                            	  1145: TableJump:
02:000009A2 E308            	  1146:     lsl.b  #1,D0   ; ASL A
02:000009A4 1600            	  1147:     move.b  D0,D3
02:000009A6 101D            	  1148:     move.b  (A5)+,D0  ; PLA
02:000009A8 1880            	  1149:     move.b  D0,($0000,A4)
02:000009AA 101D            	  1150:     move.b  (A5)+,D0  ; PLA
02:000009AC 19400001        	  1151:     move.b  D0,($0001,A4)
02:000009B0 5203            	  1152:     addq.b  #1,D3
02:000009B2 1214            	  1153:     move.b  ($00,A4),D1   ; ptr lo
02:000009B4 182C0001        	  1154:     move.b  ($01,A4),D4  ; ptr hi
02:000009B8 E14C            	  1155:     lsl.w   #8,D4
02:000009BA 8841            	  1156:     or.w    D1,D4             ; D4 = NES ptr addr
02:000009BC 48C4            	  1157:     ext.l   D4
02:000009BE D8BC00FF0000    	  1158:     add.l   #NES_RAM,D4       ; → Genesis addr
02:000009C4 2044            	  1159:     movea.l D4,A0
02:000009C6 10303000        	  1160:     move.b  (A0,D3.W),D0     ; LDA ($nn),Y
02:000009CA 19400002        	  1161:     move.b  D0,($0002,A4)
02:000009CE 5203            	  1162:     addq.b  #1,D3
02:000009D0 1214            	  1163:     move.b  ($00,A4),D1   ; ptr lo
02:000009D2 182C0001        	  1164:     move.b  ($01,A4),D4  ; ptr hi
02:000009D6 E14C            	  1165:     lsl.w   #8,D4
02:000009D8 8841            	  1166:     or.w    D1,D4             ; D4 = NES ptr addr
02:000009DA 48C4            	  1167:     ext.l   D4
02:000009DC D8BC00FF0000    	  1168:     add.l   #NES_RAM,D4       ; → Genesis addr
02:000009E2 2044            	  1169:     movea.l D4,A0
02:000009E4 10303000        	  1170:     move.b  (A0,D3.W),D0     ; LDA ($nn),Y
02:000009E8 19400003        	  1171:     move.b  D0,($0003,A4)
02:000009EC 322C0002        	  1172:     move.w  ($0002,A4),D1  ; JMP ($nnnn) ptr lo
02:000009F0 48C1            	  1173:     ext.l   D1
02:000009F2 D2BC00FF0000    	  1174:     add.l   #NES_RAM,D1
02:000009F8 2041            	  1175:     movea.l D1,A0
02:000009FA 4ED0            	  1176:     jmp     (A0)              ; JMP ($0002)
                            	  1177: 
                            	  1178:     even
                            	  1179: HideAllSprites:
02:000009FC 7600            	  1180:     moveq   #0,D3
02:000009FE 7440            	  1181:     moveq   #64,D2
                            	  1182:     even
                            	  1183: _L_z07_HideAllSprites_Loop:
02:00000A00 103C00F8        	  1184:     move.b  #$F8,D0
02:00000A04 41EC0200        	  1185:     lea     ($0200,A4),A0
02:00000A08 11803000        	  1186:     move.b  D0,(A0,D3.W)
02:00000A0C 5203            	  1187:     addq.b  #1,D3
02:00000A0E 5203            	  1188:     addq.b  #1,D3
02:00000A10 5203            	  1189:     addq.b  #1,D3
02:00000A12 5203            	  1190:     addq.b  #1,D3
02:00000A14 5302            	  1191:     subq.b  #1,D2
02:00000A16 66E8            	  1192:     bne  _L_z07_HideAllSprites_Loop
02:00000A18 4E75            	  1193:     rts
                            	  1194: 
                            	  1195: ; Params:
                            	  1196: ; A: high byte of high address to reset
                            	  1197: ; Y: low byte of high address to reset
                            	  1198: ;
                            	  1199: ; Resets all bytes from $300 to byte Y of page A.
                            	  1200: ;
                            	  1201:     even
                            	  1202: ClearRam0300UpTo:
02:00000A1A 19400001        	  1203:     move.b  D0,($0001,A4)
02:00000A1E 7000            	  1204:     moveq   #0,D0
02:00000A20 1880            	  1205:     move.b  D0,($0000,A4)
                            	  1206:     even
                            	  1207: _L_z07_ClearRam0300UpTo_Loop:
02:00000A22 7000            	  1208:     moveq   #0,D0
02:00000A24 1214            	  1209:     move.b  ($00,A4),D1   ; ptr lo
02:00000A26 182C0001        	  1210:     move.b  ($01,A4),D4  ; ptr hi
02:00000A2A E14C            	  1211:     lsl.w   #8,D4
02:00000A2C 8841            	  1212:     or.w    D1,D4
02:00000A2E 48C4            	  1213:     ext.l   D4
02:00000A30 D8BC00FF0000    	  1214:     add.l   #NES_RAM,D4
02:00000A36 2044            	  1215:     movea.l D4,A0
02:00000A38 11803000        	  1216:     move.b  D0,(A0,D3.W)     ; STA ($nn),Y
02:00000A3C 5303            	  1217:     subq.b  #1,D3
02:00000A3E 0C0300FF        	  1218:     cmpi.b  #$FF,D3
02:00000A42 66DE            	  1219:     bne  _L_z07_ClearRam0300UpTo_Loop
02:00000A44 532C0001        	  1220:     subq.b  #1,($0001,A4)
02:00000A48 102C0001        	  1221:     move.b  ($0001,A4),D0
02:00000A4C 0C000003        	  1222:     cmpi.b  #$03,D0
02:00000A50 64D0            	  1223:     bcc  _L_z07_ClearRam0300UpTo_Loop
                            	  1224:     ; We overwrote the dynamic transfer buf with zeroes.
                            	  1225:     ; But the cleared state of the tile buf has the end marker at
                            	  1226:     ; the beginning. Write the end marker.
02:00000A52 103C00FF        	  1227:     move.b  #$FF,D0
02:00000A56 19400302        	  1228:     move.b  D0,($0302,A4)
02:00000A5A 4E75            	  1229:     rts
                            	  1230: 
                            	  1231:     even
                            	  1232: TurnOffAllVideo:
02:00000A5C 7000            	  1233:     moveq   #0,D0
02:00000A5E 6100F98A        	  1234:     bsr     _ppu_write_1  ; PPU $2001 write, D0=val
02:00000A62 194000FE        	  1235:     move.b  D0,($00FE,A4)
02:00000A66 4E75            	  1236:     rts
                            	  1237: 
                            	  1238:     even
                            	  1239: ReadInputs:
02:00000A68 7001            	  1240:     moveq   #1,D0
02:00000A6A 6100FB60        	  1241:     bsr     _ctrl_strobe     ; $4016 controller strobe
02:00000A6E 7000            	  1242:     moveq   #0,D0
02:00000A70 6100FB5A        	  1243:     bsr     _ctrl_strobe     ; $4016 controller strobe
02:00000A74 19400003        	  1244:     move.b  D0,($0003,A4)
02:00000A78 19400004        	  1245:     move.b  D0,($0004,A4)
02:00000A7C 1400            	  1246:     move.b  D0,D2
02:00000A7E 6102            	  1247:     bsr     ReadOneController
02:00000A80 5202            	  1248:     addq.b  #1,D2
                            	  1249:     even
                            	  1250: ReadOneController:
                            	  1251:     ; Read over and over until you get 
                            	  1252:     ; two of the same readings in a row
                            	  1253:     ; (three from the very beginning).
                            	  1254:     ; [02] : previous reading in this loop
                            	  1255:     ; [03]/2 : successive matching readings (for each controller)
                            	  1256:     ;
02:00000A82 19400002        	  1257:     move.b  D0,($0002,A4)
02:00000A86 7001            	  1258:     moveq   #1,D0
02:00000A88 6100FB42        	  1259:     bsr     _ctrl_strobe     ; $4016 controller strobe
02:00000A8C 7000            	  1260:     moveq   #0,D0
02:00000A8E 6100FB3C        	  1261:     bsr     _ctrl_strobe     ; $4016 controller strobe
02:00000A92 7608            	  1262:     moveq   #8,D3
                            	  1263:     even
                            	  1264: _L_z07_ReadOneController_Read:
02:00000A94 6100FB38        	  1265:     bsr     _ctrl_read_1    ; $4016 controller 1 → D0
02:00000A98 E208            	  1266:     lsr.b  #1,D0   ; LSR A
02:00000A9A 41EC00F8        	  1267:     lea     ($00F8,A4),A0
02:00000A9E 12302000        	  1268:     move.b  (A0,D2.W),D1
02:00000AA2 E311            	  1269:     roxl.b  #1,D1   ; ROL ButtonsPressed,X
02:00000AA4 11812000        	  1270:     move.b  D1,(A0,D2.W)
02:00000AA8 E208            	  1271:     lsr.b  #1,D0   ; LSR A
02:00000AAA 1214            	  1272:     move.b  ($0000,A4),D1
02:00000AAC E311            	  1273:     roxl.b  #1,D1   ; ROL $00
02:00000AAE 1881            	  1274:     move.b  D1,($0000,A4)
02:00000AB0 5303            	  1275:     subq.b  #1,D3
02:00000AB2 66E0            	  1276:     bne  _L_z07_ReadOneController_Read
02:00000AB4 41EC00F8        	  1277:     lea     ($00F8,A4),A0
02:00000AB8 10302000        	  1278:     move.b  (A0,D2.W),D0
02:00000ABC 122C0002        	  1279:     move.b  ($0002,A4),D1
02:00000AC0 B001            	  1280:     cmp.b   D1,D0
02:00000AC2 66BE            	  1281:     bne  ReadOneController
02:00000AC4 52342003        	  1282:     addq.b  #1,($03,A4,D2.W)
02:00000AC8 16342003        	  1283:     move.b  ($03,A4,D2.W),D3
02:00000ACC 0C030002        	  1284:     cmpi.b  #$02,D3
02:00000AD0 65B0            	  1285:     bcs  ReadOneController
02:00000AD2 1014            	  1286:     move.b  ($0000,A4),D0
02:00000AD4 41EC00F8        	  1287:     lea     ($00F8,A4),A0
02:00000AD8 12302000        	  1288:     move.b  (A0,D2.W),D1
02:00000ADC 8001            	  1289:     or.b  D1,D0
02:00000ADE 41EC00F8        	  1290:     lea     ($00F8,A4),A0
02:00000AE2 11802000        	  1291:     move.b  D0,(A0,D2.W)
02:00000AE6 1B00            	  1292:     move.b  D0,-(A5)  ; PHA
02:00000AE8 41EC00FA        	  1293:     lea     ($00FA,A4),A0
02:00000AEC 12302000        	  1294:     move.b  (A0,D2.W),D1
02:00000AF0 B300            	  1295:     eor.b  D1,D0
02:00000AF2 41EC00F8        	  1296:     lea     ($00F8,A4),A0
02:00000AF6 12302000        	  1297:     move.b  (A0,D2.W),D1
02:00000AFA C001            	  1298:     and.b  D1,D0
02:00000AFC 41EC00F8        	  1299:     lea     ($00F8,A4),A0
02:00000B00 11802000        	  1300:     move.b  D0,(A0,D2.W)
02:00000B04 101D            	  1301:     move.b  (A5)+,D0  ; PLA
02:00000B06 41EC00FA        	  1302:     lea     ($00FA,A4),A0
02:00000B0A 11802000        	  1303:     move.b  D0,(A0,D2.W)
02:00000B0E 4E75            	  1304:     rts
                            	  1305: 
                            	  1306:     even
                            	  1307: UpdateTriforcePositionMarker:
02:00000B10 102C0010        	  1308:     move.b  ($0010,A4),D0
02:00000B14 67000092        	  1309:     beq  Exit
02:00000B18 7005            	  1310:     moveq   #5,D0
02:00000B1A 61002BB0        	  1311:     bsr     SwitchBank
02:00000B1E 61002D5E        	  1312:     bsr     HasCompass
02:00000B22 67000084        	  1313:     beq  Exit
02:00000B26 103900FF6BAE    	  1314:     move.b  (NES_SRAM+$0BAE).l,D0
02:00000B2C 7404            	  1315:     moveq   #4,D2
02:00000B2E 4EF83784        	  1316:     jmp     UpdatePositionMarker
                            	  1317: 
                            	  1318:     even
                            	  1319: CalculateNextRoom:
02:00000B32 162C0010        	  1320:     move.b  ($0010,A4),D3
02:00000B36 6742            	  1321:     beq  CalculateNextRoomOW
                            	  1322:     ; Look up door attribute for player's direction.
                            	  1323:     ;
02:00000B38 102C0098        	  1324:     move.b  ($0098,A4),D0
02:00000B3C 19400002        	  1325:     move.b  D0,($0002,A4)
02:00000B40 7005            	  1326:     moveq   #5,D0
02:00000B42 61002B88        	  1327:     bsr     SwitchBank
02:00000B46 61002D32        	  1328:     bsr     FindDoorAttrByDoorBit
02:00000B4A 162C0001        	  1329:     move.b  ($0001,A4),D3
                            	  1330:     even
                            	  1331: CalculateNextRoom_TableJump:
02:00000B4E 194300E7        	  1332:     move.b  D3,($00E7,A4)
02:00000B52 6100FB08        	  1333:     bsr     _m68k_tablejump  ; M68K-native table dispatch (replaces JSR TableJump)
                            	  1334:     even
                            	  1335: CalculateNextRoom_JumpTable:
02:00000B56 0000385C        	  1336:     dc.l    CalculateNextRoomForDoor   ; NES addr vector (32-bit for M68K)
02:00000B5A 0000B517        	  1337:     dc.l    $B517   ; NES addr vector (32-bit for M68K)
02:00000B5E 0000385C        	  1338:     dc.l    CalculateNextRoomForDoor   ; NES addr vector (32-bit for M68K)
02:00000B62 0000385C        	  1339:     dc.l    CalculateNextRoomForDoor   ; NES addr vector (32-bit for M68K)
02:00000B66 0000385C        	  1340:     dc.l    CalculateNextRoomForDoor   ; NES addr vector (32-bit for M68K)
02:00000B6A 0000385C        	  1341:     dc.l    CalculateNextRoomForDoor   ; NES addr vector (32-bit for M68K)
02:00000B6E 0000385C        	  1342:     dc.l    CalculateNextRoomForDoor   ; NES addr vector (32-bit for M68K)
02:00000B72 0000385C        	  1343:     dc.l    CalculateNextRoomForDoor   ; NES addr vector (32-bit for M68K)
02:00000B76 0000B517        	  1344:     dc.l    $B517   ; NES addr vector (32-bit for M68K)
                            	  1345: 
                            	  1346:     even
                            	  1347: CalculateNextRoomOW:
02:00000B7A 162C0098        	  1348:     move.b  ($0098,A4),D3
02:00000B7E 7000            	  1349:     moveq   #0,D0
02:00000B80 67CC            	  1350:     beq  CalculateNextRoom_TableJump
                            	  1351:     even
                            	  1352: LevelMasks:
02:00000B82 01              	  1353:     dc.b    $01, $02, $04, $08, $10, $20, $40, $80
02:00000B83 02
02:00000B84 04
02:00000B85 08
02:00000B86 10
02:00000B87 20
02:00000B88 40
02:00000B89 80
                            	  1354: 
                            	  1355:     even
                            	  1356: MarkRoomVisited:
02:00000B8A 611E            	  1357:     bsr     GetRoomFlags
02:00000B8C 00000020        	  1358:     ori.b #$20,D0
02:00000B90 1214            	  1359:     move.b  ($00,A4),D1   ; ptr lo
02:00000B92 182C0001        	  1360:     move.b  ($01,A4),D4  ; ptr hi
02:00000B96 E14C            	  1361:     lsl.w   #8,D4
02:00000B98 8841            	  1362:     or.w    D1,D4
02:00000B9A 48C4            	  1363:     ext.l   D4
02:00000B9C D8BC00FF0000    	  1364:     add.l   #NES_RAM,D4
02:00000BA2 2044            	  1365:     movea.l D4,A0
02:00000BA4 11803000        	  1366:     move.b  D0,(A0,D3.W)     ; STA ($nn),Y
                            	  1367:     even
                            	  1368: Exit:
02:00000BA8 4E75            	  1369:     rts
                            	  1370: 
                            	  1371: ; Returns:
                            	  1372: ; A: flags for the room in level block world flags
                            	  1373: ; Y: room ID
                            	  1374: ; [$00:01]: address of level block world flags
                            	  1375: ;
                            	  1376:     even
                            	  1377: GetRoomFlags:
02:00000BAA 103900FF6BAF    	  1378:     move.b  (NES_SRAM+$0BAF).l,D0
02:00000BB0 1880            	  1379:     move.b  D0,($0000,A4)
02:00000BB2 103900FF6BB0    	  1380:     move.b  (NES_SRAM+$0BB0).l,D0
02:00000BB8 19400001        	  1381:     move.b  D0,($0001,A4)
02:00000BBC 162C00EB        	  1382:     move.b  ($00EB,A4),D3
02:00000BC0 1214            	  1383:     move.b  ($00,A4),D1   ; ptr lo
02:00000BC2 182C0001        	  1384:     move.b  ($01,A4),D4  ; ptr hi
02:00000BC6 E14C            	  1385:     lsl.w   #8,D4
02:00000BC8 8841            	  1386:     or.w    D1,D4             ; D4 = NES ptr addr
02:00000BCA 48C4            	  1387:     ext.l   D4
02:00000BCC D8BC00FF0000    	  1388:     add.l   #NES_RAM,D4       ; → Genesis addr
02:00000BD2 2044            	  1389:     movea.l D4,A0
02:00000BD4 10303000        	  1390:     move.b  (A0,D3.W),D0     ; LDA ($nn),Y
02:00000BD8 4E75            	  1391:     rts
                            	  1392: 
                            	  1393:     even
                            	  1394: AnimateRoomItemOnMonster:
                            	  1395:     ; Put room item object where the first monster is.
                            	  1396:     ;
02:00000BDA 102C0071        	  1397:     move.b  ($0071,A4),D0
02:00000BDE 19400083        	  1398:     move.b  D0,($0083,A4)
02:00000BE2 102C0085        	  1399:     move.b  ($0085,A4),D0
02:00000BE6 19400097        	  1400:     move.b  D0,($0097,A4)
02:00000BEA 4EF80C22        	  1401:     jmp     AnimateRoomItemObject
                            	  1402: 
                            	  1403:     even
                            	  1404: PopAndExit:
                            	  1405:     ; Pop and return.
                            	  1406:     ;
02:00000BEE 101D            	  1407:     move.b  (A5)+,D0  ; PLA
                            	  1408: _anon_z07_3:
02:00000BF0 4E75            	  1409:     rts
                            	  1410: 
                            	  1411:     even
                            	  1412: MoveAndDrawRoomItem:
                            	  1413:     ; If the item was taken, or it wasn't active, then return.
                            	  1414:     ;
02:00000BF2 61002B6A        	  1415:     bsr     GetRoomFlagUWItemState
02:00000BF6 66F8            	  1416:     bne  _anon_z07_3
02:00000BF8 102C00BF        	  1417:     move.b  ($00BF,A4),D0
02:00000BFC 6BF2            	  1418:     bmi  _anon_z07_3
                            	  1419:     ; If the item type is "none" ($3F), then return.
                            	  1420:     ;
02:00000BFE 102C00AB        	  1421:     move.b  ($00AB,A4),D0
02:00000C02 0C00003F        	  1422:     cmpi.b  #$3F,D0
02:00000C06 67E8            	  1423:     beq  _anon_z07_3
                            	  1424:     ; If there's a room item, and object 1 is a like-like, stalfos, or gibdo;
                            	  1425:     ; then move the item along with the monster.
                            	  1426:     ;
02:00000C08 7401            	  1427:     moveq   #1,D2
02:00000C0A 102C0350        	  1428:     move.b  ($0350,A4),D0
02:00000C0E 0C000017        	  1429:     cmpi.b  #$17,D0
02:00000C12 67C6            	  1430:     beq  AnimateRoomItemOnMonster
02:00000C14 0C00002A        	  1431:     cmpi.b  #$2A,D0
02:00000C18 67C0            	  1432:     beq  AnimateRoomItemOnMonster
02:00000C1A 0C000030        	  1433:     cmpi.b  #$30,D0
02:00000C1E 67BA            	  1434:     beq  AnimateRoomItemOnMonster
                            	  1435:     ; A monster is not carrying the item. So draw the item as usual.
                            	  1436:     ;
                            	  1437:     ;
                            	  1438:     ; Room item is in object slot $13.
02:00000C20 7413            	  1439:     moveq   #19,D2
                            	  1440:     even
                            	  1441: AnimateRoomItemObject:
02:00000C22 102C00AB        	  1442:     move.b  ($00AB,A4),D0
                            	  1443: ; Params:
                            	  1444: ; A: item type
                            	  1445: ; X: object index
                            	  1446: ;
                            	  1447: ;
                            	  1448: ; Save the item ID.
                            	  1449:     even
                            	  1450: AnimateItemObject:
02:00000C26 1B00            	  1451:     move.b  D0,-(A5)  ; PHA
                            	  1452:     ; If the lifetime timer of the item >= $F0 and even, then
                            	  1453:     ; return without drawing. This makes it flash at first.
                            	  1454:     ;
                            	  1455:     ; [03A8][X] is used to count down the life of the item.
                            	  1456:     ;
02:00000C28 41EC03A8        	  1457:     lea     ($03A8,A4),A0
02:00000C2C 10302000        	  1458:     move.b  (A0,D2.W),D0
02:00000C30 0C0000F0        	  1459:     cmpi.b  #$F0,D0
02:00000C34 6504            	  1460:     bcs  _anon_z07_4
02:00000C36 E208            	  1461:     lsr.b  #1,D0   ; LSR A
02:00000C38 64B4            	  1462:     bcc  PopAndExit
                            	  1463: _anon_z07_4:
                            	  1464:     ; Copy room item object position to sprite descriptor.
                            	  1465:     ;
02:00000C3A 6100220C        	  1466:     bsr     Anim_FetchObjPosForSpriteDescriptor
                            	  1467:     ; Look up the item description for this item ID.
                            	  1468:     ; Store the item value part of it in [04].
                            	  1469:     ;
                            	  1470:     ;
                            	  1471:     ; Restore the item ID.
02:00000C3E 101D            	  1472:     move.b  (A5)+,D0  ; PLA
02:00000C40 1400            	  1473:     move.b  D0,D2
02:00000C42 41F900003762    	  1474:     lea     (ItemIdToDescriptor).l,A0
02:00000C48 10302000        	  1475:     move.b  (A0,D2.W),D0
02:00000C4C 0C000030        	  1476:     cmpi.b  #$30,D0
02:00000C50 671A            	  1477:     beq  _L_z07_AnimateItemObject_SetItemValueFF
02:00000C52 0200000F        	  1478:     andi.b #$0F,D0
                            	  1479:     even
                            	  1480: _L_z07_AnimateItemObject_SetItemValue:
02:00000C56 19400004        	  1481:     move.b  D0,($0004,A4)
                            	  1482:     ; Get item slot for the item ID, and draw the item.
                            	  1483:     ;
02:00000C5A 41F900003764    	  1484:     lea     (ItemIdToSlot).l,A0
02:00000C60 10302000        	  1485:     move.b  (A0,D2.W),D0
02:00000C64 1400            	  1486:     move.b  D0,D2
02:00000C66 1600            	  1487:     move.b  D0,D3
02:00000C68 4EF80C7E        	  1488:     jmp     DrawItemBySlot
                            	  1489: 
                            	  1490:     even
                            	  1491: _L_z07_AnimateItemObject_SetItemValueFF:
02:00000C6C 103C00FF        	  1492:     move.b  #$FF,D0
02:00000C70 66E4            	  1493:     bne  _L_z07_AnimateItemObject_SetItemValue
                            	  1494: ; Params:
                            	  1495: ; X: item slot
                            	  1496: ; Y: item slot
                            	  1497: ; [00]: X
                            	  1498: ; [01]: Y
                            	  1499: ;
                            	  1500:     even
                            	  1501: DrawItemInInventory:
02:00000C72 41EC0657        	  1502:     lea     ($0657,A4),A0
02:00000C76 10302000        	  1503:     move.b  (A0,D2.W),D0
02:00000C7A 19400004        	  1504:     move.b  D0,($0004,A4)
                            	  1505: ; Params:
                            	  1506: ; X: item slot
                            	  1507: ; Y: item slot
                            	  1508: ; [00]: X
                            	  1509: ; [01]: Y
                            	  1510: ; [04]: item value / sprite palette row attribute
                            	  1511: ;
                            	  1512:     even
                            	  1513: DrawItemBySlot:
02:00000C7E 41F900003766    	  1514:     lea     (ItemSlotToPaletteOffsetsOrValues).l,A0
02:00000C84 10302000        	  1515:     move.b  (A0,D2.W),D0
02:00000C88 0C020016        	  1516:     cmpi.b  #$16,D2
02:00000C8C 6712            	  1517:     beq  _L_z07_DrawItemBySlot_Flash
02:00000C8E 0C02001A        	  1518:     cmpi.b  #$1A,D2
02:00000C92 670C            	  1519:     beq  _L_z07_DrawItemBySlot_Flash
02:00000C94 0C02001B        	  1520:     cmpi.b  #$1B,D2
02:00000C98 6706            	  1521:     beq  _L_z07_DrawItemBySlot_Flash
02:00000C9A 0C020019        	  1522:     cmpi.b  #$19,D2
02:00000C9E 6614            	  1523:     bne  _L_z07_DrawItemBySlot_VariesByColor
                            	  1524:     even
                            	  1525: _L_z07_DrawItemBySlot_Flash:
02:00000CA0 102C0015        	  1526:     move.b  ($0015,A4),D0
02:00000CA4 02000008        	  1527:     andi.b #$08,D0
02:00000CA8 E208            	  1528:     lsr.b  #1,D0   ; LSR A
02:00000CAA E208            	  1529:     lsr.b  #1,D0   ; LSR A
02:00000CAC E208            	  1530:     lsr.b  #1,D0   ; LSR A
02:00000CAE 123C0001        	  1531:     move.b  #$01,D1
02:00000CB2 D101            	  1532:     addx.b  D1,D0   ; ADC #$01 (X flag = 6502 C)
                            	  1533:     even
                            	  1534: _L_z07_DrawItemBySlot_VariesByColor:
02:00000CB4 4A02            	  1535:     cmpi.b  #$00,D2
02:00000CB6 6724            	  1536:     beq  _L_z07_DrawItemBySlot_AddItemAndTableValue
02:00000CB8 0C020004        	  1537:     cmpi.b  #$04,D2
02:00000CBC 671E            	  1538:     beq  _L_z07_DrawItemBySlot_AddItemAndTableValue
02:00000CBE 0C020002        	  1539:     cmpi.b  #$02,D2
02:00000CC2 6718            	  1540:     beq  _L_z07_DrawItemBySlot_AddItemAndTableValue
02:00000CC4 0C020007        	  1541:     cmpi.b  #$07,D2
02:00000CC8 6712            	  1542:     beq  _L_z07_DrawItemBySlot_AddItemAndTableValue
02:00000CCA 0C02000B        	  1543:     cmpi.b  #$0B,D2
02:00000CCE 670C            	  1544:     beq  _L_z07_DrawItemBySlot_AddItemAndTableValue
                            	  1545:     even
                            	  1546: _L_z07_DrawItemBySlot_WriteSprites:
                            	  1547:     ; We got here in one of three ways:
                            	  1548:     ;
                            	  1549:     ; A. The item flashes. Attribute value 1 or 2 was chosen
                            	  1550:     ;    explicitly.
                            	  1551:     ; B. The item color varies. ItemSlotToPaletteOffsetsOrValues
                            	  1552:     ;    held an offset that was added to base palette attribute
                            	  1553:     ;    passed in [$04]. This corresponds to class 2 items.
                            	  1554:     ; C. Item doesn't change color. ItemSlotToPaletteOffsetsOrValues
                            	  1555:     ;    held absolute attributes.
                            	  1556:     ;
                            	  1557:     ; At this point, A holds the final sprite attributes.
02:00000CD0 7400            	  1558:     moveq   #0,D2
02:00000CD2 1942000C        	  1559:     move.b  D2,($000C,A4)
02:00000CD6 740F            	  1560:     moveq   #15,D2
                            	  1561:     ; Write sprites.
                            	  1562:     ; A holds the calculated sprite attributes.
                            	  1563:     ; Y holds the item slot.
02:00000CD8 4EF83740        	  1564:     jmp     Anim_WriteStaticItemSpritesWithAttributes
                            	  1565: 
                            	  1566:     even
                            	  1567: _L_z07_DrawItemBySlot_AddItemAndTableValue:
                            	  1568:     ; Calculate sprite attributes by adding item value / sprite palette
                            	  1569:     ; row attribute and the element from ItemSlotToPaletteOffsetsOrValues,
                            	  1570:     ; which here represents an offset from the palette row.
                            	  1571:     ;
02:00000CDC 023C00EE        	  1572:     andi.b  #$EE,CCR  ; CLC: clear C+X
02:00000CE0 122C0004        	  1573:     move.b  ($0004,A4),D1
02:00000CE4 D101            	  1574:     addx.b  D1,D0   ; ADC $04
02:00000CE6 4A02            	  1575:     cmpi.b  #$00,D2
02:00000CE8 66E6            	  1576:     bne  _L_z07_DrawItemBySlot_WriteSprites
02:00000CEA 0C000002        	  1577:     cmpi.b  #$02,D0
02:00000CEE 66E0            	  1578:     bne  _L_z07_DrawItemBySlot_WriteSprites
02:00000CF0 7620            	  1579:     moveq   #32,D3
02:00000CF2 4EF80CD0        	  1580:     jmp     _L_z07_DrawItemBySlot_WriteSprites
                            	  1581: 
                            	  1582:     even
                            	  1583: DrawStatusBarPotion:
                            	  1584:     ; We have a potion to draw.
                            	  1585:     ;
                            	  1586:     ;
                            	  1587:     ; Potion item slot.
02:00000CF6 7407            	  1588:     moveq   #7,D2
02:00000CF8 19420656        	  1589:     move.b  D2,($0656,A4)
02:00000CFC 6624            	  1590:     bne  DrawStatusBarItemB
                            	  1591:     even
                            	  1592: DrawStatusBarItemsAndEnsureItemSelected:
                            	  1593:     ; Draws the selected item and the sword in the status bar.
                            	  1594:     ; Before drawing the item, it ensures that SelectedItemSlot
                            	  1595:     ; refers to an occupied, equippable item slot.
                            	  1596:     ;
                            	  1597:     ; This accounts for the fallback behavior between potions
                            	  1598:     ; and letters and the two boomerangs.
                            	  1599:     ;
                            	  1600:     ; Start at slot zero. Normally, it would be used to
                            	  1601:     ; check swords. When it's used as the selected item index;
                            	  1602:     ; it's a pseudo-slot used for checking boomerangs.
                            	  1603:     ;
02:00000CFE 142C0656        	  1604:     move.b  ($0656,A4),D2
02:00000D02 673A            	  1605:     beq  DrawStatusBarBoomerang
02:00000D04 41EC0657        	  1606:     lea     ($0657,A4),A0
02:00000D08 10302000        	  1607:     move.b  (A0,D2.W),D0
02:00000D0C 67000088        	  1608:     beq  CheckMissingItem
02:00000D10 0C02000F        	  1609:     cmpi.b  #$0F,D2
02:00000D14 660C            	  1610:     bne  DrawStatusBarItemB
02:00000D16 162C065E        	  1611:     move.b  ($065E,A4),D3
02:00000D1A 66DA            	  1612:     bne  DrawStatusBarPotion
02:00000D1C E208            	  1613:     lsr.b  #1,D0   ; LSR A
02:00000D1E 00000001        	  1614:     ori.b #$01,D0
                            	  1615:     even
                            	  1616: DrawStatusBarItemB:
02:00000D22 19400004        	  1617:     move.b  D0,($0004,A4)
02:00000D26 701F            	  1618:     moveq   #31,D0
02:00000D28 19400001        	  1619:     move.b  D0,($0001,A4)
02:00000D2C 707C            	  1620:     moveq   #124,D0
02:00000D2E 1880            	  1621:     move.b  D0,($0000,A4)
02:00000D30 7005            	  1622:     moveq   #5,D0
02:00000D32 61002998        	  1623:     bsr     SwitchBank
02:00000D36 61002B3A        	  1624:     bsr     DrawItemInInventoryWithX
02:00000D3A 4EF80D72        	  1625:     jmp     DrawStatusBarSword
                            	  1626: 
                            	  1627:     even
                            	  1628: DrawStatusBarBoomerang:
02:00000D3E 741E            	  1629:     moveq   #30,D2
                            	  1630:     even
                            	  1631: _L_z07_DrawStatusBarBoomerang_LoopBoomerang:
02:00000D40 41EC0657        	  1632:     lea     ($0657,A4),A0
02:00000D44 10302000        	  1633:     move.b  (A0,D2.W),D0
02:00000D48 66D8            	  1634:     bne  DrawStatusBarItemB
02:00000D4A 5302            	  1635:     subq.b  #1,D2
02:00000D4C 0C02001C        	  1636:     cmpi.b  #$1C,D2
02:00000D50 66EE            	  1637:     bne  _L_z07_DrawStatusBarBoomerang_LoopBoomerang
02:00000D52 7400            	  1638:     moveq   #0,D2
02:00000D54 4EF80D62        	  1639:     jmp     EnsureSelectedItem
                            	  1640: 
                            	  1641:     even
                            	  1642: FindItemOrDrawSword:
02:00000D58 41EC0657        	  1643:     lea     ($0657,A4),A0
02:00000D5C 10302000        	  1644:     move.b  (A0,D2.W),D0
                            	  1645:     ; If there's an item in this slot, then SelectedItemSlot was already
                            	  1646:     ; set. Go handle the sword instead of drawing the item.
                            	  1647:     ; Next frame, we'll draw this item.
02:00000D60 6610            	  1648:     bne  DrawStatusBarSword
                            	  1649:     even
                            	  1650: EnsureSelectedItem:
02:00000D62 1002            	  1651:     move.b  D2,D0
02:00000D64 1600            	  1652:     move.b  D0,D3
02:00000D66 7005            	  1653:     moveq   #5,D0
02:00000D68 61002962        	  1654:     bsr     SwitchBank
02:00000D6C 7002            	  1655:     moveq   #2,D0
02:00000D6E 61002B08        	  1656:     bsr     FindAndSelectOccupiedItemSlot
                            	  1657:     even
                            	  1658: DrawStatusBarSword:
                            	  1659:     ; Handle the sword.
                            	  1660:     ;
02:00000D72 7400            	  1661:     moveq   #0,D2
02:00000D74 41EC0657        	  1662:     lea     ($0657,A4),A0
02:00000D78 10302000        	  1663:     move.b  (A0,D2.W),D0
02:00000D7C 67000098        	  1664:     beq  L1E847_Exit
02:00000D80 701F            	  1665:     moveq   #31,D0
02:00000D82 19400001        	  1666:     move.b  D0,($0001,A4)
02:00000D86 103C0094        	  1667:     move.b  #$94,D0
02:00000D8A 1880            	  1668:     move.b  D0,($0000,A4)
02:00000D8C 7005            	  1669:     moveq   #5,D0
02:00000D8E 6100293C        	  1670:     bsr     SwitchBank
02:00000D92 4EF83872        	  1671:     jmp     DrawItemInInventoryWithX
                            	  1672: 
                            	  1673:     even
                            	  1674: CheckMissingItem:
                            	  1675:     ; No item in slot.
                            	  1676:     ;
02:00000D96 0C020007        	  1677:     cmpi.b  #$07,D2
02:00000D9A 66BC            	  1678:     bne  FindItemOrDrawSword
02:00000D9C 102C0666        	  1679:     move.b  ($0666,A4),D0
02:00000DA0 67C0            	  1680:     beq  EnsureSelectedItem
02:00000DA2 740F            	  1681:     moveq   #15,D2
02:00000DA4 19420656        	  1682:     move.b  D2,($0656,A4)
02:00000DA8 66AE            	  1683:     bne  FindItemOrDrawSword
                            	  1684:     even
                            	  1685: CheckLiftItem:
02:00000DAA 102C0505        	  1686:     move.b  ($0505,A4),D0
02:00000DAE 67000086        	  1687:     beq  L1E859_Exit
02:00000DB2 532C0506        	  1688:     subq.b  #1,($0506,A4)
02:00000DB6 6760            	  1689:     beq  EndLinkLiftingItem
                            	  1690:     ; Set player state to halted.
                            	  1691:     ;
02:00000DB8 7040            	  1692:     moveq   #64,D0
02:00000DBA 194000AC        	  1693:     move.b  D0,($00AC,A4)
                            	  1694: ; Params:
                            	  1695: ; [0505]: item type
                            	  1696: ;
                            	  1697: ;
                            	  1698: ; Set item X the same as Link's.
                            	  1699:     even
                            	  1700: SetUpAndDrawLinkLiftingItem:
02:00000DBE 102C0070        	  1701:     move.b  ($0070,A4),D0
02:00000DC2 19400083        	  1702:     move.b  D0,($0083,A4)
02:00000DC6 102C0084        	  1703:     move.b  ($0084,A4),D0
02:00000DCA 003C0011        	  1704:     ori.b   #$11,CCR  ; SEC: set C+X
02:00000DCE 123C0010        	  1705:     move.b  #$10,D1
02:00000DD2 9101            	  1706:     subx.b  D1,D0   ; SBC #$10
02:00000DD4 19400097        	  1707:     move.b  D0,($0097,A4)
                            	  1708: ; Params:
                            	  1709: ; [0505]: item type
                            	  1710: ;
                            	  1711: ;
                            	  1712: ; We're dealing with Link object.
                            	  1713:     even
                            	  1714: DrawLinkLiftingItem:
02:00000DD8 7400            	  1715:     moveq   #0,D2
02:00000DDA 6100206C        	  1716:     bsr     Anim_FetchObjPosForSpriteDescriptor
02:00000DDE 61002958        	  1717:     bsr     Anim_SetSpriteDescriptorAttributes
02:00000DE2 1940000C        	  1718:     move.b  D0,($000C,A4)
02:00000DE6 7048            	  1719:     moveq   #72,D0
02:00000DE8 19400343        	  1720:     move.b  D0,($0343,A4)
02:00000DEC 704C            	  1721:     moveq   #76,D0
02:00000DEE 19400344        	  1722:     move.b  D0,($0344,A4)
02:00000DF2 7621            	  1723:     moveq   #33,D3
02:00000DF4 61002948        	  1724:     bsr     Anim_WriteSpecificItemSprites
02:00000DF8 522C0504        	  1725:     addq.b  #1,($0504,A4)
02:00000DFC 102C0505        	  1726:     move.b  ($0505,A4),D0
02:00000E00 7413            	  1727:     moveq   #19,D2
02:00000E02 6100FE22        	  1728:     bsr     AnimateItemObject
02:00000E06 532C0504        	  1729:     subq.b  #1,($0504,A4)
02:00000E0A 102C0052        	  1730:     move.b  ($0052,A4),D0
02:00000E0E 6706            	  1731:     beq  L1E847_Exit
                            	  1732:     ; Then lift with one hand.
                            	  1733:     ; Change the right side to a tile without the arm raised.
02:00000E10 7008            	  1734:     moveq   #8,D0
02:00000E12 1940024D        	  1735:     move.b  D0,($024D,A4)
                            	  1736:     even
                            	  1737: L1E847_Exit:
02:00000E16 4E75            	  1738:     rts
                            	  1739: 
                            	  1740:     even
                            	  1741: EndLinkLiftingItem:
                            	  1742:     ; Make Link idle, and reset the item type.
                            	  1743:     ;
02:00000E18 7000            	  1744:     moveq   #0,D0
02:00000E1A 194000AC        	  1745:     move.b  D0,($00AC,A4)
02:00000E1E 19400505        	  1746:     move.b  D0,($0505,A4)
                            	  1747:     ; If in UW, play the level's song again.
                            	  1748:     ;
02:00000E22 162C0010        	  1749:     move.b  ($0010,A4),D3
02:00000E26 670E            	  1750:     beq  L1E859_Exit
02:00000E28 41F900001400    	  1751:     lea     (LevelSongIds).l,A0
02:00000E2E 10303000        	  1752:     move.b  (A0,D3.W),D0
02:00000E32 19400600        	  1753:     move.b  D0,($0600,A4)
                            	  1754:     even
                            	  1755: L1E859_Exit:
02:00000E36 4E75            	  1756:     rts
                            	  1757: 
                            	  1758: ; Returns:
                            	  1759: ; A: unique room ID
                            	  1760: ; Y: room ID
                            	  1761: ;
                            	  1762:     even
                            	  1763: GetUniqueRoomId:
02:00000E38 162C00EB        	  1764:     move.b  ($00EB,A4),D3
02:00000E3C 41F900FF69FE    	  1765:     lea     (NES_SRAM+$09FE).l,A0
02:00000E42 10303000        	  1766:     move.b  (A0,D3.W),D0
02:00000E46 0200003F        	  1767:     andi.b #$3F,D0
02:00000E4A 4E75            	  1768:     rts
                            	  1769: 
                            	  1770: ; Params:
                            	  1771: ; A: first tile
                            	  1772: ; X: object index
                            	  1773: ; [F7]: not 0 to switch to bank 4 before returning
                            	  1774: ;
                            	  1775: ;
                            	  1776: ; First, cue the transfer of the 4 tiles to nametable 0.
                            	  1777: ;
                            	  1778: ; [05] holds the first tile.
                            	  1779:     even
                            	  1780: ChangeTileObjTiles:
02:00000E4C 19400005        	  1781:     move.b  D0,($0005,A4)
02:00000E50 1002            	  1782:     move.b  D2,D0
02:00000E52 1B00            	  1783:     move.b  D0,-(A5)  ; PHA
02:00000E54 10342070        	  1784:     move.b  ($70,A4,D2.W),D0
02:00000E58 19400003        	  1785:     move.b  D0,($0003,A4)
02:00000E5C 41EC0084        	  1786:     lea     ($0084,A4),A0
02:00000E60 10302000        	  1787:     move.b  (A0,D2.W),D0
02:00000E64 19400002        	  1788:     move.b  D0,($0002,A4)
02:00000E68 61002900        	  1789:     bsr     MapScreenPosToPpuAddr
02:00000E6C 142C0301        	  1790:     move.b  ($0301,A4),D2
                            	  1791:     ; Two transfer records will be written to the buffer and an end marker.
                            	  1792:     ;
                            	  1793:     ; Each record is 5 bytes and will transfer 2 tiles arranged vertically.
                            	  1794:     ; In total, 11 bytes will be written.
                            	  1795:     ;
                            	  1796:     ; First, write the high byte of PPU address in each record.
                            	  1797:     ;
02:00000E70 1014            	  1798:     move.b  ($0000,A4),D0
02:00000E72 41EC0302        	  1799:     lea     ($0302,A4),A0
02:00000E76 11802000        	  1800:     move.b  D0,(A0,D2.W)
02:00000E7A 41EC0307        	  1801:     lea     ($0307,A4),A0
02:00000E7E 11802000        	  1802:     move.b  D0,(A0,D2.W)
                            	  1803:     ; Write the low address in the first record. In the second record,
                            	  1804:     ; write (low address + 1).
                            	  1805:     ;
02:00000E82 102C0001        	  1806:     move.b  ($0001,A4),D0
02:00000E86 41EC0303        	  1807:     lea     ($0303,A4),A0
02:00000E8A 11802000        	  1808:     move.b  D0,(A0,D2.W)
02:00000E8E 41EC0308        	  1809:     lea     ($0308,A4),A0
02:00000E92 11802000        	  1810:     move.b  D0,(A0,D2.W)
02:00000E96 41EC0308        	  1811:     lea     ($0308,A4),A0
02:00000E9A 52302000        	  1812:     addq.b  #1,(A0,D2.W)
                            	  1813:     ; Write the first tile twice in each record. Patch them later.
                            	  1814:     ;
02:00000E9E 102C0005        	  1815:     move.b  ($0005,A4),D0
02:00000EA2 41EC0305        	  1816:     lea     ($0305,A4),A0
02:00000EA6 11802000        	  1817:     move.b  D0,(A0,D2.W)
02:00000EAA 41EC0306        	  1818:     lea     ($0306,A4),A0
02:00000EAE 11802000        	  1819:     move.b  D0,(A0,D2.W)
02:00000EB2 41EC030A        	  1820:     lea     ($030A,A4),A0
02:00000EB6 11802000        	  1821:     move.b  D0,(A0,D2.W)
02:00000EBA 41EC030B        	  1822:     lea     ($030B,A4),A0
02:00000EBE 11802000        	  1823:     move.b  D0,(A0,D2.W)
                            	  1824:     ; If tile >= $46 and < $F3, add 2 to the tile bytes in the second record.
                            	  1825:     ; Add 1 more to the second byte in each record.
                            	  1826:     ; Here is an example result of this manipulation:
                            	  1827:     ;   record 1: $70, $71
                            	  1828:     ;   record 2: $72, $73
                            	  1829:     ;
02:00000EC2 0C000046        	  1830:     cmpi.b  #$46,D0
02:00000EC6 6530            	  1831:     bcs  _L_z07_ChangeTileObjTiles_SetCountBytes
02:00000EC8 0C0000F3        	  1832:     cmpi.b  #$F3,D0
02:00000ECC 642A            	  1833:     bcc  _L_z07_ChangeTileObjTiles_SetCountBytes
02:00000ECE 023C00EE        	  1834:     andi.b  #$EE,CCR  ; CLC: clear C+X
02:00000ED2 123C0002        	  1835:     move.b  #$02,D1
02:00000ED6 D101            	  1836:     addx.b  D1,D0   ; ADC #$02 (X flag = 6502 C)
02:00000ED8 41EC030A        	  1837:     lea     ($030A,A4),A0
02:00000EDC 11802000        	  1838:     move.b  D0,(A0,D2.W)
02:00000EE0 41EC030B        	  1839:     lea     ($030B,A4),A0
02:00000EE4 11802000        	  1840:     move.b  D0,(A0,D2.W)
02:00000EE8 41EC0306        	  1841:     lea     ($0306,A4),A0
02:00000EEC 52302000        	  1842:     addq.b  #1,(A0,D2.W)
02:00000EF0 41EC030B        	  1843:     lea     ($030B,A4),A0
02:00000EF4 52302000        	  1844:     addq.b  #1,(A0,D2.W)
                            	  1845:     even
                            	  1846: _L_z07_ChangeTileObjTiles_SetCountBytes:
                            	  1847:     ; Set the count byte in each record to $82:
                            	  1848:     ; 2 tiles arranged vertically
                            	  1849:     ;
02:00000EF8 103C0082        	  1850:     move.b  #$82,D0
02:00000EFC 41EC0304        	  1851:     lea     ($0304,A4),A0
02:00000F00 11802000        	  1852:     move.b  D0,(A0,D2.W)
02:00000F04 41EC0309        	  1853:     lea     ($0309,A4),A0
02:00000F08 11802000        	  1854:     move.b  D0,(A0,D2.W)
                            	  1855:     ; Write the end marker.
                            	  1856:     ;
02:00000F0C 103C00FF        	  1857:     move.b  #$FF,D0
02:00000F10 41EC030C        	  1858:     lea     ($030C,A4),A0
02:00000F14 11802000        	  1859:     move.b  D0,(A0,D2.W)
                            	  1860:     ; Update dynamic buffer length with 10 new bytes.
                            	  1861:     ;
02:00000F18 1002            	  1862:     move.b  D2,D0
02:00000F1A 023C00EE        	  1863:     andi.b  #$EE,CCR  ; CLC: clear C+X
02:00000F1E 123C000A        	  1864:     move.b  #$0A,D1
02:00000F22 D101            	  1865:     addx.b  D1,D0   ; ADC #$0A (X flag = 6502 C)
02:00000F24 19400301        	  1866:     move.b  D0,($0301,A4)
02:00000F28 101D            	  1867:     move.b  (A5)+,D0  ; PLA
02:00000F2A 1400            	  1868:     move.b  D0,D2
02:00000F2C 7005            	  1869:     moveq   #5,D0
02:00000F2E 6100279C        	  1870:     bsr     SwitchBank
                            	  1871:     ; Change the tiles in the play area map.
                            	  1872:     ;
02:00000F32 6100292A        	  1873:     bsr     ChangePlayMapSquareOW
                            	  1874:     ; TODO: ?
                            	  1875:     ; If [F7] is set, switch to bank 4, and reset [F7].
                            	  1876:     ;
02:00000F36 102C00F7        	  1877:     move.b  ($00F7,A4),D0
02:00000F3A 6706            	  1878:     beq  _anon_z07_5
02:00000F3C 7004            	  1879:     moveq   #4,D0
02:00000F3E 6100278C        	  1880:     bsr     SwitchBank
                            	  1881: _anon_z07_5:
02:00000F42 7000            	  1882:     moveq   #0,D0
02:00000F44 194000F7        	  1883:     move.b  D0,($00F7,A4)
02:00000F48 4E75            	  1884:     rts
                            	  1885: 
                            	  1886: ; Params:
                            	  1887: ; [$0A]: tile
                            	  1888: ;
                            	  1889:     even
                            	  1890: FillTileMap:
02:00000F4A 7005            	  1891:     moveq   #5,D0
02:00000F4C 6100277E        	  1892:     bsr     SwitchBank
02:00000F50 61002924        	  1893:     bsr     FetchTileMapAddr
02:00000F54 7600            	  1894:     moveq   #0,D3
                            	  1895:     even
                            	  1896: _L_z07_FillTileMap_Loop:
02:00000F56 102C000A        	  1897:     move.b  ($000A,A4),D0
02:00000F5A 1214            	  1898:     move.b  ($00,A4),D1   ; ptr lo
02:00000F5C 182C0001        	  1899:     move.b  ($01,A4),D4  ; ptr hi
02:00000F60 E14C            	  1900:     lsl.w   #8,D4
02:00000F62 8841            	  1901:     or.w    D1,D4
02:00000F64 48C4            	  1902:     ext.l   D4
02:00000F66 D8BC00FF0000    	  1903:     add.l   #NES_RAM,D4
02:00000F6C 2044            	  1904:     movea.l D4,A0
02:00000F6E 11803000        	  1905:     move.b  D0,(A0,D3.W)     ; STA ($nn),Y
02:00000F72 610027C0        	  1906:     bsr     Add1ToInt16At0
02:00000F76 1014            	  1907:     move.b  ($0000,A4),D0
02:00000F78 0C0000F0        	  1908:     cmpi.b  #$F0,D0
02:00000F7C 66D8            	  1909:     bne  _L_z07_FillTileMap_Loop
02:00000F7E 102C0001        	  1910:     move.b  ($0001,A4),D0
02:00000F82 0C000067        	  1911:     cmpi.b  #$67,D0
02:00000F86 66CE            	  1912:     bne  _L_z07_FillTileMap_Loop
02:00000F88 4E75            	  1913:     rts
                            	  1914: 
                            	  1915: ; Unknown block
02:00000F8A FF              	  1916:     dc.b    $FF, $FF
02:00000F8B FF
                            	  1917: 
                            	  1918:     even
                            	  1919: InitializeGameOrMode:
02:00000F8C 102C00F4        	  1920:     move.b  ($00F4,A4),D0
02:00000F90 662C            	  1921:     bne  InitMode
02:00000F92 7001            	  1922:     moveq   #1,D0
02:00000F94 61002736        	  1923:     bsr     SwitchBank
02:00000F98 61002776        	  1924:     bsr     CopyCommonCodeToRam
02:00000F9C 7006            	  1925:     moveq   #6,D0
02:00000F9E 6100272C        	  1926:     bsr     SwitchBank
02:00000FA2 6100291E        	  1927:     bsr     CopyCommonDataToRam
02:00000FA6 705A            	  1928:     moveq   #90,D0
02:00000FA8 13C000FF6001    	  1929:     move.b  D0,(NES_SRAM+$0001).l
02:00000FAE 103C00A5        	  1930:     move.b  #$A5,D0
02:00000FB2 13C000FF7FFF    	  1931:     move.b  D0,(NES_SRAM+$1FFF).l
02:00000FB8 522C00F4        	  1932:     addq.b  #1,($00F4,A4)
02:00000FBC 4E75            	  1933:     rts
                            	  1934: 
                            	  1935:     even
                            	  1936: InitMode:
02:00000FBE 7005            	  1937:     moveq   #5,D0
02:00000FC0 6100270A        	  1938:     bsr     SwitchBank
02:00000FC4 102C0012        	  1939:     move.b  ($0012,A4),D0
02:00000FC8 6100F692        	  1940:     bsr     _m68k_tablejump  ; M68K-native table dispatch (replaces JSR TableJump)
                            	  1941:     even
                            	  1942: InitMode_JumpTable:
02:00000FCC 0000101C        	  1943:     dc.l    InitMode0   ; NES addr vector (32-bit for M68K)
02:00000FD0 0000104E        	  1944:     dc.l    InitMode1   ; NES addr vector (32-bit for M68K)
02:00000FD4 00001058        	  1945:     dc.l    InitMode2   ; NES addr vector (32-bit for M68K)
02:00000FD8 000010DC        	  1946:     dc.l    InitMode3   ; NES addr vector (32-bit for M68K)
02:00000FDC 00003894        	  1947:     dc.l    InitMode4   ; NES addr vector (32-bit for M68K)
02:00000FE0 000011C8        	  1948:     dc.l    InitMode5Play   ; NES addr vector (32-bit for M68K)
02:00000FE4 00003896        	  1949:     dc.l    InitMode6   ; NES addr vector (32-bit for M68K)
02:00000FE8 00001092        	  1950:     dc.l    InitMode7   ; NES addr vector (32-bit for M68K)
02:00000FEC 0000389A        	  1951:     dc.l    InitMode8   ; NES addr vector (32-bit for M68K)
02:00000FF0 0000389C        	  1952:     dc.l    InitMode9   ; NES addr vector (32-bit for M68K)
02:00000FF4 0000389E        	  1953:     dc.l    InitModeA   ; NES addr vector (32-bit for M68K)
02:00000FF8 000038A0        	  1954:     dc.l    InitModeB   ; NES addr vector (32-bit for M68K)
02:00000FFC 000038A2        	  1955:     dc.l    InitModeC   ; NES addr vector (32-bit for M68K)
02:00001000 000038A4        	  1956:     dc.l    InitModeD   ; NES addr vector (32-bit for M68K)
02:00001004 000010C2        	  1957:     dc.l    InitModeEandF   ; NES addr vector (32-bit for M68K)
02:00001008 000010C2        	  1958:     dc.l    InitModeEandF   ; NES addr vector (32-bit for M68K)
02:0000100C 00003880        	  1959:     dc.l    InitMode10   ; NES addr vector (32-bit for M68K)
02:00001010 00003882        	  1960:     dc.l    InitMode11   ; NES addr vector (32-bit for M68K)
02:00001014 00003884        	  1961:     dc.l    InitMode12   ; NES addr vector (32-bit for M68K)
02:00001018 000010CC        	  1962:     dc.l    InitMode13   ; NES addr vector (32-bit for M68K)
                            	  1963: 
                            	  1964:     even
                            	  1965: InitMode0:
02:0000101C 102C00F5        	  1966:     move.b  ($00F5,A4),D0
02:00001020 0C00005A        	  1967:     cmpi.b  #$5A,D0
02:00001024 670A            	  1968:     beq  _anon_z07_6
02:00001026 7002            	  1969:     moveq   #2,D0
02:00001028 610026A2        	  1970:     bsr     SwitchBank
02:0000102C 4EF83796        	  1971:     jmp     TransferCommonPatterns
                            	  1972: 
                            	  1973: _anon_z07_6:
02:00001030 102C00F6        	  1974:     move.b  ($00F6,A4),D0
02:00001034 0C0000A5        	  1975:     cmpi.b  #$A5,D0
02:00001038 670A            	  1976:     beq  _anon_z07_7
02:0000103A 7001            	  1977:     moveq   #1,D0
02:0000103C 6100268E        	  1978:     bsr     SwitchBank
02:00001040 4EF83720        	  1979:     jmp     TransferDemoPatterns
                            	  1980: 
                            	  1981: _anon_z07_7:
02:00001044 7002            	  1982:     moveq   #2,D0
02:00001046 61002684        	  1983:     bsr     SwitchBank
02:0000104A 4EF8378E        	  1984:     jmp     InitDemo_RunTasks
                            	  1985: 
                            	  1986:     even
                            	  1987: InitMode1:
02:0000104E 7002            	  1988:     moveq   #2,D0
02:00001050 6100267A        	  1989:     bsr     SwitchBank
02:00001054 4EF83790        	  1990:     jmp     InitMode1_Full
                            	  1991: 
                            	  1992:     even
                            	  1993: InitMode2:
02:00001058 6100FA02        	  1994:     bsr     TurnOffAllVideo
02:0000105C 102C0013        	  1995:     move.b  ($0013,A4),D0
02:00001060 6626            	  1996:     bne  _L_z07_InitMode2_InitSubmodes
                            	  1997:     ; Submode 0.
                            	  1998:     ; First step, transfer level pattern blocks and copy common code.
                            	  1999:     ;
02:00001062 610000BC        	  2000:     bsr     ClearRoomHistory
                            	  2001:     ; Clear level kill counts.
                            	  2002:     ;
02:00001066 767F            	  2003:     moveq   #127,D3
                            	  2004:     even
                            	  2005: _L_z07_InitMode2_ClearCounts:
02:00001068 41EC0560        	  2006:     lea     ($0560,A4),A0
02:0000106C 11803000        	  2007:     move.b  D0,(A0,D3.W)
02:00001070 5303            	  2008:     subq.b  #1,D3
02:00001072 6AF4            	  2009:     bpl  _L_z07_InitMode2_ClearCounts
02:00001074 7003            	  2010:     moveq   #3,D0
02:00001076 61002654        	  2011:     bsr     SwitchBank
02:0000107A 61002728        	  2012:     bsr     TransferLevelPatternBlocks
02:0000107E 7001            	  2013:     moveq   #1,D0
02:00001080 6100264A        	  2014:     bsr     SwitchBank
02:00001084 6100268A        	  2015:     bsr     CopyCommonCodeToRam
                            	  2016:     even
                            	  2017: _L_z07_InitMode2_InitSubmodes:
02:00001088 7006            	  2018:     moveq   #6,D0
02:0000108A 61002640        	  2019:     bsr     SwitchBank
02:0000108E 4EF838C4        	  2020:     jmp     InitMode2_Submodes
                            	  2021: 
                            	  2022:     even
                            	  2023: InitMode7:
02:00001092 7005            	  2024:     moveq   #5,D0
02:00001094 61002636        	  2025:     bsr     SwitchBank
02:00001098 610027FE        	  2026:     bsr     InitMode7Submodes
02:0000109C 102C00E3        	  2027:     move.b  ($00E3,A4),D0
02:000010A0 671E            	  2028:     beq  _L_z07_InitMode7_Exit
                            	  2029:     ; After the last submode (5 or 6), sprite-0 check was enabled.
                            	  2030:     ; So, set the appropriate mirroring for scrolling during mode update.
                            	  2031:     ;
                            	  2032:     ;
                            	  2033:     ; TODO: [$F3] ?
02:000010A2 102C00F3        	  2034:     move.b  ($00F3,A4),D0
02:000010A6 6618            	  2035:     bne  _L_z07_InitMode7_Exit
02:000010A8 522C00F3        	  2036:     addq.b  #1,($00F3,A4)
                            	  2037:     ; If player is facing horizontally, then enable vertical mirroring;
                            	  2038:     ; else horizontal mirroring.
02:000010AC 102C0098        	  2039:     move.b  ($0098,A4),D0
02:000010B0 0C000004        	  2040:     cmpi.b  #$04,D0
02:000010B4 6504            	  2041:     bcs  _L_z07_InitMode7_SetVertical
02:000010B6 700F            	  2042:     moveq   #15,D0
02:000010B8 6602            	  2043:     bne  _L_z07_InitMode7_SetMirroring
                            	  2044:     even
                            	  2045: _L_z07_InitMode7_SetVertical:
02:000010BA 700E            	  2046:     moveq   #14,D0
                            	  2047:     even
                            	  2048: _L_z07_InitMode7_SetMirroring:
02:000010BC 610025F0        	  2049:     bsr     SetMMC1Control
                            	  2050:     even
                            	  2051: _L_z07_InitMode7_Exit:
02:000010C0 4E75            	  2052:     rts
                            	  2053: 
                            	  2054:     even
                            	  2055: InitModeEandF:
02:000010C2 7002            	  2056:     moveq   #2,D0
02:000010C4 61002606        	  2057:     bsr     SwitchBank
02:000010C8 4EF83794        	  2058:     jmp     InitModeEandF_Full
                            	  2059: 
                            	  2060:     even
                            	  2061: InitMode13:
                            	  2062:     ; Make sure horizontal mirroring is on.
                            	  2063:     ;
02:000010CC 700F            	  2064:     moveq   #15,D0
02:000010CE 610025DE        	  2065:     bsr     SetMMC1Control
02:000010D2 7002            	  2066:     moveq   #2,D0
02:000010D4 610025F6        	  2067:     bsr     SwitchBank
02:000010D8 4EF83792        	  2068:     jmp     InitMode13_Full
                            	  2069: 
                            	  2070:     even
                            	  2071: InitMode3:
02:000010DC 7005            	  2072:     moveq   #5,D0
02:000010DE 610025EC        	  2073:     bsr     SwitchBank
02:000010E2 6100F978        	  2074:     bsr     TurnOffAllVideo
02:000010E6 102C0013        	  2075:     move.b  ($0013,A4),D0
02:000010EA 6100F570        	  2076:     bsr     _m68k_tablejump  ; M68K-native table dispatch (replaces JSR TableJump)
                            	  2077:     even
                            	  2078: InitMode3_JumpTable:
02:000010EE 00001112        	  2079:     dc.l    InitMode3_Sub0   ; NES addr vector (32-bit for M68K)
02:000010F2 0000113A        	  2080:     dc.l    InitMode3_Sub1   ; NES addr vector (32-bit for M68K)
02:000010F6 00003886        	  2081:     dc.l    InitMode3_Sub2   ; NES addr vector (32-bit for M68K)
02:000010FA 00003888        	  2082:     dc.l    InitMode3_Sub3_TransferTopHalfAttrs   ; NES addr vector (32-bit for M68K)
02:000010FE 0000388A        	  2083:     dc.l    InitMode3_Sub4_TransferBottomHalfAttrs   ; NES addr vector (32-bit for M68K)
02:00001102 0000388C        	  2084:     dc.l    InitMode3_Sub5   ; NES addr vector (32-bit for M68K)
02:00001106 0000388E        	  2085:     dc.l    InitMode3_Sub6   ; NES addr vector (32-bit for M68K)
02:0000110A 00003890        	  2086:     dc.l    InitMode3_Sub7   ; NES addr vector (32-bit for M68K)
02:0000110E 00003892        	  2087:     dc.l    InitMode3_Sub8   ; NES addr vector (32-bit for M68K)
                            	  2088: 
                            	  2089:     even
                            	  2090: InitMode3_Sub0:
02:00001112 7001            	  2091:     moveq   #1,D0
02:00001114 19400017        	  2092:     move.b  D0,($0017,A4)
02:00001118 522C0013        	  2093:     addq.b  #1,($0013,A4)
02:0000111C 6100F648        	  2094:     bsr     TurnOffVideoAndClearArtifacts
                            	  2095: ; Returns:
                            	  2096: ; A: 0
                            	  2097: ;
                            	  2098: ; TODO: Also resets [0529].
                            	  2099: ;
                            	  2100:     even
                            	  2101: ClearRoomHistory:
02:00001120 7605            	  2102:     moveq   #5,D3
02:00001122 7000            	  2103:     moveq   #0,D0
                            	  2104:     ; TODO: [$0529]?
                            	  2105:     ; From Loz/ItemObj.cpp:
                            	  2106:     ;                // The original game skips checking hearts, and shoots, if [$529] is set.
                            	  2107:     ;                // But, I haven't found any code that sets it.
                            	  2108:     ;
02:00001124 19400529        	  2109:     move.b  D0,($0529,A4)
                            	  2110:     even
                            	  2111: _L_z07_ClearRoomHistory_Loop:
                            	  2112:     ; Clear the room history.
                            	  2113:     ;
02:00001128 41EC0621        	  2114:     lea     ($0621,A4),A0
02:0000112C 11803000        	  2115:     move.b  D0,(A0,D3.W)
02:00001130 5303            	  2116:     subq.b  #1,D3
02:00001132 6AF4            	  2117:     bpl  _L_z07_ClearRoomHistory_Loop
02:00001134 4E75            	  2118:     rts
                            	  2119: 
                            	  2120: ; Each element is the offset of a palette row starting from
                            	  2121: ; row 4. Index by save slot number.
                            	  2122:     even
                            	  2123: SaveSlotToPaletteRowOffset:
02:00001136 00              	  2124:     dc.b    $00, $04, $08
02:00001137 04
02:00001138 08
                            	  2125: 
                            	  2126:     even
                            	  2127: InitMode3_Sub1:
02:0000113A 102C0010        	  2128:     move.b  ($0010,A4),D0
02:0000113E 660A            	  2129:     bne  _L_z07_InitMode3_Sub1_UseStartRoomId
02:00001140 102C0526        	  2130:     move.b  ($0526,A4),D0
02:00001144 0C0000FF        	  2131:     cmpi.b  #$FF,D0
02:00001148 6606            	  2132:     bne  _L_z07_InitMode3_Sub1_SetRoomId
                            	  2133:     even
                            	  2134: _L_z07_InitMode3_Sub1_UseStartRoomId:
02:0000114A 103900FF6BAD    	  2135:     move.b  (NES_SRAM+$0BAD).l,D0
                            	  2136:     even
                            	  2137: _L_z07_InitMode3_Sub1_SetRoomId:
02:00001150 194000EB        	  2138:     move.b  D0,($00EB,A4)
02:00001154 122C0526        	  2139:     move.b  ($0526,A4),D1
02:00001158 B001            	  2140:     cmp.b   D1,D0
02:0000115A 6608            	  2141:     bne  PatchAndCueLevelPalettesTransferAndAdvanceSubmode
02:0000115C 103C00FF        	  2142:     move.b  #$FF,D0
02:00001160 19400526        	  2143:     move.b  D0,($0526,A4)
                            	  2144:     even
                            	  2145: PatchAndCueLevelPalettesTransferAndAdvanceSubmode:
02:00001164 142C0016        	  2146:     move.b  ($0016,A4),D2
02:00001168 41F900001136    	  2147:     lea     (SaveSlotToPaletteRowOffset).l,A0
02:0000116E 16302000        	  2148:     move.b  (A0,D2.W),D3
                            	  2149:     ; Get the color at byte 1 of row 4, 5, or 6 of menu palettes,
                            	  2150:     ; according to save slot. This holds Link's color in that
                            	  2151:     ; save slot.
02:00001172 41F9000038E0    	  2152:     lea     (MenuPalettesTransferBuf+20).l,A0
02:00001178 10303000        	  2153:     move.b  (A0,D3.W),D0
                            	  2154:     ; Put the value in byte 1 of row 4 of level palettes that will
                            	  2155:     ; be transferred.
02:0000117C 13C000FF6B92    	  2156:     move.b  D0,(NES_SRAM+$0B92).l
02:00001182 7018            	  2157:     moveq   #24,D0
02:00001184 19400014        	  2158:     move.b  D0,($0014,A4)
02:00001188 522C0013        	  2159:     addq.b  #1,($0013,A4)
02:0000118C 4E75            	  2160:     rts
                            	  2161: 
                            	  2162:     even
                            	  2163: DrawSpritesBetweenRooms:
02:0000118E 6100F86C        	  2164:     bsr     HideAllSprites
02:00001192 610025EE        	  2165:     bsr     UpdatePlayerPositionMarker
02:00001196 6100F978        	  2166:     bsr     UpdateTriforcePositionMarker
02:0000119A 7005            	  2167:     moveq   #5,D0
02:0000119C 6100252E        	  2168:     bsr     SwitchBank
02:000011A0 610026D2        	  2169:     bsr     DrawLinkBetweenRooms
02:000011A4 4EF80CFE        	  2170:     jmp     DrawStatusBarItemsAndEnsureItemSelected
                            	  2171: 
                            	  2172:     even
                            	  2173: ResetPlayerState:
02:000011A8 7000            	  2174:     moveq   #0,D0
02:000011AA 194000AC        	  2175:     move.b  D0,($00AC,A4)
02:000011AE 1940066C        	  2176:     move.b  D0,($066C,A4)
02:000011B2 4E75            	  2177:     rts
                            	  2178: 
                            	  2179:     even
                            	  2180: SpecialBossPaletteTransferBufSelectors:
02:000011B4 08              	  2181:     dc.b    $08, $36, $0A, $0A, $0A, $0A, $7C, $7C
02:000011B5 36
02:000011B6 0A
02:000011B7 0A
02:000011B8 0A
02:000011B9 0A
02:000011BA 7C
02:000011BB 7C
02:000011BC 7C              	  2182:     dc.b    $7C
                            	  2183: 
                            	  2184:     even
                            	  2185: SpecialBossPaletteObjTypes:
02:000011BE 3D              	  2186:     dc.b    $3D, $3E, $38, $39, $32, $31, $43, $44
02:000011BF 3E
02:000011C0 38
02:000011C1 39
02:000011C2 32
02:000011C3 31
02:000011C4 43
02:000011C5 44
02:000011C6 45              	  2187:     dc.b    $45
                            	  2188: 
                            	  2189:     even
                            	  2190: InitMode5Play:
02:000011C8 61C4            	  2191:     bsr     DrawSpritesBetweenRooms
02:000011CA 61000CEC        	  2192:     bsr     Link_EndMoveAndAnimate
02:000011CE 102C0010        	  2193:     move.b  ($0010,A4),D0
02:000011D2 6726            	  2194:     beq  _L_z07_InitMode5Play_InOW
                            	  2195:     ; In UW.
                            	  2196:     ;
                            	  2197:     ; Certain bosses and boss-like monsters need
                            	  2198:     ; their own palettes. If we're dealing with one, then get
                            	  2199:     ; the matching transfer buffer selector.
                            	  2200:     ;
02:000011D4 7608            	  2201:     moveq   #8,D3
02:000011D6 102C0350        	  2202:     move.b  ($0350,A4),D0
                            	  2203:     even
                            	  2204: _L_z07_InitMode5Play_FindSpecialBoss:
02:000011DA 41F9000011BE    	  2205:     lea     (SpecialBossPaletteObjTypes).l,A0
02:000011E0 12303000        	  2206:     move.b  (A0,D3.W),D1
02:000011E4 B001            	  2207:     cmp.b   D1,D0
02:000011E6 660C            	  2208:     bne  _L_z07_InitMode5Play_NextSpecialBoss
02:000011E8 41F9000011B4    	  2209:     lea     (SpecialBossPaletteTransferBufSelectors).l,A0
02:000011EE 14303000        	  2210:     move.b  (A0,D3.W),D2
02:000011F2 666E            	  2211:     bne  _L_z07_InitMode5Play_SelectTransferBufAndFinishInitPlay
                            	  2212:     even
                            	  2213: _L_z07_InitMode5Play_NextSpecialBoss:
02:000011F4 5303            	  2214:     subq.b  #1,D3
02:000011F6 6AE2            	  2215:     bpl  _L_z07_InitMode5Play_FindSpecialBoss
02:000011F8 6B4C            	  2216:     bmi  _L_z07_InitMode5Play_UseLevelPalette
                            	  2217:     even
                            	  2218: _L_z07_InitMode5Play_InOW:
                            	  2219:     ; In OW.
                            	  2220:     ;
                            	  2221:     ; If the room is 0F and we just walked in instead of
                            	  2222:     ; coming out of underground; then play "secret found" tune.
                            	  2223:     ;
02:000011FA 102C00EB        	  2224:     move.b  ($00EB,A4),D0
02:000011FE 0C00000F        	  2225:     cmpi.b  #$0F,D0
02:00001202 660C            	  2226:     bne  _L_z07_InitMode5Play_ChooseTileObjPalette
02:00001204 102C005A        	  2227:     move.b  ($005A,A4),D0
02:00001208 6606            	  2228:     bne  _L_z07_InitMode5Play_ChooseTileObjPalette
02:0000120A 7004            	  2229:     moveq   #4,D0
02:0000120C 19400602        	  2230:     move.b  D0,($0602,A4)
                            	  2231:     even
                            	  2232: _L_z07_InitMode5Play_ChooseTileObjPalette:
                            	  2233:     ; Choose a palette transfer buf for a tile object that has sprites.
                            	  2234:     ; Rock, gravestone, Armos1, Armos2
                            	  2235:     ;
                            	  2236:     ;
                            	  2237:     ; Ghost palette row
02:00001210 7420            	  2238:     moveq   #32,D2
02:00001212 102C035A        	  2239:     move.b  ($035A,A4),D0
02:00001216 0C000065        	  2240:     cmpi.b  #$65,D0
02:0000121A 6746            	  2241:     beq  _L_z07_InitMode5Play_SelectTransferBufAndFinishInitPlay
02:0000121C 0C000066        	  2242:     cmpi.b  #$66,D0
02:00001220 6708            	  2243:     beq  _L_z07_InitMode5Play_UseXOrGreenPalette
02:00001222 0C000062        	  2244:     cmpi.b  #$62,D0
02:00001226 661A            	  2245:     bne  _L_z07_InitMode5Play_UseRedArmosPalette
                            	  2246:     ; It's a rock tile object.
                            	  2247:     ; Choose palette based on inner palette attribute to match it.
                            	  2248:     ;
                            	  2249:     ;
                            	  2250:     ; Brown palette row
02:00001228 7424            	  2251:     moveq   #36,D2
                            	  2252:     even
                            	  2253: _L_z07_InitMode5Play_UseXOrGreenPalette:
02:0000122A 162C00EB        	  2254:     move.b  ($00EB,A4),D3
02:0000122E 41F900FF68FE    	  2255:     lea     (NES_SRAM+$08FE).l,A0
02:00001234 10303000        	  2256:     move.b  (A0,D3.W),D0
02:00001238 02000001        	  2257:     andi.b #$01,D0
02:0000123C 6624            	  2258:     bne  _L_z07_InitMode5Play_SelectTransferBufAndFinishInitPlay
02:0000123E 7422            	  2259:     moveq   #34,D2
02:00001240 6620            	  2260:     bne  _L_z07_InitMode5Play_SelectTransferBufAndFinishInitPlay
                            	  2261:     even
                            	  2262: _L_z07_InitMode5Play_UseRedArmosPalette:
                            	  2263:     ; Tile object is Armos2. Use red Armos palette row.
                            	  2264:     ;
02:00001242 747A            	  2265:     moveq   #122,D2
02:00001244 661C            	  2266:     bne  _L_z07_InitMode5Play_SelectTransferBufAndFinishInitPlay
                            	  2267:     even
                            	  2268: _L_z07_InitMode5Play_UseLevelPalette:
                            	  2269:     ; Patch and cue palette row 7 transfer buf (6) with row 7
                            	  2270:     ; of level palette.
                            	  2271:     ;
02:00001246 7603            	  2272:     moveq   #3,D3
                            	  2273:     even
                            	  2274: _L_z07_InitMode5Play_PatchColors:
02:00001248 41F900FF6B9D    	  2275:     lea     (NES_SRAM+$0B9D).l,A0
02:0000124E 10303000        	  2276:     move.b  (A0,D3.W),D0
02:00001252 41F9000038CD    	  2277:     lea     (LevelPaletteRow7TransferBuf+3).l,A0
02:00001258 11803000        	  2278:     move.b  D0,(A0,D3.W)
02:0000125C 5303            	  2279:     subq.b  #1,D3
02:0000125E 6AE8            	  2280:     bpl  _L_z07_InitMode5Play_PatchColors
02:00001260 7406            	  2281:     moveq   #6,D2
                            	  2282:     even
                            	  2283: _L_z07_InitMode5Play_SelectTransferBufAndFinishInitPlay:
02:00001262 19420014        	  2284:     move.b  D2,($0014,A4)
                            	  2285:     even
                            	  2286: RunCrossRoomTasksAndBeginUpdateMode_PlayModesNoCellar:
                            	  2287:     ; Called in modes 5, $B, $C.
                            	  2288:     ;
02:00001266 7005            	  2289:     moveq   #5,D0
02:00001268 61002462        	  2290:     bsr     SwitchBank
02:0000126C 61002640        	  2291:     bsr     SetupObjRoomBounds
                            	  2292:     even
                            	  2293: RunCrossRoomTasksAndBeginUpdateMode_EnterPlayModes:
                            	  2294:     ; Called in modes 4, 5, 9, $B, $C.
                            	  2295:     ;
02:00001270 102C0010        	  2296:     move.b  ($0010,A4),D0
02:00001274 6708            	  2297:     beq  RunCrossRoomTasksAndBeginUpdateMode
02:00001276 6100F912        	  2298:     bsr     MarkRoomVisited
02:0000127A 61002510        	  2299:     bsr     WriteBlankPrioritySprites
                            	  2300:     even
                            	  2301: RunCrossRoomTasksAndBeginUpdateMode:
                            	  2302:     ; Called in modes 4, 5, 6, 9, $B, $C.
                            	  2303:     ;
02:0000127E 7005            	  2304:     moveq   #5,D0
02:00001280 6100244A        	  2305:     bsr     SwitchBank
02:00001284 610025EA        	  2306:     bsr     CreateRoomObjects
                            	  2307:     ; Look for the current room in room history.
                            	  2308:     ;
02:00001288 7600            	  2309:     moveq   #0,D3
02:0000128A 7405            	  2310:     moveq   #5,D2
02:0000128C 102C00EB        	  2311:     move.b  ($00EB,A4),D0
                            	  2312:     even
                            	  2313: _L_z07_RunCrossRoomTasksAndBeginUpdateMode_LoopHistory:
02:00001290 41EC0621        	  2314:     lea     ($0621,A4),A0
02:00001294 12302000        	  2315:     move.b  (A0,D2.W),D1
02:00001298 B001            	  2316:     cmp.b   D1,D0
02:0000129A 6602            	  2317:     bne  _anon_z07_8
02:0000129C 5203            	  2318:     addq.b  #1,D3
                            	  2319: _anon_z07_8:
02:0000129E 5302            	  2320:     subq.b  #1,D2
02:000012A0 6AEE            	  2321:     bpl  _L_z07_RunCrossRoomTasksAndBeginUpdateMode_LoopHistory
                            	  2322:     ; If it's not found, then store at the cycling history index.
                            	  2323:     ;
02:000012A2 4A03            	  2324:     cmpi.b  #$00,D3
02:000012A4 6620            	  2325:     bne  _L_z07_RunCrossRoomTasksAndBeginUpdateMode_RunTasksMode5
02:000012A6 142C0620        	  2326:     move.b  ($0620,A4),D2
02:000012AA 41EC0621        	  2327:     lea     ($0621,A4),A0
02:000012AE 11802000        	  2328:     move.b  D0,(A0,D2.W)
02:000012B2 522C0620        	  2329:     addq.b  #1,($0620,A4)
02:000012B6 102C0620        	  2330:     move.b  ($0620,A4),D0
02:000012BA 0C000006        	  2331:     cmpi.b  #$06,D0
02:000012BE 6506            	  2332:     bcs  _L_z07_RunCrossRoomTasksAndBeginUpdateMode_RunTasksMode5
02:000012C0 7000            	  2333:     moveq   #0,D0
02:000012C2 19400620        	  2334:     move.b  D0,($0620,A4)
                            	  2335:     even
                            	  2336: _L_z07_RunCrossRoomTasksAndBeginUpdateMode_RunTasksMode5:
                            	  2337:     ; If not in mode 5, go start updating the mode.
                            	  2338:     ;
02:000012C6 102C0012        	  2339:     move.b  ($0012,A4),D0
02:000012CA 0C000005        	  2340:     cmpi.b  #$05,D0
02:000012CE 6610            	  2341:     bne  _L_z07_RunCrossRoomTasksAndBeginUpdateMode_BeginUpdate
                            	  2342:     ; Run cross-room tasks that apply only to mode 5.
                            	  2343:     ;
02:000012D0 102C0010        	  2344:     move.b  ($0010,A4),D0
02:000012D4 670E            	  2345:     beq  _L_z07_RunCrossRoomTasksAndBeginUpdateMode_CheckWhirlwind
02:000012D6 7005            	  2346:     moveq   #5,D0
02:000012D8 610023F2        	  2347:     bsr     SwitchBank
02:000012DC 61002582        	  2348:     bsr     CheckBossSoundEffectUW
                            	  2349:     even
                            	  2350: _L_z07_RunCrossRoomTasksAndBeginUpdateMode_BeginUpdate:
02:000012E0 4EF83746        	  2351:     jmp     BeginUpdateMode
                            	  2352: 
                            	  2353:     even
                            	  2354: _L_z07_RunCrossRoomTasksAndBeginUpdateMode_CheckWhirlwind:
02:000012E4 7001            	  2355:     moveq   #1,D0
02:000012E6 610023E4        	  2356:     bsr     SwitchBank
02:000012EA 4EF83708        	  2357:     jmp     CheckInitWhirlwindAndBeginUpdate
                            	  2358: 
                            	  2359: ; Unknown block
02:000012EE FF              	  2360:     dc.b    $FF, $FF, $FF, $FF, $FF, $FF
02:000012EF FF
02:000012F0 FF
02:000012F1 FF
02:000012F2 FF
02:000012F3 FF
                            	  2361: 
                            	  2362:     even
                            	  2363: UpdateMode:
02:000012F4 7002            	  2364:     moveq   #2,D0
02:000012F6 610023D4        	  2365:     bsr     SwitchBank
02:000012FA 102C0012        	  2366:     move.b  ($0012,A4),D0
02:000012FE 6100F35C        	  2367:     bsr     _m68k_tablejump  ; M68K-native table dispatch (replaces JSR TableJump)
                            	  2368:     even
                            	  2369: UpdateMode_JumpTable:
02:00001302 00003798        	  2370:     dc.l    UpdateMode0Demo   ; NES addr vector (32-bit for M68K)
02:00001306 0000379C        	  2371:     dc.l    UpdateMode1Menu   ; NES addr vector (32-bit for M68K)
02:0000130A 00001396        	  2372:     dc.l    UpdateMode2Load   ; NES addr vector (32-bit for M68K)
02:0000130E 000013B4        	  2373:     dc.l    UpdateMode3Unfurl   ; NES addr vector (32-bit for M68K)
02:00001312 000013D2        	  2374:     dc.l    UpdateMode4and6EnterLeave   ; NES addr vector (32-bit for M68K)
02:00001316 0000145A        	  2375:     dc.l    UpdateMode5Play   ; NES addr vector (32-bit for M68K)
02:0000131A 000013D2        	  2376:     dc.l    UpdateMode4and6EnterLeave   ; NES addr vector (32-bit for M68K)
02:0000131E 00001352        	  2377:     dc.l    UpdateMode7Scroll   ; NES addr vector (32-bit for M68K)
02:00001322 0000136E        	  2378:     dc.l    UpdateMode8ContinueQuestion   ; NES addr vector (32-bit for M68K)
02:00001326 0000145A        	  2379:     dc.l    UpdateMode5Play   ; NES addr vector (32-bit for M68K)
02:0000132A 0000145A        	  2380:     dc.l    UpdateMode5Play   ; NES addr vector (32-bit for M68K)
02:0000132E 0000145A        	  2381:     dc.l    UpdateMode5Play   ; NES addr vector (32-bit for M68K)
02:00001332 0000145A        	  2382:     dc.l    UpdateMode5Play   ; NES addr vector (32-bit for M68K)
02:00001336 0000379E        	  2383:     dc.l    UpdateModeDSave   ; NES addr vector (32-bit for M68K)
02:0000133A 000037A0        	  2384:     dc.l    UpdateModeERegister   ; NES addr vector (32-bit for M68K)
02:0000133E 000037A2        	  2385:     dc.l    UpdateModeFElimination   ; NES addr vector (32-bit for M68K)
02:00001342 00001378        	  2386:     dc.l    UpdateMode10Stairs   ; NES addr vector (32-bit for M68K)
02:00001346 00001382        	  2387:     dc.l    UpdateMode11Death   ; NES addr vector (32-bit for M68K)
02:0000134A 0000138C        	  2388:     dc.l    UpdateMode12EndLevel   ; NES addr vector (32-bit for M68K)
02:0000134E 0000379A        	  2389:     dc.l    UpdateMode13WinGame   ; NES addr vector (32-bit for M68K)
                            	  2390: 
                            	  2391:     even
                            	  2392: UpdateMode7Scroll:
02:00001352 7005            	  2393:     moveq   #5,D0
02:00001354 61002376        	  2394:     bsr     SwitchBank
02:00001358 61002560        	  2395:     bsr     UpdateMode7SubmodeAndDrawLink
02:0000135C 102C00E3        	  2396:     move.b  ($00E3,A4),D0
02:00001360 660A            	  2397:     bne  _L_z07_UpdateMode7Scroll_Exit
02:00001362 194000F3        	  2398:     move.b  D0,($00F3,A4)
02:00001366 700F            	  2399:     moveq   #15,D0
02:00001368 61002344        	  2400:     bsr     SetMMC1Control
                            	  2401:     even
                            	  2402: _L_z07_UpdateMode7Scroll_Exit:
02:0000136C 4E75            	  2403:     rts
                            	  2404: 
                            	  2405:     even
                            	  2406: UpdateMode8ContinueQuestion:
02:0000136E 7005            	  2407:     moveq   #5,D0
02:00001370 6100235A        	  2408:     bsr     SwitchBank
02:00001374 4EF838BC        	  2409:     jmp     UpdateMode8ContinueQuestion_Full
                            	  2410: 
                            	  2411:     even
                            	  2412: UpdateMode10Stairs:
02:00001378 7005            	  2413:     moveq   #5,D0
02:0000137A 61002350        	  2414:     bsr     SwitchBank
02:0000137E 4EF838B4        	  2415:     jmp     UpdateMode10Stairs_Full
                            	  2416: 
                            	  2417:     even
                            	  2418: UpdateMode11Death:
02:00001382 7005            	  2419:     moveq   #5,D0
02:00001384 61002346        	  2420:     bsr     SwitchBank
02:00001388 4EF838B6        	  2421:     jmp     UpdateMode11Death_Full
                            	  2422: 
                            	  2423:     even
                            	  2424: UpdateMode12EndLevel:
02:0000138C 7005            	  2425:     moveq   #5,D0
02:0000138E 6100233C        	  2426:     bsr     SwitchBank
02:00001392 4EF838B8        	  2427:     jmp     UpdateMode12EndLevel_Full
                            	  2428: 
                            	  2429:     even
                            	  2430: UpdateMode2Load:
02:00001396 6100F6C4        	  2431:     bsr     TurnOffAllVideo
02:0000139A 7006            	  2432:     moveq   #6,D0
02:0000139C 6100232E        	  2433:     bsr     SwitchBank
02:000013A0 61002526        	  2434:     bsr     UpdateMode2Load_Full
                            	  2435: ; Returns:
                            	  2436: ; A: zero
                            	  2437: ;
                            	  2438:     even
                            	  2439: GoToNextMode:
02:000013A4 522C0012        	  2440:     addq.b  #1,($0012,A4)
                            	  2441: ; Sets IsUpdatingMode to 0.
                            	  2442: ; Sets submode to 0.
                            	  2443: ;
                            	  2444: ; Returns:
                            	  2445: ; A: 0
                            	  2446: ;
                            	  2447:     even
                            	  2448: EndGameMode:
02:000013A8 7000            	  2449:     moveq   #0,D0
02:000013AA 19400011        	  2450:     move.b  D0,($0011,A4)
02:000013AE 19400013        	  2451:     move.b  D0,($0013,A4)
02:000013B2 4E75            	  2452:     rts
                            	  2453: 
                            	  2454:     even
                            	  2455: UpdateMode3Unfurl:
02:000013B4 610023D0        	  2456:     bsr     UpdateWorldCurtainEffect
02:000013B8 102C007C        	  2457:     move.b  ($007C,A4),D0
02:000013BC 6664            	  2458:     bne  L1EBF8_Exit
02:000013BE 700F            	  2459:     moveq   #15,D0
02:000013C0 610022EC        	  2460:     bsr     SetMMC1Control
02:000013C4 102C005A        	  2461:     move.b  ($005A,A4),D0
02:000013C8 6704            	  2462:     beq  _anon_z07_9
02:000013CA 4EF8141C        	  2463:     jmp     GoToNextModeResetGridOffset
                            	  2464: 
                            	  2465: _anon_z07_9:
02:000013CE 4EF8140A        	  2466:     jmp     GoToNextModePlayLevelSong
                            	  2467: 
                            	  2468:     even
                            	  2469: UpdateMode4and6EnterLeave:
02:000013D2 102C005A        	  2470:     move.b  ($005A,A4),D0
02:000013D6 664C            	  2471:     bne  StepOutside
                            	  2472:     ; We're walking from room to room:
                            	  2473:     ; * entering in mode 4 (method 2)
                            	  2474:     ; * leaving in mode 6
                            	  2475:     ;
                            	  2476:     ;
                            	  2477:     ; If relative position reaches 0, 8, or -8; then go to the next mode.
02:000013D8 102C0394        	  2478:     move.b  ($0394,A4),D0
02:000013DC 673E            	  2479:     beq  GoToNextModeResetGridOffset
02:000013DE 0C000008        	  2480:     cmpi.b  #$08,D0
02:000013E2 6738            	  2481:     beq  GoToNextModeResetGridOffset
02:000013E4 0C0000F8        	  2482:     cmpi.b  #$F8,D0
02:000013E8 6732            	  2483:     beq  GoToNextModeResetGridOffset
02:000013EA 102C0098        	  2484:     move.b  ($0098,A4),D0
02:000013EE 194003F8        	  2485:     move.b  D0,($03F8,A4)
02:000013F2 1940000F        	  2486:     move.b  D0,($000F,A4)
02:000013F6 7400            	  2487:     moveq   #0,D2
02:000013F8 610007F2        	  2488:     bsr     MoveObject
02:000013FC 4EF816D2        	  2489:     jmp     Link_EndMoveAndAnimateInRoom
                            	  2490: 
                            	  2491:     even
                            	  2492: LevelSongIds:
02:00001400 01              	  2493:     dc.b    $01, $40, $40, $40, $40, $40, $40, $40
02:00001401 40
02:00001402 40
02:00001403 40
02:00001404 40
02:00001405 40
02:00001406 40
02:00001407 40
02:00001408 40              	  2494:     dc.b    $40, $20
02:00001409 20
                            	  2495: 
                            	  2496:     even
                            	  2497: GoToNextModePlayLevelSong:
02:0000140A 162C0010        	  2498:     move.b  ($0010,A4),D3
02:0000140E 41F900001400    	  2499:     lea     (LevelSongIds).l,A0
02:00001414 10303000        	  2500:     move.b  (A0,D3.W),D0
02:00001418 19400600        	  2501:     move.b  D0,($0600,A4)
                            	  2502:     even
                            	  2503: GoToNextModeResetGridOffset:
02:0000141C 6186            	  2504:     bsr     GoToNextMode
02:0000141E 19400394        	  2505:     move.b  D0,($0394,A4)
                            	  2506:     even
                            	  2507: L1EBF8_Exit:
02:00001422 4E75            	  2508:     rts
                            	  2509: 
                            	  2510:     even
                            	  2511: StepOutside:
                            	  2512:     ; We're stepping out of underground or cellar.
                            	  2513:     ;
                            	  2514:     ;
                            	  2515:     ; If in UW, then go finish the mode.
                            	  2516:     ;
02:00001424 102C0010        	  2517:     move.b  ($0010,A4),D0
02:00001428 66E0            	  2518:     bne  GoToNextModePlayLevelSong
                            	  2519:     ; If the player stepped on stairs instead of an opening, then
                            	  2520:     ; go finish the mode.
                            	  2521:     ;
02:0000142A 102C0065        	  2522:     move.b  ($0065,A4),D0
02:0000142E 0C000024        	  2523:     cmpi.b  #$24,D0
02:00001432 66D6            	  2524:     bne  GoToNextModePlayLevelSong
                            	  2525:     ; We're entering the OW room from a cave or dungeon.
                            	  2526:     ;
02:00001434 7005            	  2527:     moveq   #5,D0
02:00001436 61002294        	  2528:     bsr     SwitchBank
02:0000143A 6100241E        	  2529:     bsr     AnimateAndDrawLinkBehindBackground
                            	  2530:     ; Every 4 frames, move Link up 1 pixel.
                            	  2531:     ;
02:0000143E 102C0015        	  2532:     move.b  ($0015,A4),D0
02:00001442 02000003        	  2533:     andi.b #$03,D0
02:00001446 6610            	  2534:     bne  _L_z07_StepOutside_Exit
02:00001448 532C0084        	  2535:     subq.b  #1,($0084,A4)
02:0000144C 102C0084        	  2536:     move.b  ($0084,A4),D0
02:00001450 122C0412        	  2537:     move.b  ($0412,A4),D1
02:00001454 B001            	  2538:     cmp.b   D1,D0
02:00001456 67B2            	  2539:     beq  GoToNextModePlayLevelSong
                            	  2540:     even
                            	  2541: _L_z07_StepOutside_Exit:
02:00001458 4E75            	  2542:     rts
                            	  2543: 
                            	  2544:     even
                            	  2545: UpdateMode5Play:
                            	  2546:     ; While the flute timer has not expired, return.
                            	  2547:     ;
02:0000145A 102C003C        	  2548:     move.b  ($003C,A4),D0
02:0000145E 66C2            	  2549:     bne  L1EBF8_Exit
                            	  2550:     ; If brightening the room, then animate it.
                            	  2551:     ;
02:00001460 102C051E        	  2552:     move.b  ($051E,A4),D0
02:00001464 670A            	  2553:     beq  _L_z07_UpdateMode5Play_CheckMenuAndPause
02:00001466 7004            	  2554:     moveq   #4,D0
02:00001468 61002262        	  2555:     bsr     SwitchBank
02:0000146C 4EF837FC        	  2556:     jmp     UpdateCandle
                            	  2557: 
                            	  2558:     even
                            	  2559: _L_z07_UpdateMode5Play_CheckMenuAndPause:
                            	  2560:     ; Check menu and pause.
                            	  2561:     ;
02:00001470 102C00E1        	  2562:     move.b  ($00E1,A4),D0
02:00001474 663C            	  2563:     bne  _L_z07_UpdateMode5Play_CheckMenu
02:00001476 102C00E0        	  2564:     move.b  ($00E0,A4),D0
02:0000147A 0C000002        	  2565:     cmpi.b  #$02,D0
02:0000147E 671E            	  2566:     beq  _L_z07_UpdateMode5Play_CheckPaused
                            	  2567:     ; Not paused or paused voluntarily.
                            	  2568:     ; Check Select button.
                            	  2569:     ;
02:00001480 102C00F8        	  2570:     move.b  ($00F8,A4),D0
02:00001484 02000020        	  2571:     andi.b #$20,D0
02:00001488 6714            	  2572:     beq  _L_z07_UpdateMode5Play_CheckPaused
02:0000148A 102C00E0        	  2573:     move.b  ($00E0,A4),D0
02:0000148E 0A000001        	  2574:     eori.b #$01,D0
02:00001492 194000E0        	  2575:     move.b  D0,($00E0,A4)
02:00001496 6606            	  2576:     bne  _L_z07_UpdateMode5Play_CheckPaused
02:00001498 700F            	  2577:     moveq   #15,D0
02:0000149A 6100F1BC        	  2578:     bsr     _apu_write_4015  ; APU/IO write
                            	  2579:     even
                            	  2580: _L_z07_UpdateMode5Play_CheckPaused:
                            	  2581:     ; If paused, then make sure to use NT 0,
                            	  2582:     ; update hearts and rupees, and return.
                            	  2583:     ;
02:0000149E 102C00E0        	  2584:     move.b  ($00E0,A4),D0
02:000014A2 670E            	  2585:     beq  _L_z07_UpdateMode5Play_CheckMenu
02:000014A4 7005            	  2586:     moveq   #5,D0
02:000014A6 61002224        	  2587:     bsr     SwitchBank
02:000014AA 61002400        	  2588:     bsr     MaskCurPpuMaskGrayscale
02:000014AE 4EF81684        	  2589:     jmp     UpdateHeartsAndRupees
                            	  2590: 
                            	  2591:     even
                            	  2592: _L_z07_UpdateMode5Play_CheckMenu:
                            	  2593:     ; Not paused.
                            	  2594:     ;
02:000014B2 610022AC        	  2595:     bsr     HideObjectSprites
02:000014B6 102C00FA        	  2596:     move.b  ($00FA,A4),D0
02:000014BA 0200000F        	  2597:     andi.b #$0F,D0
02:000014BE 194003F8        	  2598:     move.b  D0,($03F8,A4)
02:000014C2 102C00E1        	  2599:     move.b  ($00E1,A4),D0
02:000014C6 670E            	  2600:     beq  _L_z07_UpdateMode5Play_NotInMenu
                            	  2601:     ; In submenu.
                            	  2602:     ;
02:000014C8 7005            	  2603:     moveq   #5,D0
02:000014CA 61002200        	  2604:     bsr     SwitchBank
02:000014CE 610023DC        	  2605:     bsr     MaskCurPpuMaskGrayscale
02:000014D2 4EF838B2        	  2606:     jmp     UpdateMenuAndMeters
                            	  2607: 
                            	  2608:     even
                            	  2609: _L_z07_UpdateMode5Play_NotInMenu:
                            	  2610:     ; Not in submenu.
                            	  2611:     ;
02:000014D6 102C00F8        	  2612:     move.b  ($00F8,A4),D0
02:000014DA 02000010        	  2613:     andi.b #$10,D0
02:000014DE 6706            	  2614:     beq  BeginUpdateWorld
02:000014E0 522C00E1        	  2615:     addq.b  #1,($00E1,A4)
02:000014E4 4E75            	  2616:     rts
                            	  2617: 
                            	  2618:     even
                            	  2619: BeginUpdateWorld:
                            	  2620:     ; If we have the clock, then
                            	  2621:     ; force the player's invincibility.
02:000014E6 102C066C        	  2622:     move.b  ($066C,A4),D0
02:000014EA 6712            	  2623:     beq  _L_z07_BeginUpdateWorld_NotInvincible
02:000014EC 102C04F0        	  2624:     move.b  ($04F0,A4),D0
02:000014F0 023C00EE        	  2625:     andi.b  #$EE,CCR  ; CLC: clear C+X
02:000014F4 123C0010        	  2626:     move.b  #$10,D1
02:000014F8 D101            	  2627:     addx.b  D1,D0   ; ADC #$10 (X flag = 6502 C)
02:000014FA 194004F0        	  2628:     move.b  D0,($04F0,A4)
                            	  2629:     even
                            	  2630: _L_z07_BeginUpdateWorld_NotInvincible:
                            	  2631:     ; Update the player.
                            	  2632:     ;
02:000014FE 6100019E        	  2633:     bsr     UpdatePlayer
02:00001502 102C0011        	  2634:     move.b  ($0011,A4),D0
02:00001506 6604            	  2635:     bne  _L_z07_BeginUpdateWorld_CheckChaseTarget
02:00001508 4EF81674        	  2636:     jmp     _L_z07_BeginUpdateWorld_FinishUpdatePlay
                            	  2637: 
                            	  2638:     even
                            	  2639: _L_z07_BeginUpdateWorld_CheckChaseTarget:
                            	  2640:     ; If Link can be chased, then set his coordinates as the target.
                            	  2641:     ;
02:0000150C 102C0060        	  2642:     move.b  ($0060,A4),D0
02:00001510 6610            	  2643:     bne  _L_z07_BeginUpdateWorld_UpdateWeapons
02:00001512 102C0070        	  2644:     move.b  ($0070,A4),D0
02:00001516 19400061        	  2645:     move.b  D0,($0061,A4)
02:0000151A 102C0084        	  2646:     move.b  ($0084,A4),D0
02:0000151E 19400062        	  2647:     move.b  D0,($0062,A4)
                            	  2648:     even
                            	  2649: _L_z07_BeginUpdateWorld_UpdateWeapons:
                            	  2650:     ; Update weapons and items.
                            	  2651:     ;
02:00001522 740D            	  2652:     moveq   #13,D2
02:00001524 61001342        	  2653:     bsr     UpdateSwordOrRod
02:00001528 740E            	  2654:     moveq   #14,D2
02:0000152A 61000BBC        	  2655:     bsr     UpdateSwordShotOrMagicShot
02:0000152E 740F            	  2656:     moveq   #15,D2
02:00001530 61000E16        	  2657:     bsr     UpdateBoomerangOrFood
02:00001534 7410            	  2658:     moveq   #16,D2
02:00001536 61001680        	  2659:     bsr     UpdateBombOrFire
02:0000153A 7411            	  2660:     moveq   #17,D2
02:0000153C 6100167A        	  2661:     bsr     UpdateBombOrFire
02:00001540 7412            	  2662:     moveq   #18,D2
02:00001542 610012EE        	  2663:     bsr     UpdateRodOrArrow
                            	  2664:     ; If it's not time to change the chase target, then
                            	  2665:     ; skip this and go update objects.
                            	  2666:     ;
02:00001546 102C004A        	  2667:     move.b  ($004A,A4),D0
02:0000154A 6636            	  2668:     bne  _L_z07_BeginUpdateWorld_LoopObject
                            	  2669:     ; Set the chase long-timer to a random value between 0 and 7.
                            	  2670:     ;
02:0000154C 102C0019        	  2671:     move.b  ($0019,A4),D0
02:00001550 02000007        	  2672:     andi.b #$07,D0
02:00001554 1940004A        	  2673:     move.b  D0,($004A,A4)
                            	  2674:     ; Switch the flag indicating whether Link is the target.
                            	  2675:     ; If the value is 0 (Link *is* the target), then
                            	  2676:     ; skip this and go update objects.
                            	  2677:     ;
02:00001558 102C0060        	  2678:     move.b  ($0060,A4),D0
02:0000155C 0A000001        	  2679:     eori.b #$01,D0
02:00001560 19400060        	  2680:     move.b  D0,($0060,A4)
02:00001564 671C            	  2681:     beq  _L_z07_BeginUpdateWorld_LoopObject
                            	  2682:     ; If Link's X has not changed since the last frame
                            	  2683:     ; (when Link was the target), then XOR the chase target
                            	  2684:     ; coordinates (which were Link's coordinates last frame).
                            	  2685:     ;
                            	  2686:     ; This ends up reflecting Link's coordinates across the room;
                            	  2687:     ; so that monsters chase away from him.
                            	  2688:     ;
                            	  2689:     ; But if Link's X has changed since the last frame, then
                            	  2690:     ; leave the chase target coordinates with his old coordinates.
                            	  2691:     ;
02:00001566 102C0061        	  2692:     move.b  ($0061,A4),D0
02:0000156A 122C0070        	  2693:     move.b  ($0070,A4),D1
02:0000156E B001            	  2694:     cmp.b   D1,D0
02:00001570 6610            	  2695:     bne  _L_z07_BeginUpdateWorld_LoopObject
02:00001572 4600            	  2696:     eori.b #$FF,D0
02:00001574 19400061        	  2697:     move.b  D0,($0061,A4)
02:00001578 102C0062        	  2698:     move.b  ($0062,A4),D0
02:0000157C 4600            	  2699:     eori.b #$FF,D0
02:0000157E 19400062        	  2700:     move.b  D0,($0062,A4)
                            	  2701:     even
                            	  2702: _L_z07_BeginUpdateWorld_LoopObject:
                            	  2703:     ; Update objects from $B to 1.
                            	  2704:     ;
02:00001582 142C0340        	  2705:     move.b  ($0340,A4),D2
02:00001586 61001FAC        	  2706:     bsr     DecrementInvincibilityTimer
02:0000158A 41EC034F        	  2707:     lea     ($034F,A4),A0
02:0000158E 10302000        	  2708:     move.b  (A0,D2.W),D0
02:00001592 6742            	  2709:     beq  _L_z07_BeginUpdateWorld_NextObject
02:00001594 41EC034F        	  2710:     lea     ($034F,A4),A0
02:00001598 10302000        	  2711:     move.b  (A0,D2.W),D0
02:0000159C 610019D0        	  2712:     bsr     UpdateObject
                            	  2713:     ; If the object is autonomous and not checking collisions itself,
                            	  2714:     ; then see about checking collisions and drawing on its behalf.
                            	  2715:     ;
                            	  2716:     ; Else go loop again.
                            	  2717:     ;
02:000015A0 142C0340        	  2718:     move.b  ($0340,A4),D2
02:000015A4 41EC0405        	  2719:     lea     ($0405,A4),A0
02:000015A8 10302000        	  2720:     move.b  (A0,D2.W),D0
02:000015AC 6628            	  2721:     bne  _L_z07_BeginUpdateWorld_NextObject
02:000015AE 41EC04BF        	  2722:     lea     ($04BF,A4),A0
02:000015B2 10302000        	  2723:     move.b  (A0,D2.W),D0
02:000015B6 02000001        	  2724:     andi.b #$01,D0
02:000015BA 661A            	  2725:     bne  _L_z07_BeginUpdateWorld_NextObject
                            	  2726:     ; If no attribute 1, then it indicates not to skip drawing. So, animate and draw.
                            	  2727:     ;
02:000015BC 41EC04BF        	  2728:     lea     ($04BF,A4),A0
02:000015C0 10302000        	  2729:     move.b  (A0,D2.W),D0
02:000015C4 02000004        	  2730:     andi.b #$04,D0
02:000015C8 6604            	  2731:     bne  _anon_z07_10
02:000015CA 61002176        	  2732:     bsr     AnimateAndDrawObjectWalking
                            	  2733: _anon_z07_10:
                            	  2734:     ; Either way, we'll check collisions.
                            	  2735:     ;
02:000015CE 142C0340        	  2736:     move.b  ($0340,A4),D2
02:000015D2 6100217A        	  2737:     bsr     CheckMonsterCollisions
                            	  2738:     even
                            	  2739: _L_z07_BeginUpdateWorld_NextObject:
                            	  2740:     ; Bottom of the object update loop.
                            	  2741:     ;
02:000015D6 532C0340        	  2742:     subq.b  #1,($0340,A4)
02:000015DA 66A6            	  2743:     bne  _L_z07_BeginUpdateWorld_LoopObject
                            	  2744:     ; Set the current object slot to what it should be when we
                            	  2745:     ; begin updating objects again next frame: $B
                            	  2746:     ; the last object slot for monsters and tile objects
                            	  2747:     ;
                            	  2748:     ; Before the first frame of mode 5, the current object slot variable
                            	  2749:     ; was set to $B in 05:87B9 (InitMode_EnterRoom).
                            	  2750:     ;
                            	  2751:     ; This can also be called the last slot for dynamically allocated objects.
                            	  2752:     ;
02:000015DC 700B            	  2753:     moveq   #11,D0
02:000015DE 19400340        	  2754:     move.b  D0,($0340,A4)
                            	  2755:     ; If full hearts = 0, then only a partial heart is left.
                            	  2756:     ; So, turn on the "heart warning".
                            	  2757:     ;
02:000015E2 102C066F        	  2758:     move.b  ($066F,A4),D0
02:000015E6 0200000F        	  2759:     andi.b #$0F,D0
02:000015EA 660C            	  2760:     bne  _L_z07_BeginUpdateWorld_CheckUW
02:000015EC 102C0604        	  2761:     move.b  ($0604,A4),D0
02:000015F0 00000040        	  2762:     ori.b #$40,D0
02:000015F4 19400604        	  2763:     move.b  D0,($0604,A4)
                            	  2764:     even
                            	  2765: _L_z07_BeginUpdateWorld_CheckUW:
                            	  2766:     ; If in UW, check statues, doors, secrets, and the power triforce.
                            	  2767:     ;
02:000015F8 102C0010        	  2768:     move.b  ($0010,A4),D0
02:000015FC 672E            	  2769:     beq  _L_z07_BeginUpdateWorld_CheckOW
02:000015FE 7004            	  2770:     moveq   #4,D0
02:00001600 610020CA        	  2771:     bsr     SwitchBank
02:00001604 61002244        	  2772:     bsr     UpdateStatues
02:00001608 6100F506        	  2773:     bsr     UpdateTriforcePositionMarker
02:0000160C 7005            	  2774:     moveq   #5,D0
02:0000160E 610020BC        	  2775:     bsr     SwitchBank
02:00001612 61002256        	  2776:     bsr     CheckUnderworldSecrets
02:00001616 6100224E        	  2777:     bsr     CheckShutters
02:0000161A 61002294        	  2778:     bsr     UpdateDoors
02:0000161E 7001            	  2779:     moveq   #1,D0
02:00001620 610020AA        	  2780:     bsr     SwitchBank
02:00001624 610020E6        	  2781:     bsr     CheckPowerTriforceFanfare
02:00001628 4EF8165C        	  2782:     jmp     _L_z07_BeginUpdateWorld_TransferStatusBarMap
                            	  2783: 
                            	  2784:     even
                            	  2785: _L_z07_BeginUpdateWorld_CheckOW:
                            	  2786:     ; In OW.
                            	  2787:     ; If game mode = 5, turn on sea sound effect if the room's
                            	  2788:     ; attributes call for it.
                            	  2789:     ;
02:0000162C 102C0012        	  2790:     move.b  ($0012,A4),D0
02:00001630 0C000005        	  2791:     cmpi.b  #$05,D0
02:00001634 661C            	  2792:     bne  _L_z07_BeginUpdateWorld_CheckZora
02:00001636 162C00EB        	  2793:     move.b  ($00EB,A4),D3
02:0000163A 41F900FF687E    	  2794:     lea     (NES_SRAM+$087E).l,A0
02:00001640 10303000        	  2795:     move.b  (A0,D3.W),D0
02:00001644 02000004        	  2796:     andi.b #$04,D0
02:00001648 E308            	  2797:     lsl.b  #1,D0   ; ASL A
02:0000164A E308            	  2798:     lsl.b  #1,D0   ; ASL A
02:0000164C E308            	  2799:     lsl.b  #1,D0   ; ASL A
02:0000164E 61002122        	  2800:     bsr     PlayEffect
                            	  2801:     even
                            	  2802: _L_z07_BeginUpdateWorld_CheckZora:
                            	  2803:     ; In OW, make a zora, if applicable.
                            	  2804:     ;
02:00001652 7004            	  2805:     moveq   #4,D0
02:00001654 61002076        	  2806:     bsr     SwitchBank
02:00001658 6100214E        	  2807:     bsr     CheckZora
                            	  2808:     even
                            	  2809: _L_z07_BeginUpdateWorld_TransferStatusBarMap:
                            	  2810:     ; If there are tiles or palettes in the dynamic transfer buf, then
                            	  2811:     ; do not handle the status bar map trigger.
                            	  2812:     ;
02:0000165C 102C0301        	  2813:     move.b  ($0301,A4),D0
02:00001660 6612            	  2814:     bne  _L_z07_BeginUpdateWorld_FinishUpdatePlay
                            	  2815:     ; Transfer the level's status bar map, if we got the signal.
                            	  2816:     ;
02:00001662 102C04E5        	  2817:     move.b  ($04E5,A4),D0
02:00001666 670C            	  2818:     beq  _L_z07_BeginUpdateWorld_FinishUpdatePlay
02:00001668 7000            	  2819:     moveq   #0,D0
02:0000166A 194004E5        	  2820:     move.b  D0,($04E5,A4)
02:0000166E 7044            	  2821:     moveq   #68,D0
02:00001670 19400014        	  2822:     move.b  D0,($0014,A4)
                            	  2823:     even
                            	  2824: _L_z07_BeginUpdateWorld_FinishUpdatePlay:
                            	  2825:     ; These actions are done after Link is updated, regardless
                            	  2826:     ; of whether other objects were updated.
                            	  2827:     ;
02:00001674 6100F734        	  2828:     bsr     CheckLiftItem
02:00001678 6100F578        	  2829:     bsr     MoveAndDrawRoomItem
02:0000167C 61002100        	  2830:     bsr     TryTakeRoomItem
02:00001680 6100F67C        	  2831:     bsr     DrawStatusBarItemsAndEnsureItemSelected
                            	  2832:     even
                            	  2833: UpdateHeartsAndRupees:
02:00001684 7005            	  2834:     moveq   #5,D0
02:00001686 61002044        	  2835:     bsr     SwitchBank
02:0000168A 61002234        	  2836:     bsr     World_FillHearts
02:0000168E 4EF8378A        	  2837:     jmp     World_ChangeRupees
                            	  2838: 
                            	  2839: ; Unknown block
02:00001692 FF              	  2840:     dc.b    $FF, $FF, $FF, $FF, $FF, $FF, $FF, $FF
02:00001693 FF
02:00001694 FF
02:00001695 FF
02:00001696 FF
02:00001697 FF
02:00001698 FF
02:00001699 FF
02:0000169A FF              	  2841:     dc.b    $FF, $FF, $FF, $FF
02:0000169B FF
02:0000169C FF
02:0000169D FF
                            	  2842: 
                            	  2843:     even
                            	  2844: UpdatePlayer:
02:0000169E 7400            	  2845:     moveq   #0,D2
02:000016A0 61001E92        	  2846:     bsr     DecrementInvincibilityTimer
                            	  2847:     ; If Link is halted, then return.
                            	  2848:     ;
02:000016A4 102C00AC        	  2849:     move.b  ($00AC,A4),D0
02:000016A8 020000C0        	  2850:     andi.b #$C0,D0
02:000016AC 0C000040        	  2851:     cmpi.b  #$40,D0
02:000016B0 6768            	  2852:     beq  L1EDEA_Exit
                            	  2853:     ; TODO:
                            	  2854:     ;
                            	  2855:     ; If Link is paralyzed (by a like-like), then
                            	  2856:     ; reset input direction.
                            	  2857:     ;
                            	  2858:     ; As far as I can tell, ObjInputDir could have been set to 0,
                            	  2859:     ; instead of masking with $F0 for the same effect.
                            	  2860:     ;
02:000016B2 102C0512        	  2861:     move.b  ($0512,A4),D0
02:000016B6 670C            	  2862:     beq  _anon_z07_11
02:000016B8 102C03F8        	  2863:     move.b  ($03F8,A4),D0
02:000016BC 020000F0        	  2864:     andi.b #$F0,D0
02:000016C0 194003F8        	  2865:     move.b  D0,($03F8,A4)
                            	  2866: _anon_z07_11:
02:000016C4 7005            	  2867:     moveq   #5,D0
02:000016C6 61002004        	  2868:     bsr     SwitchBank
02:000016CA 610021DE        	  2869:     bsr     Link_HandleInput
02:000016CE 61000404        	  2870:     bsr     Walker_Move
                            	  2871:     even
                            	  2872: Link_EndMoveAndAnimateInRoom:
02:000016D2 102C0012        	  2873:     move.b  ($0012,A4),D0
02:000016D6 0C00000A        	  2874:     cmpi.b  #$0A,D0
02:000016DA 673E            	  2875:     beq  L1EDEA_Exit
02:000016DC 610007DA        	  2876:     bsr     Link_EndMoveAndAnimate
02:000016E0 102C0010        	  2877:     move.b  ($0010,A4),D0
02:000016E4 6704            	  2878:     beq  _L_z07_Link_EndMoveAndAnimateInRoom_Exit
02:000016E6 61002092        	  2879:     bsr     ShowLinkSpritesBehindHorizontalDoors
                            	  2880:     even
                            	  2881: _L_z07_Link_EndMoveAndAnimateInRoom_Exit:
02:000016EA 7400            	  2882:     moveq   #0,D2
                            	  2883: ; Params:
                            	  2884: ; X: 0
                            	  2885: ;
                            	  2886: ; Ensure that, if grid offset = 0, then X is a multiple of 8,
                            	  2887: ; and Y is (multiple of 8) OR 5. For example, ($30, $7D) or ($58, $B5).
                            	  2888: ;
                            	  2889:     even
                            	  2890: EnsureObjectAligned:
02:000016EC 41EC0394        	  2891:     lea     ($0394,A4),A0
02:000016F0 10302000        	  2892:     move.b  (A0,D2.W),D0
02:000016F4 6624            	  2893:     bne  L1EDEA_Exit
02:000016F6 10342070        	  2894:     move.b  ($70,A4,D2.W),D0
02:000016FA 020000F8        	  2895:     andi.b #$F8,D0
02:000016FE 19802070        	  2896:     move.b  D0,($70,A4,D2.W)
02:00001702 41EC0084        	  2897:     lea     ($0084,A4),A0
02:00001706 10302000        	  2898:     move.b  (A0,D2.W),D0
02:0000170A 020000F8        	  2899:     andi.b #$F8,D0
02:0000170E 00000005        	  2900:     ori.b #$05,D0
02:00001712 41EC0084        	  2901:     lea     ($0084,A4),A0
02:00001716 11802000        	  2902:     move.b  D0,(A0,D2.W)
                            	  2903:     even
                            	  2904: L1EDEA_Exit:
02:0000171A 4E75            	  2905:     rts
                            	  2906: 
                            	  2907:     even
                            	  2908: WalkableTiles:
02:0000171C 8D              	  2909:     dc.b    $8D, $91, $9C, $AC, $AD, $CC, $D2, $D5
02:0000171D 91
02:0000171E 9C
02:0000171F AC
02:00001720 AD
02:00001721 CC
02:00001722 D2
02:00001723 D5
02:00001724 DF              	  2910:     dc.b    $DF
                            	  2911: 
                            	  2912: ; Params:
                            	  2913: ; X: object index
                            	  2914: ;
                            	  2915: ; Returns:
                            	  2916: ; A: tile
                            	  2917: ; [049E][X]: tile
                            	  2918: ;
                            	  2919:     even
                            	  2920: GetCollidableTileStill:
02:00001726 7600            	  2921:     moveq   #0,D3
02:00001728 1943000F        	  2922:     move.b  D3,($000F,A4)
02:0000172C 6720            	  2923:     beq  GetCollidableTile
                            	  2924: ; Params:
                            	  2925: ; X: object index
                            	  2926: ; [0F]: direction
                            	  2927: ;
                            	  2928: ; Returns:
                            	  2929: ; A: tile
                            	  2930: ; [049E][X]: tile
                            	  2931: ;
                            	  2932: ;
                            	  2933: ; Use -8 ($F8) for the hotspot offset, if it's Link.
                            	  2934:     even
                            	  2935: GetCollidingTileMoving:
02:0000172E 163C00F8        	  2936:     move.b  #$F8,D3
02:00001732 4A02            	  2937:     cmpi.b  #$00,D2
02:00001734 6704            	  2938:     beq  _anon_z07_12
02:00001736 163C00F0        	  2939:     move.b  #$F0,D3
                            	  2940: _anon_z07_12:
                            	  2941:     ; If direction is up, left, or 0,
                            	  2942:     ; then use the offset we determined above.
02:0000173A 102C000F        	  2943:     move.b  ($000F,A4),D0
02:0000173E 02000005        	  2944:     andi.b #$05,D0
02:00001742 670A            	  2945:     beq  GetCollidableTile
                            	  2946:     ; Else if it's down,
                            	  2947:     ; then use offset 8.
02:00001744 7608            	  2948:     moveq   #8,D3
02:00001746 02000004        	  2949:     andi.b #$04,D0
02:0000174A 6602            	  2950:     bne  GetCollidableTile
                            	  2951:     ; For right, use offset $10.
                            	  2952:     ;
02:0000174C 7610            	  2953:     moveq   #16,D3
                            	  2954: ; Params:
                            	  2955: ; X: object index
                            	  2956: ; Y: offset from hotspot
                            	  2957: ; [0F]: direction or 0
                            	  2958: ;
                            	  2959: ; Returns:
                            	  2960: ; A: tile
                            	  2961: ; [049E][X]: tile
                            	  2962: ;
                            	  2963:     even
                            	  2964: GetCollidableTile:
02:0000174E 19430004        	  2965:     move.b  D3,($0004,A4)
02:00001752 41EC0084        	  2966:     lea     ($0084,A4),A0
02:00001756 10302000        	  2967:     move.b  (A0,D2.W),D0
02:0000175A 023C00EE        	  2968:     andi.b  #$EE,CCR  ; CLC: clear C+X
02:0000175E 123C000B        	  2969:     move.b  #$0B,D1
02:00001762 D101            	  2970:     addx.b  D1,D0   ; ADC #$0B (X flag = 6502 C)
02:00001764 1600            	  2971:     move.b  D0,D3
02:00001766 1B00            	  2972:     move.b  D0,-(A5)  ; PHA
02:00001768 102C000F        	  2973:     move.b  ($000F,A4),D0
02:0000176C 0200000C        	  2974:     andi.b #$0C,D0
02:00001770 6722            	  2975:     beq  _L_z07_GetCollidableTile_AdjustX
02:00001772 02000004        	  2976:     andi.b #$04,D0
02:00001776 6706            	  2977:     beq  _L_z07_GetCollidableTile_AdjustY
02:00001778 0C0300DD        	  2978:     cmpi.b  #$DD,D3
02:0000177C 640E            	  2979:     bcc  _L_z07_GetCollidableTile_AsIsX
                            	  2980:     even
                            	  2981: _L_z07_GetCollidableTile_AdjustY:
02:0000177E 101D            	  2982:     move.b  (A5)+,D0  ; PLA
02:00001780 023C00EE        	  2983:     andi.b  #$EE,CCR  ; CLC: clear C+X
02:00001784 122C0004        	  2984:     move.b  ($0004,A4),D1
02:00001788 D101            	  2985:     addx.b  D1,D0   ; ADC $04
02:0000178A 1B00            	  2986:     move.b  D0,-(A5)  ; PHA
                            	  2987:     even
                            	  2988: _L_z07_GetCollidableTile_AsIsX:
                            	  2989:     ; Take the X coordinate as is.
                            	  2990:     ;
02:0000178C 16342070        	  2991:     move.b  ($70,A4,D2.W),D3
02:00001790 4EF817BE        	  2992:     jmp     _L_z07_GetCollidableTile_FetchTile
                            	  2993: 
                            	  2994:     even
                            	  2995: _L_z07_GetCollidableTile_AdjustX:
                            	  2996:     ; Adjust the X coordinate.
                            	  2997:     ;
02:00001794 16342070        	  2998:     move.b  ($70,A4,D2.W),D3
                            	  2999:     ; If direction is left and X coordinate >= $10
                            	  3000:     ; or direction is right and X coordinate < $F0,
02:00001798 102C000F        	  3001:     move.b  ($000F,A4),D0
02:0000179C 02000001        	  3002:     andi.b #$01,D0
02:000017A0 6708            	  3003:     beq  _L_z07_GetCollidableTile_CheckLeftBoundary
02:000017A2 0C0300F0        	  3004:     cmpi.b  #$F0,D3
02:000017A6 6416            	  3005:     bcc  _L_z07_GetCollidableTile_FetchTile
02:000017A8 6406            	  3006:     bcc  _L_z07_GetCollidableTile_AddHotspotOffset
                            	  3007:     even
                            	  3008: _L_z07_GetCollidableTile_CheckLeftBoundary:
02:000017AA 0C030010        	  3009:     cmpi.b  #$10,D3
02:000017AE 650E            	  3010:     bcs  _L_z07_GetCollidableTile_FetchTile
                            	  3011:     even
                            	  3012: _L_z07_GetCollidableTile_AddHotspotOffset:
02:000017B0 1003            	  3013:     move.b  D3,D0
02:000017B2 023C00EE        	  3014:     andi.b  #$EE,CCR  ; CLC: clear C+X
02:000017B6 122C0004        	  3015:     move.b  ($0004,A4),D1
02:000017BA D101            	  3016:     addx.b  D1,D0   ; ADC $04
02:000017BC 1600            	  3017:     move.b  D0,D3
                            	  3018:     even
                            	  3019: _L_z07_GetCollidableTile_FetchTile:
02:000017BE 1003            	  3020:     move.b  D3,D0
02:000017C0 020000F8        	  3021:     andi.b #$F8,D0
                            	  3022:     ; Divide this multiple by 4 to get the offset of the 2-byte address.
                            	  3023:     ;
02:000017C4 E208            	  3024:     lsr.b  #1,D0   ; LSR A
02:000017C6 E208            	  3025:     lsr.b  #1,D0   ; LSR A
02:000017C8 1600            	  3026:     move.b  D0,D3
02:000017CA 41F9000006EA    	  3027:     lea     (PlayAreaColumnAddrs).l,A0
02:000017D0 10303000        	  3028:     move.b  (A0,D3.W),D0
02:000017D4 1880            	  3029:     move.b  D0,($0000,A4)
02:000017D6 41F9000006EB    	  3030:     lea     (PlayAreaColumnAddrs+1).l,A0
02:000017DC 10303000        	  3031:     move.b  (A0,D3.W),D0
02:000017E0 19400001        	  3032:     move.b  D0,($0001,A4)
02:000017E4 101D            	  3033:     move.b  (A5)+,D0  ; PLA
02:000017E6 003C0011        	  3034:     ori.b   #$11,CCR  ; SEC: set C+X
02:000017EA 123C0040        	  3035:     move.b  #$40,D1
02:000017EE 9101            	  3036:     subx.b  D1,D0   ; SBC #$40
02:000017F0 E208            	  3037:     lsr.b  #1,D0   ; LSR A
02:000017F2 E208            	  3038:     lsr.b  #1,D0   ; LSR A
02:000017F4 E208            	  3039:     lsr.b  #1,D0   ; LSR A
02:000017F6 1600            	  3040:     move.b  D0,D3
02:000017F8 1214            	  3041:     move.b  ($00,A4),D1   ; ptr lo
02:000017FA 182C0001        	  3042:     move.b  ($01,A4),D4  ; ptr hi
02:000017FE E14C            	  3043:     lsl.w   #8,D4
02:00001800 8841            	  3044:     or.w    D1,D4             ; D4 = NES ptr addr
02:00001802 48C4            	  3045:     ext.l   D4
02:00001804 D8BC00FF0000    	  3046:     add.l   #NES_RAM,D4       ; → Genesis addr
02:0000180A 2044            	  3047:     movea.l D4,A0
02:0000180C 10303000        	  3048:     move.b  (A0,D3.W),D0     ; LDA ($nn),Y
02:00001810 41EC049E        	  3049:     lea     ($049E,A4),A0
02:00001814 11802000        	  3050:     move.b  D0,(A0,D2.W)
02:00001818 102C000F        	  3051:     move.b  ($000F,A4),D0
02:0000181C 0200000C        	  3052:     andi.b #$0C,D0
02:00001820 673A            	  3053:     beq  _L_z07_GetCollidableTile_CheckWalkable
                            	  3054:     ; The direction in [0F] is vertical. Check the tile in the next column.
                            	  3055:     ; It might be a blocking tile. Blocking tiles are arranged after
                            	  3056:     ; walkable tiles.
                            	  3057:     ;
02:00001822 1003            	  3058:     move.b  D3,D0
02:00001824 023C00EE        	  3059:     andi.b  #$EE,CCR  ; CLC: clear C+X
02:00001828 123C0016        	  3060:     move.b  #$16,D1
02:0000182C D101            	  3061:     addx.b  D1,D0   ; ADC #$16 (X flag = 6502 C)
02:0000182E 1600            	  3062:     move.b  D0,D3
02:00001830 1214            	  3063:     move.b  ($00,A4),D1   ; ptr lo
02:00001832 182C0001        	  3064:     move.b  ($01,A4),D4  ; ptr hi
02:00001836 E14C            	  3065:     lsl.w   #8,D4
02:00001838 8841            	  3066:     or.w    D1,D4             ; D4 = NES ptr addr
02:0000183A 48C4            	  3067:     ext.l   D4
02:0000183C D8BC00FF0000    	  3068:     add.l   #NES_RAM,D4       ; → Genesis addr
02:00001842 2044            	  3069:     movea.l D4,A0
02:00001844 10303000        	  3070:     move.b  (A0,D3.W),D0     ; LDA ($nn),Y
02:00001848 41EC049E        	  3071:     lea     ($049E,A4),A0
02:0000184C 12302000        	  3072:     move.b  (A0,D2.W),D1
02:00001850 B001            	  3073:     cmp.b   D1,D0
02:00001852 6508            	  3074:     bcs  _L_z07_GetCollidableTile_CheckWalkable
02:00001854 41EC049E        	  3075:     lea     ($049E,A4),A0
02:00001858 11802000        	  3076:     move.b  D0,(A0,D2.W)
                            	  3077:     even
                            	  3078: _L_z07_GetCollidableTile_CheckWalkable:
02:0000185C 41EC049E        	  3079:     lea     ($049E,A4),A0
02:00001860 10302000        	  3080:     move.b  (A0,D2.W),D0
02:00001864 162C0010        	  3081:     move.b  ($0010,A4),D3
02:00001868 6660            	  3082:     bne  _L_z07_GetCollidableTile_Exit
                            	  3083:     ; Look for the tile in a list of walkable tiles. If it's found,
                            	  3084:     ; then turn it into $26 to simplify walkability tests.
02:0000186A 41EC049E        	  3085:     lea     ($049E,A4),A0
02:0000186E 10302000        	  3086:     move.b  (A0,D2.W),D0
02:00001872 7609            	  3087:     moveq   #9,D3
                            	  3088:     even
                            	  3089: _L_z07_GetCollidableTile_MatchWalkableTile:
02:00001874 5303            	  3090:     subq.b  #1,D3
02:00001876 6B10            	  3091:     bmi  _L_z07_GetCollidableTile_SetTile
02:00001878 41F90000171C    	  3092:     lea     (WalkableTiles).l,A0
02:0000187E 12303000        	  3093:     move.b  (A0,D3.W),D1
02:00001882 B001            	  3094:     cmp.b   D1,D0
02:00001884 66EE            	  3095:     bne  _L_z07_GetCollidableTile_MatchWalkableTile
                            	  3096:     ; The tile was found in the list. Substitute $26 for it.
                            	  3097:     ;
02:00001886 7026            	  3098:     moveq   #38,D0
                            	  3099:     even
                            	  3100: _L_z07_GetCollidableTile_SetTile:
02:00001888 41EC049E        	  3101:     lea     ($049E,A4),A0
02:0000188C 11802000        	  3102:     move.b  D0,(A0,D2.W)
02:00001890 4A02            	  3103:     cmpi.b  #$00,D2
02:00001892 662E            	  3104:     bne  _L_z07_GetCollidableTile_ReturnTile
02:00001894 102C00EB        	  3105:     move.b  ($00EB,A4),D0
02:00001898 0C00001F        	  3106:     cmpi.b  #$1F,D0
02:0000189C 6624            	  3107:     bne  _L_z07_GetCollidableTile_ReturnTile
02:0000189E 700C            	  3108:     moveq   #12,D0
02:000018A0 122C000F        	  3109:     move.b  ($000F,A4),D1
02:000018A4 C001            	  3110:     and.b  D1,D0
02:000018A6 671A            	  3111:     beq  _L_z07_GetCollidableTile_ReturnTile
                            	  3112:     ; If Link is at X=$80, Y<$56; then set the tile to walkable tile $26.
                            	  3113:     ;
02:000018A8 102C0070        	  3114:     move.b  ($0070,A4),D0
02:000018AC 0C000080        	  3115:     cmpi.b  #$80,D0
02:000018B0 6610            	  3116:     bne  _L_z07_GetCollidableTile_ReturnTile
02:000018B2 102C0084        	  3117:     move.b  ($0084,A4),D0
02:000018B6 0C000056        	  3118:     cmpi.b  #$56,D0
02:000018BA 6406            	  3119:     bcc  _L_z07_GetCollidableTile_ReturnTile
02:000018BC 7026            	  3120:     moveq   #38,D0
02:000018BE 1940049E        	  3121:     move.b  D0,($049E,A4)
                            	  3122:     even
                            	  3123: _L_z07_GetCollidableTile_ReturnTile:
02:000018C2 41EC049E        	  3124:     lea     ($049E,A4),A0
02:000018C6 10302000        	  3125:     move.b  (A0,D2.W),D0
                            	  3126:     even
                            	  3127: _L_z07_GetCollidableTile_Exit:
02:000018CA 4E75            	  3128:     rts
                            	  3129: 
                            	  3130:     even
                            	  3131: Obj_Shove:
                            	  3132:     ; If this is not the first call to this routine for this instance of shoving (high bit is clear),
                            	  3133:     ; then go handle it separately.
                            	  3134:     ;
02:000018CC 41EC00C0        	  3135:     lea     ($00C0,A4),A0
02:000018D0 10302000        	  3136:     move.b  (A0,D2.W),D0
02:000018D4 E308            	  3137:     lsl.b  #1,D0   ; ASL A
02:000018D6 6442            	  3138:     bcc  _L_z07_Obj_Shove_MoveIfNotDone
                            	  3139:     ; Clear the high bit, so we don't repeat this initialization.
                            	  3140:     ;
02:000018D8 E208            	  3141:     lsr.b  #1,D0   ; LSR A
02:000018DA 41EC00C0        	  3142:     lea     ($00C0,A4),A0
02:000018DE 11802000        	  3143:     move.b  D0,(A0,D2.W)
                            	  3144:     ; If the object faces horizontally, go check which axis shove
                            	  3145:     ; direction is on.
                            	  3146:     ;
02:000018E2 41EC0098        	  3147:     lea     ($0098,A4),A0
02:000018E6 16302000        	  3148:     move.b  (A0,D2.W),D3
02:000018EA 0C030003        	  3149:     cmpi.b  #$03,D3
02:000018EE 6522            	  3150:     bcs  _L_z07_Obj_Shove_FacingHorizontally
                            	  3151:     ; The object faces vertically.
                            	  3152:     ;
                            	  3153:     ; If the shove direction is vertical, return. We're OK to shove.
                            	  3154:     ;
02:000018F0 02000003        	  3155:     andi.b #$03,D0
02:000018F4 671A            	  3156:     beq  _L_z07_Obj_Shove_Exit
                            	  3157:     even
                            	  3158: _L_z07_Obj_Shove_CheckPerpendicularShove:
                            	  3159:     ; Allow a perpendicular shove, if grid offset = 0.
                            	  3160:     ;
02:000018F6 41EC0394        	  3161:     lea     ($0394,A4),A0
02:000018FA 10302000        	  3162:     move.b  (A0,D2.W),D0
02:000018FE 6710            	  3163:     beq  _L_z07_Obj_Shove_Exit
                            	  3164:     ; Else change the shove direction.
                            	  3165:     ;
                            	  3166:     ; If the object is not Link, then reset it.
                            	  3167:     ;
02:00001900 4A02            	  3168:     cmpi.b  #$00,D2
02:00001902 6620            	  3169:     bne  ResetShoveInfo
                            	  3170:     ; Since it's Link, shove in the opposite direction that he's facing.
                            	  3171:     ;
02:00001904 102C0098        	  3172:     move.b  ($0098,A4),D0
02:00001908 61001E52        	  3173:     bsr     GetOppositeDir
02:0000190C 194000C0        	  3174:     move.b  D0,($00C0,A4)
                            	  3175:     even
                            	  3176: _L_z07_Obj_Shove_Exit:
02:00001910 4E75            	  3177:     rts
                            	  3178: 
                            	  3179:     even
                            	  3180: _L_z07_Obj_Shove_FacingHorizontally:
                            	  3181:     ; If shove direction is horizontal, return. We're OK to shove.
                            	  3182:     ; Else go check the object's grid offset.
                            	  3183:     ;
02:00001912 0200000C        	  3184:     andi.b #$0C,D0
02:00001916 66DE            	  3185:     bne  _L_z07_Obj_Shove_CheckPerpendicularShove
02:00001918 4E75            	  3186:     rts
                            	  3187: 
                            	  3188:     even
                            	  3189: _L_z07_Obj_Shove_MoveIfNotDone:
                            	  3190:     ; If shove distance hasn't gone down to 0, go move some more.
                            	  3191:     ; Else reset shove info.
                            	  3192:     ;
02:0000191A 41EC00D3        	  3193:     lea     ($00D3,A4),A0
02:0000191E 10302000        	  3194:     move.b  (A0,D2.W),D0
02:00001922 6614            	  3195:     bne  ShoveMoveMin
                            	  3196: ; Returns:
                            	  3197: ; A: 0
                            	  3198: ;
                            	  3199:     even
                            	  3200: ResetShoveInfo:
02:00001924 7000            	  3201:     moveq   #0,D0
                            	  3202: ; Params:
                            	  3203: ; A: 0
                            	  3204: ;
                            	  3205: ; Returns:
                            	  3206: ; A: 0
                            	  3207: ;
                            	  3208:     even
                            	  3209: SetShoveInfoWith0:
02:00001926 41EC00C0        	  3210:     lea     ($00C0,A4),A0
02:0000192A 11802000        	  3211:     move.b  D0,(A0,D2.W)
02:0000192E 41EC00D3        	  3212:     lea     ($00D3,A4),A0
02:00001932 11802000        	  3213:     move.b  D0,(A0,D2.W)
02:00001936 4E75            	  3214:     rts
                            	  3215: 
                            	  3216:     even
                            	  3217: ShoveMoveMin:
                            	  3218:     ; Try to move 4 pixels. [03] is the counter.
                            	  3219:     ;
02:00001938 7004            	  3220:     moveq   #4,D0
02:0000193A 19400003        	  3221:     move.b  D0,($0003,A4)
                            	  3222:     even
                            	  3223: _L_z07_ShoveMoveMin_LoopShovePixel:
                            	  3224:     ; If the object's grid offset = 0, make sure it's aligned to the grid.
                            	  3225:     ; Then, stop shoving if the object hits a tile.
                            	  3226:     ;
02:0000193E 41EC0394        	  3227:     lea     ($0394,A4),A0
02:00001942 10302000        	  3228:     move.b  (A0,D2.W),D0
02:00001946 6620            	  3229:     bne  _L_z07_ShoveMoveMin_CheckBoundary
02:00001948 6100FDA2        	  3230:     bsr     EnsureObjectAligned
02:0000194C 41EC00C0        	  3231:     lea     ($00C0,A4),A0
02:00001950 10302000        	  3232:     move.b  (A0,D2.W),D0
02:00001954 0200000F        	  3233:     andi.b #$0F,D0
02:00001958 1940000F        	  3234:     move.b  D0,($000F,A4)
02:0000195C 6100FDD0        	  3235:     bsr     GetCollidingTileMoving
02:00001960 122C034A        	  3236:     move.b  ($034A,A4),D1
02:00001964 B001            	  3237:     cmp.b   D1,D0
02:00001966 64BC            	  3238:     bcc  ResetShoveInfo
                            	  3239:     even
                            	  3240: _L_z07_ShoveMoveMin_CheckBoundary:
                            	  3241:     ; Regardless of the grid offset, if the object runs into the
                            	  3242:     ; bounds of the room, then stop shoving.
                            	  3243:     ;
02:00001968 41EC00C0        	  3244:     lea     ($00C0,A4),A0
02:0000196C 10302000        	  3245:     move.b  (A0,D2.W),D0
02:00001970 0200000F        	  3246:     andi.b #$0F,D0
02:00001974 61001DD4        	  3247:     bsr     BoundByRoomWithA
02:00001978 67AA            	  3248:     beq  ResetShoveInfo
                            	  3249:     ; If there is a grumble moblin or person in the room (regardless
                            	  3250:     ; of which object is being shoved), then see if it's blocked by
                            	  3251:     ; the person. Stop shoving if it is blocked.
                            	  3252:     ;
02:0000197A 102C0350        	  3253:     move.b  ($0350,A4),D0
02:0000197E 0C000036        	  3254:     cmpi.b  #$36,D0
02:00001982 670C            	  3255:     beq  _L_z07_ShoveMoveMin_CheckBlocked
02:00001984 0C00004B        	  3256:     cmpi.b  #$4B,D0
02:00001988 6510            	  3257:     bcs  _L_z07_ShoveMoveMin_ChooseSpeed
02:0000198A 0C000053        	  3258:     cmpi.b  #$53,D0
02:0000198E 640A            	  3259:     bcc  _L_z07_ShoveMoveMin_ChooseSpeed
                            	  3260:     even
                            	  3261: _L_z07_ShoveMoveMin_CheckBlocked:
02:00001990 61001DBE        	  3262:     bsr     CheckPersonBlocking
02:00001994 102C000F        	  3263:     move.b  ($000F,A4),D0
02:00001998 678A            	  3264:     beq  ResetShoveInfo
                            	  3265:     even
                            	  3266: _L_z07_ShoveMoveMin_ChooseSpeed:
                            	  3267:     ; If the direction is right or down, store 1 in [02], else -1.
                            	  3268:     ; This is the amount to change the relevant coordinate by.
                            	  3269:     ;
02:0000199A 7601            	  3270:     moveq   #1,D3
02:0000199C 41EC00C0        	  3271:     lea     ($00C0,A4),A0
02:000019A0 10302000        	  3272:     move.b  (A0,D2.W),D0
02:000019A4 02000005        	  3273:     andi.b #$05,D0
02:000019A8 6604            	  3274:     bne  _anon_z07_13
02:000019AA 163C00FF        	  3275:     move.b  #$FF,D3
                            	  3276: _anon_z07_13:
02:000019AE 19430002        	  3277:     move.b  D3,($0002,A4)
                            	  3278:     ; We're OK to change the position. So, decrease the distance
                            	  3279:     ; that's left to move.
                            	  3280:     ;
02:000019B2 41EC00D3        	  3281:     lea     ($00D3,A4),A0
02:000019B6 53302000        	  3282:     subq.b  #1,(A0,D2.W)
                            	  3283:     ; Change the grid offset by the amount in [02] (1, -1).
                            	  3284:     ;
02:000019BA 41EC0394        	  3285:     lea     ($0394,A4),A0
02:000019BE 10302000        	  3286:     move.b  (A0,D2.W),D0
02:000019C2 023C00EE        	  3287:     andi.b  #$EE,CCR  ; CLC: clear C+X
02:000019C6 122C0002        	  3288:     move.b  ($0002,A4),D1
02:000019CA D101            	  3289:     addx.b  D1,D0   ; ADC $02
02:000019CC 41EC0394        	  3290:     lea     ($0394,A4),A0
02:000019D0 11802000        	  3291:     move.b  D0,(A0,D2.W)
                            	  3292:     ; If grid offset is a multiple of $10, or the object is Link and grid offset
                            	  3293:     ; is a multiple of 8, then reset grid offset.
                            	  3294:     ;
02:000019D4 0200000F        	  3295:     andi.b #$0F,D0
02:000019D8 670A            	  3296:     beq  _L_z07_ShoveMoveMin_SetGridOffset
02:000019DA 4A02            	  3297:     cmpi.b  #$00,D2
02:000019DC 660E            	  3298:     bne  _L_z07_ShoveMoveMin_ApplySpeed
02:000019DE 02000007        	  3299:     andi.b #$07,D0
02:000019E2 6608            	  3300:     bne  _L_z07_ShoveMoveMin_ApplySpeed
                            	  3301:     even
                            	  3302: _L_z07_ShoveMoveMin_SetGridOffset:
02:000019E4 41EC0394        	  3303:     lea     ($0394,A4),A0
02:000019E8 11802000        	  3304:     move.b  D0,(A0,D2.W)
                            	  3305:     even
                            	  3306: _L_z07_ShoveMoveMin_ApplySpeed:
                            	  3307:     ; If the direction is horizontal, add the amount in [02] to X.
                            	  3308:     ;
02:000019EC 41EC00C0        	  3309:     lea     ($00C0,A4),A0
02:000019F0 10302000        	  3310:     move.b  (A0,D2.W),D0
02:000019F4 02000003        	  3311:     andi.b #$03,D0
02:000019F8 6716            	  3312:     beq  _L_z07_ShoveMoveMin_AddToY
02:000019FA 10342070        	  3313:     move.b  ($70,A4,D2.W),D0
02:000019FE 023C00EE        	  3314:     andi.b  #$EE,CCR  ; CLC: clear C+X
02:00001A02 122C0002        	  3315:     move.b  ($0002,A4),D1
02:00001A06 D101            	  3316:     addx.b  D1,D0   ; ADC $02
02:00001A08 19802070        	  3317:     move.b  D0,($70,A4,D2.W)
02:00001A0C 4EF81A2A        	  3318:     jmp     _L_z07_ShoveMoveMin_NextShovePixel
                            	  3319: 
                            	  3320:     even
                            	  3321: _L_z07_ShoveMoveMin_AddToY:
                            	  3322:     ; Else add the amount to Y coordinate.
                            	  3323:     ;
02:00001A10 41EC0084        	  3324:     lea     ($0084,A4),A0
02:00001A14 10302000        	  3325:     move.b  (A0,D2.W),D0
02:00001A18 023C00EE        	  3326:     andi.b  #$EE,CCR  ; CLC: clear C+X
02:00001A1C 122C0002        	  3327:     move.b  ($0002,A4),D1
02:00001A20 D101            	  3328:     addx.b  D1,D0   ; ADC $02
02:00001A22 41EC0084        	  3329:     lea     ($0084,A4),A0
02:00001A26 11802000        	  3330:     move.b  D0,(A0,D2.W)
                            	  3331:     even
                            	  3332: _L_z07_ShoveMoveMin_NextShovePixel:
                            	  3333:     ; Loop again if [03] is not going down to 0.
                            	  3334:     ;
02:00001A2A 532C0003        	  3335:     subq.b  #1,($0003,A4)
02:00001A2E 6600FF0E        	  3336:     bne  _L_z07_ShoveMoveMin_LoopShovePixel
02:00001A32 4E75            	  3337:     rts
                            	  3338: 
                            	  3339:     even
                            	  3340: FluteRoomSecretsOW:
02:00001A34 42              	  3341:     dc.b    $42, $06, $29, $2B, $30, $3A, $3C, $58
02:00001A35 06
02:00001A36 29
02:00001A37 2B
02:00001A38 30
02:00001A39 3A
02:00001A3A 3C
02:00001A3B 58
02:00001A3C 60              	  3342:     dc.b    $60, $6E, $72
02:00001A3D 6E
02:00001A3E 72
                            	  3343: 
                            	  3344:     even
                            	  3345: WieldFlute:
                            	  3346:     ; Play the flute's tune.
                            	  3347:     ;
02:00001A40 7010            	  3348:     moveq   #16,D0
02:00001A42 19400602        	  3349:     move.b  D0,($0602,A4)
                            	  3350:     ; Set the flute timer for $98 frames.
                            	  3351:     ;
02:00001A46 103C0098        	  3352:     move.b  #$98,D0
02:00001A4A 1940003C        	  3353:     move.b  D0,($003C,A4)
                            	  3354:     ; In UW, go flag that we used the flute, and return.
                            	  3355:     ;
02:00001A4E 102C0010        	  3356:     move.b  ($0010,A4),D0
02:00001A52 6674            	  3357:     bne  _L_z07_WieldFlute_FlagFluteUsed
                            	  3358:     ; If not in mode 5, return.
                            	  3359:     ;
02:00001A54 102C0012        	  3360:     move.b  ($0012,A4),D0
02:00001A58 0C000005        	  3361:     cmpi.b  #$05,D0
02:00001A5C 6656            	  3362:     bne  _L_z07_WieldFlute_Exit
                            	  3363:     ; Get and save the quest number.
                            	  3364:     ;
02:00001A5E 162C0016        	  3365:     move.b  ($0016,A4),D3
02:00001A62 41EC062D        	  3366:     lea     ($062D,A4),A0
02:00001A66 10303000        	  3367:     move.b  (A0,D3.W),D0
02:00001A6A 1B00            	  3368:     move.b  D0,-(A5)  ; PHA
                            	  3369:     ; Look for the current room in this list of $A that have a flute secret.
                            	  3370:     ;
02:00001A6C 102C00EB        	  3371:     move.b  ($00EB,A4),D0
02:00001A70 760A            	  3372:     moveq   #10,D3
                            	  3373:     even
                            	  3374: _L_z07_WieldFlute_FindSecretRoom:
02:00001A72 41F900001A34    	  3375:     lea     (FluteRoomSecretsOW).l,A0
02:00001A78 12303000        	  3376:     move.b  (A0,D3.W),D1
02:00001A7C B001            	  3377:     cmp.b   D1,D0
02:00001A7E 6706            	  3378:     beq  _L_z07_WieldFlute_Found
02:00001A80 5303            	  3379:     subq.b  #1,D3
02:00001A82 6AEE            	  3380:     bpl  _L_z07_WieldFlute_FindSecretRoom
02:00001A84 6B30            	  3381:     bmi  _L_z07_WieldFlute_FluteSecretNotFound
                            	  3382:     even
                            	  3383: _L_z07_WieldFlute_Found:
                            	  3384:     ; Found.
                            	  3385:     ;
                            	  3386:     ; If it was the first room in the list, handle it specially.
                            	  3387:     ; This room is the only one in Q1 with a flute secret. It's also
                            	  3388:     ; the only one in the list without a flute secret in Q2.
                            	  3389:     ;
                            	  3390:     ; In Q2, go summon the whirlwind. In Q1, continue to reveal
                            	  3391:     ; the secret.
                            	  3392:     ;
02:00001A86 4A03            	  3393:     cmpi.b  #$00,D3
02:00001A88 6606            	  3394:     bne  _L_z07_WieldFlute_Normal
02:00001A8A 101D            	  3395:     move.b  (A5)+,D0  ; PLA
02:00001A8C 662A            	  3396:     bne  _L_z07_WieldFlute_SummonWhirlwind
02:00001A8E 6704            	  3397:     beq  _L_z07_WieldFlute_RevealSecret
                            	  3398:     even
                            	  3399: _L_z07_WieldFlute_Normal:
                            	  3400:     ; For other rooms in the list:
                            	  3401:     ; In Q1, go summon the whirlwind.
                            	  3402:     ; In Q2, continue to reveal the secret.
                            	  3403:     ;
02:00001A90 101D            	  3404:     move.b  (A5)+,D0  ; PLA
02:00001A92 6724            	  3405:     beq  _L_z07_WieldFlute_SummonWhirlwind
                            	  3406:     even
                            	  3407: _L_z07_WieldFlute_RevealSecret:
                            	  3408:     ; If the cycle of colors is complete or in progress, then return. The secret is already revealed.
                            	  3409:     ;
02:00001A94 102C051A        	  3410:     move.b  ($051A,A4),D0
02:00001A98 661A            	  3411:     bne  _L_z07_WieldFlute_Exit
                            	  3412:     ; TODO:
                            	  3413:     ; Look for an empty slot from 8 to 0 (?!).
                            	  3414:     ;
                            	  3415:     ; TODO:
                            	  3416:     ; Does it ever get to 0? Would it work? Would an object in that
                            	  3417:     ; slot be updated?
                            	  3418:     ;
02:00001A9A 7609            	  3419:     moveq   #9,D3
                            	  3420:     even
                            	  3421: _L_z07_WieldFlute_FindEmptySlot:
02:00001A9C 5303            	  3422:     subq.b  #1,D3
02:00001A9E 6B14            	  3423:     bmi  _L_z07_WieldFlute_Exit
02:00001AA0 41EC0350        	  3424:     lea     ($0350,A4),A0
02:00001AA4 10303000        	  3425:     move.b  (A0,D3.W),D0
02:00001AA8 66F2            	  3426:     bne  _L_z07_WieldFlute_FindEmptySlot
                            	  3427:     ; If we find one, set up a flute secret object there.
                            	  3428:     ; It will handle the rest.
                            	  3429:     ;
02:00001AAA 705E            	  3430:     moveq   #94,D0
02:00001AAC 41EC0350        	  3431:     lea     ($0350,A4),A0
02:00001AB0 11803000        	  3432:     move.b  D0,(A0,D3.W)
                            	  3433:     even
                            	  3434: _L_z07_WieldFlute_Exit:
02:00001AB4 4E75            	  3435:     rts
                            	  3436: 
                            	  3437:     even
                            	  3438: _L_z07_WieldFlute_FluteSecretNotFound:
                            	  3439:     ; Not found.
                            	  3440:     ;
                            	  3441:     ;
                            	  3442:     ; Pop and throw away the quest number.
                            	  3443:     ;
02:00001AB6 101D            	  3444:     move.b  (A5)+,D0  ; PLA
                            	  3445:     even
                            	  3446: _L_z07_WieldFlute_SummonWhirlwind:
                            	  3447:     ; Summon the whirlwind.
                            	  3448:     ;
02:00001AB8 7001            	  3449:     moveq   #1,D0
02:00001ABA 61001C10        	  3450:     bsr     SwitchBank
02:00001ABE 61001C5E        	  3451:     bsr     SummonWhirlwind
02:00001AC2 7005            	  3452:     moveq   #5,D0
02:00001AC4 4EF836CC        	  3453:     jmp     SwitchBank
                            	  3454: 
                            	  3455:     even
                            	  3456: _L_z07_WieldFlute_FlagFluteUsed:
                            	  3457:     ; Flag that we used the flute.
                            	  3458:     ;
02:00001AC8 102C051B        	  3459:     move.b  ($051B,A4),D0
02:00001ACC 6604            	  3460:     bne  L1EFCF_Exit
02:00001ACE 522C051B        	  3461:     addq.b  #1,($051B,A4)
                            	  3462:     even
                            	  3463: L1EFCF_Exit:
02:00001AD2 4E75            	  3464:     rts
                            	  3465: 
                            	  3466:     even
                            	  3467: Walker_Move:
                            	  3468:     ; If the object is being shoved, then go shove it.
                            	  3469:     ;
02:00001AD4 41EC00C0        	  3470:     lea     ($00C0,A4),A0
02:00001AD8 10302000        	  3471:     move.b  (A0,D2.W),D0
02:00001ADC 6704            	  3472:     beq  _L_z07_Walker_Move_ChooseObjDirOrInputDir
02:00001ADE 4EF818CC        	  3473:     jmp     Obj_Shove
                            	  3474: 
                            	  3475:     even
                            	  3476: _L_z07_Walker_Move_ChooseObjDirOrInputDir:
                            	  3477:     ; Summary: Choose object direction or input direction for movement as appropriate.
                            	  3478:     ;
                            	  3479:     ; Player: If there's input, then use input direction when grid offset = 0,
                            	  3480:     ;         or object direction when <> 0.
                            	  3481:     ;
                            	  3482:     ; Other objects: Move in input direction, unless stunned or magic clock is active.
                            	  3483:     ;
                            	  3484:     ; if slot = 0 and grid offset <> 0 then
                            	  3485:     ;   if input dir = 0 then
                            	  3486:     ;     use 0
                            	  3487:     ;   else
                            	  3488:     ;     use object direction
                            	  3489:     ; else
                            	  3490:     ;   if slot <> 0 and (has clock or stunned) then
                            	  3491:     ;     return
                            	  3492:     ;   else
                            	  3493:     ;     if input dir = 0
                            	  3494:     ;       use 0
                            	  3495:     ;     else
                            	  3496:     ;       use input direction
                            	  3497:     ;
02:00001AE2 4A02            	  3498:     cmpi.b  #$00,D2
02:00001AE4 6612            	  3499:     bne  _L_z07_Walker_Move_CheckStunned
02:00001AE6 102C0394        	  3500:     move.b  ($0394,A4),D0
02:00001AEA 670C            	  3501:     beq  _L_z07_Walker_Move_CheckStunned
02:00001AEC 102C03F8        	  3502:     move.b  ($03F8,A4),D0
02:00001AF0 6730            	  3503:     beq  _L_z07_Walker_Move_ZeroMovingDir
02:00001AF2 102C0098        	  3504:     move.b  ($0098,A4),D0
02:00001AF6 662C            	  3505:     bne  _L_z07_Walker_Move_SetMovingDir
                            	  3506:     even
                            	  3507: _L_z07_Walker_Move_CheckStunned:
02:00001AF8 4A02            	  3508:     cmpi.b  #$00,D2
02:00001AFA 670C            	  3509:     beq  _L_z07_Walker_Move_FilterInput
02:00001AFC 102C066C        	  3510:     move.b  ($066C,A4),D0
02:00001B00 1234203D        	  3511:     move.b  ($3D,A4,D2.W),D1
02:00001B04 8001            	  3512:     or.b  D1,D0
02:00001B06 66CA            	  3513:     bne  L1EFCF_Exit
                            	  3514:     even
                            	  3515: _L_z07_Walker_Move_FilterInput:
02:00001B08 41EC03F8        	  3516:     lea     ($03F8,A4),A0
02:00001B0C 10302000        	  3517:     move.b  (A0,D2.W),D0
02:00001B10 6710            	  3518:     beq  _L_z07_Walker_Move_ZeroMovingDir
02:00001B12 61001C48        	  3519:     bsr     GetOppositeDir
02:00001B16 41F900003776    	  3520:     lea     (ReverseDirections).l,A0
02:00001B1C 10303000        	  3521:     move.b  (A0,D3.W),D0
02:00001B20 6602            	  3522:     bne  _L_z07_Walker_Move_SetMovingDir
                            	  3523:     even
                            	  3524: _L_z07_Walker_Move_ZeroMovingDir:
02:00001B22 7000            	  3525:     moveq   #0,D0
                            	  3526:     even
                            	  3527: _L_z07_Walker_Move_SetMovingDir:
                            	  3528:     ; Mask off everything but directions.
                            	  3529:     ; (I don't think there's anything else)
                            	  3530:     ;
02:00001B24 0200000F        	  3531:     andi.b #$0F,D0
02:00001B28 1940000F        	  3532:     move.b  D0,($000F,A4)
                            	  3533:     ; [0E]: $FF, if blocked by a door
                            	  3534:     ;       else will hold the reverse index of the direction of a doorway if found
                            	  3535:     ; 
02:00001B2C 7000            	  3536:     moveq   #0,D0
02:00001B2E 1940000E        	  3537:     move.b  D0,($000E,A4)
                            	  3538:     ; If object is Link and using or catching an item then
                            	  3539:     ; reset movement direction.
                            	  3540:     ;
02:00001B32 4A02            	  3541:     cmpi.b  #$00,D2
02:00001B34 661C            	  3542:     bne  _L_z07_Walker_Move_OnlyLink
02:00001B36 41EC00AC        	  3543:     lea     ($00AC,A4),A0
02:00001B3A 10302000        	  3544:     move.b  (A0,D2.W),D0
02:00001B3E 020000F0        	  3545:     andi.b #$F0,D0
02:00001B42 0C000010        	  3546:     cmpi.b  #$10,D0
02:00001B46 6706            	  3547:     beq  _anon_z07_14
02:00001B48 0C000020        	  3548:     cmpi.b  #$20,D0
02:00001B4C 6604            	  3549:     bne  _L_z07_Walker_Move_OnlyLink
                            	  3550: _anon_z07_14:
02:00001B4E 1942000F        	  3551:     move.b  D2,($000F,A4)
                            	  3552:     even
                            	  3553: _L_z07_Walker_Move_OnlyLink:
                            	  3554:     ; If object is not Link, then skip the code below.
                            	  3555:     ;
02:00001B52 4A02            	  3556:     cmpi.b  #$00,D2
02:00001B54 6660            	  3557:     bne  _L_z07_Walker_Move_CheckBoundary
                            	  3558:     ; Check if tile objects block the player.
                            	  3559:     ;
02:00001B56 7001            	  3560:     moveq   #1,D0
02:00001B58 61001B72        	  3561:     bsr     SwitchBank
02:00001B5C 61001BB0        	  3562:     bsr     CheckTileObjectsBlocking
                            	  3563:     ; Check whether a person blocks the player.
                            	  3564:     ;
02:00001B60 102C0350        	  3565:     move.b  ($0350,A4),D0
02:00001B64 0C000036        	  3566:     cmpi.b  #$36,D0
02:00001B68 670C            	  3567:     beq  _L_z07_Walker_Move_CheckBlocked
02:00001B6A 0C00004B        	  3568:     cmpi.b  #$4B,D0
02:00001B6E 650A            	  3569:     bcs  _L_z07_Walker_Move_CheckSubroomOrDoorways
02:00001B70 0C000053        	  3570:     cmpi.b  #$53,D0
02:00001B74 6404            	  3571:     bcc  _L_z07_Walker_Move_CheckSubroomOrDoorways
                            	  3572:     even
                            	  3573: _L_z07_Walker_Move_CheckBlocked:
02:00001B76 61001BD8        	  3574:     bsr     CheckPersonBlocking
                            	  3575:     even
                            	  3576: _L_z07_Walker_Move_CheckSubroomOrDoorways:
                            	  3577:     ; If in a doorway, then go check doorways instead of subrooms.
                            	  3578:     ;
02:00001B7A 102C0053        	  3579:     move.b  ($0053,A4),D0
02:00001B7E 663A            	  3580:     bne  _L_z07_Walker_Move_CheckDoorways
                            	  3581:     ; Check subrooms (caves and cellars) in modes 9, $B, $C.
                            	  3582:     ;
02:00001B80 102C0012        	  3583:     move.b  ($0012,A4),D0
02:00001B84 0C000009        	  3584:     cmpi.b  #$09,D0
02:00001B88 670C            	  3585:     beq  _L_z07_Walker_Move_InSubroom
02:00001B8A 0C00000B        	  3586:     cmpi.b  #$0B,D0
02:00001B8E 6706            	  3587:     beq  _L_z07_Walker_Move_InSubroom
02:00001B90 0C00000C        	  3588:     cmpi.b  #$0C,D0
02:00001B94 6614            	  3589:     bne  _L_z07_Walker_Move_SkipSubroom
                            	  3590:     even
                            	  3591: _L_z07_Walker_Move_InSubroom:
02:00001B96 7005            	  3592:     moveq   #5,D0
02:00001B98 61001B32        	  3593:     bsr     SwitchBank
02:00001B9C 61001CCA        	  3594:     bsr     CheckSubroom
                            	  3595:     ; If game mode = 9, or in OW, or in a doorway, then skip
                            	  3596:     ; checking room boundaries.
                            	  3597:     ;
02:00001BA0 102C0012        	  3598:     move.b  ($0012,A4),D0
02:00001BA4 0C000009        	  3599:     cmpi.b  #$09,D0
02:00001BA8 6710            	  3600:     beq  _L_z07_Walker_Move_CheckDoorways
                            	  3601:     even
                            	  3602: _L_z07_Walker_Move_SkipSubroom:
02:00001BAA 102C0010        	  3603:     move.b  ($0010,A4),D0
02:00001BAE 670A            	  3604:     beq  _L_z07_Walker_Move_CheckDoorways
02:00001BB0 102C0053        	  3605:     move.b  ($0053,A4),D0
02:00001BB4 6604            	  3606:     bne  _L_z07_Walker_Move_CheckDoorways
                            	  3607:     even
                            	  3608: _L_z07_Walker_Move_CheckBoundary:
                            	  3609:     ; This code applies to all objects.
                            	  3610:     ;
                            	  3611:     ; Prevents movement outside the walls or border of a room,
                            	  3612:     ; even Link in front of a doorway.
                            	  3613:     ;
02:00001BB6 61001B90        	  3614:     bsr     BoundByRoom
                            	  3615:     even
                            	  3616: _L_z07_Walker_Move_CheckDoorways:
                            	  3617:     ; If object is Link, and level is in UW, and mode <> 9,
                            	  3618:     ; then check doorways.
                            	  3619:     ;
02:00001BBA 4A02            	  3620:     cmpi.b  #$00,D2
02:00001BBC 661C            	  3621:     bne  _L_z07_Walker_Move_CheckTiles
02:00001BBE 102C0010        	  3622:     move.b  ($0010,A4),D0
02:00001BC2 6716            	  3623:     beq  _L_z07_Walker_Move_CheckTiles
02:00001BC4 102C0012        	  3624:     move.b  ($0012,A4),D0
02:00001BC8 0C000009        	  3625:     cmpi.b  #$09,D0
02:00001BCC 670C            	  3626:     beq  _L_z07_Walker_Move_CheckTiles
02:00001BCE 7005            	  3627:     moveq   #5,D0
02:00001BD0 61001AFA        	  3628:     bsr     SwitchBank
02:00001BD4 61001C8C        	  3629:     bsr     CheckDoorway
02:00001BD8 7400            	  3630:     moveq   #0,D2
                            	  3631:     even
                            	  3632: _L_z07_Walker_Move_CheckTiles:
                            	  3633:     ; This code applies to all objects.
                            	  3634:     ;
02:00001BDA 610000AA        	  3635:     bsr     Walker_CheckTileCollision
                            	  3636:     ; The player will check for the ladder.
                            	  3637:     ;
02:00001BDE 4A02            	  3638:     cmpi.b  #$00,D2
02:00001BE0 660A            	  3639:     bne  MoveObject
02:00001BE2 7005            	  3640:     moveq   #5,D0
02:00001BE4 61001AE6        	  3641:     bsr     SwitchBank
02:00001BE8 61001C7A        	  3642:     bsr     CheckLadder
                            	  3643: ; Params:
                            	  3644: ; X: object index
                            	  3645: ; [0F]: direction
                            	  3646: ;
                            	  3647: ;
                            	  3648: ; Positive limit is 8 for Link.
                            	  3649:     even
                            	  3650: MoveObject:
02:00001BEC 7008            	  3651:     moveq   #8,D0
02:00001BEE 163C00F8        	  3652:     move.b  #$F8,D3
02:00001BF2 4A02            	  3653:     cmpi.b  #$00,D2
02:00001BF4 6706            	  3654:     beq  _anon_z07_15
02:00001BF6 7010            	  3655:     moveq   #16,D0
02:00001BF8 163C00F0        	  3656:     move.b  #$F0,D3
                            	  3657: _anon_z07_15:
02:00001BFC 1940010E        	  3658:     move.b  D0,($010E,A4)
02:00001C00 1943010F        	  3659:     move.b  D3,($010F,A4)
02:00001C04 102C000F        	  3660:     move.b  ($000F,A4),D0
02:00001C08 6732            	  3661:     beq  _L_z07_MoveObject_Exit
                            	  3662:     ; To allow a wide speed range, we keep the quarter speed.
                            	  3663:     ; Here, apply it 4 times to get the full speed.
02:00001C0A 6106            	  3664:     bsr     _L_z07_MoveObject_ApplyQSpeedToPosition
02:00001C0C 6104            	  3665:     bsr     _L_z07_MoveObject_ApplyQSpeedToPosition
02:00001C0E 61000002        	  3666:     bsr     _L_z07_MoveObject_ApplyQSpeedToPosition
                            	  3667:     even
                            	  3668: _L_z07_MoveObject_ApplyQSpeedToPosition:
02:00001C12 102C000F        	  3669:     move.b  ($000F,A4),D0
02:00001C16 E208            	  3670:     lsr.b  #1,D0   ; LSR A
02:00001C18 6540            	  3671:     bcs  _L_z07_MoveObject_Right
02:00001C1A E208            	  3672:     lsr.b  #1,D0   ; LSR A
02:00001C1C 6550            	  3673:     bcs  _L_z07_MoveObject_Left
02:00001C1E E208            	  3674:     lsr.b  #1,D0   ; LSR A
02:00001C20 651C            	  3675:     bcs  _L_z07_MoveObject_Down
                            	  3676:     ; Up
                            	  3677:     ;
02:00001C22 61001B58        	  3678:     bsr     SubQSpeedFromPositionFraction
02:00001C26 41EC0084        	  3679:     lea     ($0084,A4),A0
02:00001C2A 10302000        	  3680:     move.b  (A0,D2.W),D0
02:00001C2E 123C0000        	  3681:     move.b  #$00,D1
02:00001C32 9101            	  3682:     subx.b  D1,D0   ; SBC #$00
02:00001C34 41EC0084        	  3683:     lea     ($0084,A4),A0
02:00001C38 11802000        	  3684:     move.b  D0,(A0,D2.W)
                            	  3685:     even
                            	  3686: _L_z07_MoveObject_Exit:
02:00001C3C 4E75            	  3687:     rts
                            	  3688: 
                            	  3689:     even
                            	  3690: _L_z07_MoveObject_Down:
                            	  3691:     ; Down
                            	  3692:     ;
02:00001C3E 61001AF6        	  3693:     bsr     AddQSpeedToPositionFraction
02:00001C42 41EC0084        	  3694:     lea     ($0084,A4),A0
02:00001C46 10302000        	  3695:     move.b  (A0,D2.W),D0
02:00001C4A 123C0000        	  3696:     move.b  #$00,D1
02:00001C4E D101            	  3697:     addx.b  D1,D0   ; ADC #$00 (X flag = 6502 C)
02:00001C50 41EC0084        	  3698:     lea     ($0084,A4),A0
02:00001C54 11802000        	  3699:     move.b  D0,(A0,D2.W)
02:00001C58 4E75            	  3700:     rts
                            	  3701: 
                            	  3702:     even
                            	  3703: _L_z07_MoveObject_Right:
                            	  3704:     ; Right
                            	  3705:     ;
02:00001C5A 61001ADA        	  3706:     bsr     AddQSpeedToPositionFraction
02:00001C5E 10342070        	  3707:     move.b  ($70,A4,D2.W),D0
02:00001C62 123C0000        	  3708:     move.b  #$00,D1
02:00001C66 D101            	  3709:     addx.b  D1,D0   ; ADC #$00 (X flag = 6502 C)
02:00001C68 19802070        	  3710:     move.b  D0,($70,A4,D2.W)
02:00001C6C 4E75            	  3711:     rts
                            	  3712: 
                            	  3713:     even
                            	  3714: _L_z07_MoveObject_Left:
                            	  3715:     ; Left
                            	  3716:     ;
02:00001C6E 61001B0C        	  3717:     bsr     SubQSpeedFromPositionFraction
02:00001C72 10342070        	  3718:     move.b  ($70,A4,D2.W),D0
02:00001C76 123C0000        	  3719:     move.b  #$00,D1
02:00001C7A 9101            	  3720:     subx.b  D1,D0   ; SBC #$00
02:00001C7C 19802070        	  3721:     move.b  D0,($70,A4,D2.W)
02:00001C80 4E75            	  3722:     rts
                            	  3723: 
                            	  3724: ; Up, down, left, right.
                            	  3725: ;
                            	  3726:     even
                            	  3727: PlayerScreenEdgeBounds:
02:00001C82 3D              	  3728:     dc.b    $3D, $DD, $00, $F0
02:00001C83 DD
02:00001C84 00
02:00001C85 F0
                            	  3729: 
                            	  3730: ; Params:
                            	  3731: ; [0E]: $FF, if blocked by a door
                            	  3732: ; [0F]: movement direction
                            	  3733: ;
                            	  3734: ; Returns:
                            	  3735: ; [0F]: untouched, or changed if blocked or need to change
                            	  3736: ;
                            	  3737: ; Summary:
                            	  3738: ;
                            	  3739: ; For the player: if at a doorway or walkable tile, check the screen edge.
                            	  3740: ; Then allow movement or go to the next room. Otherwise,
                            	  3741: ; check passive tile objects and stop moving.
                            	  3742: ;
                            	  3743: ; For other objects: First, if moving, test the colliding tile for
                            	  3744: ; walkability. Otherwise search for a walkable direction starting
                            	  3745: ; from input direction.
                            	  3746: ;
                            	  3747: ; When you find a walkable direction, see if it makes the object
                            	  3748: ; cross a boundary. If it doesn't, then make this direction
                            	  3749: ; the objection direction. Otherwise, keep looping.
                            	  3750: ;
                            	  3751: ; If no walkable direction is found, then stop moving.
                            	  3752: ;
                            	  3753: ;
                            	  3754: ; if is player
                            	  3755: ;   if at doorway
                            	  3756: ;     go handle a walkable direction
                            	  3757: ;   if blocked by door
                            	  3758: ;     return
                            	  3759: ;
                            	  3760:     even
                            	  3761: Walker_CheckTileCollision:
02:00001C86 4A02            	  3762:     cmpi.b  #$00,D2
02:00001C88 6612            	  3763:     bne  _L_z07_Walker_CheckTileCollision_CheckGridOffset
02:00001C8A 102C0053        	  3764:     move.b  ($0053,A4),D0
02:00001C8E 6704            	  3765:     beq  _anon_z07_16
02:00001C90 4EF81D2E        	  3766:     jmp     GoWalkableDir
                            	  3767: 
                            	  3768: _anon_z07_16:
02:00001C94 102C000E        	  3769:     move.b  ($000E,A4),D0
02:00001C98 6B00008A        	  3770:     bmi  L1F148_Exit
                            	  3771:     even
                            	  3772: _L_z07_Walker_CheckTileCollision_CheckGridOffset:
                            	  3773:     ; If grid offset <> 0, return.
                            	  3774:     ;
02:00001C9C 41EC0394        	  3775:     lea     ($0394,A4),A0
02:00001CA0 10302000        	  3776:     move.b  (A0,D2.W),D0
02:00001CA4 667E            	  3777:     bne  L1F148_Exit
                            	  3778:     ; Grid offset = 0.
                            	  3779:     ; The object is at a point between cells in the grid.
                            	  3780:     ; So, we can check tiles for collision.
                            	  3781:     ;
                            	  3782:     ; Reset [0E] alternate direction search step.
                            	  3783:     ;
02:00001CA6 1940000E        	  3784:     move.b  D0,($000E,A4)
                            	  3785:     ; If there's a movement direction, go check tile collision.
                            	  3786:     ;
02:00001CAA 102C000F        	  3787:     move.b  ($000F,A4),D0
02:00001CAE 662A            	  3788:     bne  CheckTiles
                            	  3789:     ; Moving direction = 0.
                            	  3790:     ; If object is the player, return.
                            	  3791:     ;
02:00001CB0 4A02            	  3792:     cmpi.b  #$00,D2
02:00001CB2 6770            	  3793:     beq  L1F148_Exit
                            	  3794:     ; Moving direction = 0.
                            	  3795:     ; The object is not the player.
                            	  3796:     ;
                            	  3797:     ; If object does not have attribute $10, then
                            	  3798:     ; set movement direction to input direction,
                            	  3799:     ; and go try to turn to an unblocked direction in order to move.
                            	  3800:     ;
02:00001CB4 41EC04BF        	  3801:     lea     ($04BF,A4),A0
02:00001CB8 10302000        	  3802:     move.b  (A0,D2.W),D0
02:00001CBC 02000010        	  3803:     andi.b #$10,D0
02:00001CC0 6610            	  3804:     bne  Reverse
02:00001CC2 41EC03F8        	  3805:     lea     ($03F8,A4),A0
02:00001CC6 10302000        	  3806:     move.b  (A0,D2.W),D0
02:00001CCA 1940000F        	  3807:     move.b  D0,($000F,A4)
02:00001CCE 4EF81CF8        	  3808:     jmp     TryNextDir
                            	  3809: 
                            	  3810:     even
                            	  3811: Reverse:
                            	  3812:     ; UNKNOWN:
                            	  3813:     ; This seems to be unused code triggered by object attribute $10.
                            	  3814:     ; But $10 is not used in the object attribute array at 07:FAEF.
                            	  3815:     ;
02:00001CD2 6100014C        	  3816:     bsr     ReverseObjDir
02:00001CD6 4EF81DB0        	  3817:     jmp     CheckBoundary
                            	  3818: 
                            	  3819:     even
                            	  3820: CheckTiles:
                            	  3821:     ; The code below applies to Link and other objects.
                            	  3822:     ;
                            	  3823:     ; Test the moving direction's walkability.
                            	  3824:     ;
                            	  3825:     ; For the player, this is enough. For other objects, this 
                            	  3826:     ; becomes a loop looking for an unblocked direction to move in.
                            	  3827:     ;
                            	  3828:     ; If the colliding tile is walkable, go handle a walkable direction.
                            	  3829:     ;
02:00001CDA 6100FA52        	  3830:     bsr     GetCollidingTileMoving
02:00001CDE 122C034A        	  3831:     move.b  ($034A,A4),D1
02:00001CE2 B001            	  3832:     cmp.b   D1,D0
02:00001CE4 6548            	  3833:     bcs  GoWalkableDir
                            	  3834:     ; The colliding tile is unwalkable.
                            	  3835:     ;
                            	  3836:     ; If object is the player, then go check passive tile objects and
                            	  3837:     ; the screen edge, or stop moving.
                            	  3838:     ;
02:00001CE6 4A02            	  3839:     cmpi.b  #$00,D2
02:00001CE8 671E            	  3840:     beq  PlayerUnwalkable
                            	  3841:     even
                            	  3842: CheckObjAttr10AndAltDir:
                            	  3843:     ; Not the player.
                            	  3844:     ; If object attribute has $10, go to the unused code above
                            	  3845:     ; to reverse direction.
                            	  3846:     ;
02:00001CEA 41EC04BF        	  3847:     lea     ($04BF,A4),A0
02:00001CEE 10302000        	  3848:     move.b  (A0,D2.W),D0
02:00001CF2 02000010        	  3849:     andi.b #$10,D0
02:00001CF6 66DA            	  3850:     bne  Reverse
                            	  3851:     even
                            	  3852: TryNextDir:
                            	  3853:     ; Get the next direction to check, and set moving direction to it.
                            	  3854:     ; If not at the end of the loop, go test the new direction's walkability.
                            	  3855:     ;
02:00001CF8 610000C8        	  3856:     bsr     Walker_GetNextAltDir
02:00001CFC 1940000F        	  3857:     move.b  D0,($000F,A4)
02:00001D00 102C000E        	  3858:     move.b  ($000E,A4),D0
02:00001D04 66D4            	  3859:     bne  CheckTiles
02:00001D06 4E75            	  3860:     rts
                            	  3861: 
                            	  3862:     even
                            	  3863: PlayerUnwalkable:
                            	  3864:     ; Tile is not walkable. Object is player.
                            	  3865:     ;
                            	  3866:     ; Check passive tile objects and the screen edge, and stop moving.
                            	  3867:     ;
                            	  3868:     ; First, if in OW, check passive tile objects (armos and regular gravestone).
                            	  3869:     ;
02:00001D08 102C0010        	  3870:     move.b  ($0010,A4),D0
02:00001D0C 660A            	  3871:     bne  _L_z07_PlayerUnwalkable_StopMoving
02:00001D0E 7001            	  3872:     moveq   #1,D0
02:00001D10 610019BA        	  3873:     bsr     SwitchBank
02:00001D14 610019F4        	  3874:     bsr     CheckPassiveTileObjects
                            	  3875:     even
                            	  3876: _L_z07_PlayerUnwalkable_StopMoving:
                            	  3877:     ; Reset moving direction and buttons pressed.
                            	  3878:     ; If in UW, we're done.
                            	  3879:     ; In OW, go check the screen edge.
                            	  3880:     ;
02:00001D18 610C            	  3881:     bsr     ResetMovingDir
02:00001D1A 194000F8        	  3882:     move.b  D0,($00F8,A4)
02:00001D1E 102C0010        	  3883:     move.b  ($0010,A4),D0
02:00001D22 670A            	  3884:     beq  GoWalkableDir
                            	  3885:     even
                            	  3886: L1F148_Exit:
02:00001D24 4E75            	  3887:     rts
                            	  3888: 
                            	  3889: ; Returns:
                            	  3890: ; A: 0
                            	  3891: ; [0F]: 0
                            	  3892: ;
                            	  3893:     even
                            	  3894: ResetMovingDir:
02:00001D26 7000            	  3895:     moveq   #0,D0
02:00001D28 1940000F        	  3896:     move.b  D0,($000F,A4)
02:00001D2C 4E75            	  3897:     rts
                            	  3898: 
                            	  3899:     even
                            	  3900: GoWalkableDir:
                            	  3901:     ; If object is not Link, then the tile is walkable. Go see if this direction
                            	  3902:     ; makes the object cross a boundary. Then go check another direction if it does,
                            	  3903:     ; or else make this the object direction.
                            	  3904:     ;
02:00001D2E 4A02            	  3905:     cmpi.b  #$00,D2
02:00001D30 667E            	  3906:     bne  CheckBoundary
                            	  3907:     ; The object is Link. We end up here regardless of walkability.
                            	  3908:     ;
                            	  3909:     ; If not in mode 5 or ladder is in use, return.
                            	  3910:     ;
02:00001D32 102C0012        	  3911:     move.b  ($0012,A4),D0
02:00001D36 0C000005        	  3912:     cmpi.b  #$05,D0
02:00001D3A 6670            	  3913:     bne  ExitX0
02:00001D3C 102C0064        	  3914:     move.b  ($0064,A4),D0
02:00001D40 66E2            	  3915:     bne  L1F148_Exit
                            	  3916:     ; If grid offset <> 0, return.
                            	  3917:     ;
02:00001D42 102C0394        	  3918:     move.b  ($0394,A4),D0
02:00001D46 6664            	  3919:     bne  ExitX0
                            	  3920:     even
                            	  3921: CheckScreenEdge:
02:00001D48 142C0084        	  3922:     move.b  ($0084,A4),D2
                            	  3923:     ; If not moving, then return.
                            	  3924:     ;
02:00001D4C 102C03F8        	  3925:     move.b  ($03F8,A4),D0
02:00001D50 675A            	  3926:     beq  ExitX0
                            	  3927:     ; If the single moving direction is vertical, use Y.
                            	  3928:     ; Else use X coordinate.
                            	  3929:     ;
                            	  3930:     ;
                            	  3931:     ; Call this to get a single moving direction.
02:00001D52 61001A08        	  3932:     bsr     GetOppositeDir
02:00001D56 41F900003776    	  3933:     lea     (ReverseDirections).l,A0
02:00001D5C 10303000        	  3934:     move.b  (A0,D3.W),D0
02:00001D60 0200000C        	  3935:     andi.b #$0C,D0
02:00001D64 6604            	  3936:     bne  _anon_z07_17
02:00001D66 142C0070        	  3937:     move.b  ($0070,A4),D2
                            	  3938: _anon_z07_17:
02:00001D6A 1882            	  3939:     move.b  D2,($0000,A4)
                            	  3940:     ; If Link's coordinate does not match the screen edge coordinate
                            	  3941:     ; in the single moving direction, then return.
                            	  3942:     ;
02:00001D6C 1014            	  3943:     move.b  ($0000,A4),D0
02:00001D6E 41F900001C82    	  3944:     lea     (PlayerScreenEdgeBounds).l,A0
02:00001D74 12303000        	  3945:     move.b  (A0,D3.W),D1
02:00001D78 B001            	  3946:     cmp.b   D1,D0
02:00001D7A 6630            	  3947:     bne  ExitX0
                            	  3948:     ; We're moving to the next screen.
                            	  3949:     ; Make sure Link faces the single moving direction.
                            	  3950:     ;
02:00001D7C 41F900003776    	  3951:     lea     (ReverseDirections).l,A0
02:00001D82 10303000        	  3952:     move.b  (A0,D3.W),D0
02:00001D86 19400098        	  3953:     move.b  D0,($0098,A4)
                            	  3954: ; Returns:
                            	  3955: ; X: 0 (Link's object slot)
                            	  3956: ;
                            	  3957:     even
                            	  3958: GoToNextModeFromPlay:
02:00001D8A 522C0012        	  3959:     addq.b  #1,($0012,A4)
02:00001D8E 7000            	  3960:     moveq   #0,D0
02:00001D90 19400013        	  3961:     move.b  D0,($0013,A4)
02:00001D94 19400011        	  3962:     move.b  D0,($0011,A4)
02:00001D98 1940000F        	  3963:     move.b  D0,($000F,A4)
02:00001D9C 194000AC        	  3964:     move.b  D0,($00AC,A4)
02:00001DA0 194000C0        	  3965:     move.b  D0,($00C0,A4)
02:00001DA4 194000D3        	  3966:     move.b  D0,($00D3,A4)
02:00001DA8 194004F0        	  3967:     move.b  D0,($04F0,A4)
                            	  3968:     even
                            	  3969: ExitX0:
02:00001DAC 7400            	  3970:     moveq   #0,D2
02:00001DAE 4E75            	  3971:     rts
                            	  3972: 
                            	  3973:     even
                            	  3974: CheckBoundary:
                            	  3975:     ; If object crossed a boundary, then go check object
                            	  3976:     ; attribute $10 and another direction.
                            	  3977:     ; Else set object direction to moving direction [0F] and return.
                            	  3978:     ;
02:00001DB0 61001996        	  3979:     bsr     BoundByRoom
02:00001DB4 6700FF34        	  3980:     beq  CheckObjAttr10AndAltDir
02:00001DB8 41EC0098        	  3981:     lea     ($0098,A4),A0
02:00001DBC 11802000        	  3982:     move.b  D0,(A0,D2.W)
02:00001DC0 4E75            	  3983:     rts
                            	  3984: 
                            	  3985: ; Description:
                            	  3986: ; Calculates the next alternate direction to move in while
                            	  3987: ; searching for an unblocked direction.
                            	  3988: ;
                            	  3989: ; Params:
                            	  3990: ; [0E]: the current step
                            	  3991: ;
                            	  3992: ; Returns:
                            	  3993: ; A: a direction for the current step, or 0 at the end of the loop
                            	  3994: ; [0E]: the next step, or 0 to end the loop
                            	  3995: ; ObjDir: might be modified
                            	  3996: ;
                            	  3997:     even
                            	  3998: Walker_GetNextAltDir:
02:00001DC2 102C000E        	  3999:     move.b  ($000E,A4),D0
02:00001DC6 522C000E        	  4000:     addq.b  #1,($000E,A4)
02:00001DCA 6100E890        	  4001:     bsr     _m68k_tablejump  ; M68K-native table dispatch (replaces JSR TableJump)
                            	  4002:     even
                            	  4003: Walker_GetNextAltDir_JumpTable:
02:00001DCE 00001DDE        	  4004:     dc.l    Walker_AltDir_GetRandomObjPerpendicularDir   ; NES addr vector (32-bit for M68K)
02:00001DD2 00001E08        	  4005:     dc.l    Walker_AltDir_GetMovingOppositeDir   ; NES addr vector (32-bit for M68K)
02:00001DD6 00001E20        	  4006:     dc.l    ReverseObjDir   ; NES addr vector (32-bit for M68K)
02:00001DDA 00001E3A        	  4007:     dc.l    Walker_AltDir_EndLoop   ; NES addr vector (32-bit for M68K)
                            	  4008: 
                            	  4009:     even
                            	  4010: Walker_AltDir_GetRandomObjPerpendicularDir:
02:00001DDE 7600            	  4011:     moveq   #0,D3
02:00001DE0 10342018        	  4012:     move.b  ($18,A4,D2.W),D0
02:00001DE4 E308            	  4013:     lsl.b  #1,D0   ; ASL A
02:00001DE6 6502            	  4014:     bcs  _anon_z07_18
02:00001DE8 5203            	  4015:     addq.b  #1,D3
                            	  4016: _anon_z07_18:
02:00001DEA 41EC0098        	  4017:     lea     ($0098,A4),A0
02:00001DEE 10302000        	  4018:     move.b  (A0,D2.W),D0
02:00001DF2 0200000C        	  4019:     andi.b #$0C,D0
02:00001DF6 6704            	  4020:     beq  _anon_z07_19
02:00001DF8 5203            	  4021:     addq.b  #1,D3
02:00001DFA 5203            	  4022:     addq.b  #1,D3
                            	  4023: _anon_z07_19:
02:00001DFC 41F900003776    	  4024:     lea     (ReverseDirections).l,A0
02:00001E02 10303000        	  4025:     move.b  (A0,D3.W),D0
02:00001E06 4E75            	  4026:     rts
                            	  4027: 
                            	  4028:     even
                            	  4029: Walker_AltDir_GetMovingOppositeDir:
02:00001E08 102C000F        	  4030:     move.b  ($000F,A4),D0
02:00001E0C 1B00            	  4031:     move.b  D0,-(A5)  ; PHA
02:00001E0E 0200000A        	  4032:     andi.b #$0A,D0
02:00001E12 6706            	  4033:     beq  _L_z07_Walker_AltDir_GetMovingOppositeDir_IncreasingDir
02:00001E14 101D            	  4034:     move.b  (A5)+,D0  ; PLA
02:00001E16 E208            	  4035:     lsr.b  #1,D0   ; LSR A
02:00001E18 4E75            	  4036:     rts
                            	  4037: 
                            	  4038:     even
                            	  4039: _L_z07_Walker_AltDir_GetMovingOppositeDir_IncreasingDir:
02:00001E1A 101D            	  4040:     move.b  (A5)+,D0  ; PLA
02:00001E1C E308            	  4041:     lsl.b  #1,D0   ; ASL A
02:00001E1E 4E75            	  4042:     rts
                            	  4043: 
                            	  4044:     even
                            	  4045: ReverseObjDir:
                            	  4046:     ; Note:
                            	  4047:     ; Also reverses movement direction in [0F].
                            	  4048:     ;
02:00001E20 41EC0098        	  4049:     lea     ($0098,A4),A0
02:00001E24 10302000        	  4050:     move.b  (A0,D2.W),D0
02:00001E28 61001932        	  4051:     bsr     GetOppositeDir
02:00001E2C 41EC0098        	  4052:     lea     ($0098,A4),A0
02:00001E30 11802000        	  4053:     move.b  D0,(A0,D2.W)
02:00001E34 1940000F        	  4054:     move.b  D0,($000F,A4)
02:00001E38 4E75            	  4055:     rts
                            	  4056: 
                            	  4057:     even
                            	  4058: Walker_AltDir_EndLoop:
02:00001E3A 7000            	  4059:     moveq   #0,D0
02:00001E3C 1940000E        	  4060:     move.b  D0,($000E,A4)
02:00001E40 4E75            	  4061:     rts
                            	  4062: 
                            	  4063: ; Description:
                            	  4064: ; Search for an unblocked direction. Set facing direction to it,
                            	  4065: ; if one is found.
                            	  4066: ;
                            	  4067: ; If not at a square boundary, then return.
                            	  4068: ;
                            	  4069:     even
                            	  4070: _FaceUnblockedDir:
02:00001E42 41EC0394        	  4071:     lea     ($0394,A4),A0
02:00001E46 10302000        	  4072:     move.b  (A0,D2.W),D0
02:00001E4A 6628            	  4073:     bne  L1F1FC_Exit
                            	  4074:     ; Else reset [0E] to start the search for an unblocked direction.
                            	  4075:     ;
02:00001E4C 1940000E        	  4076:     move.b  D0,($000E,A4)
                            	  4077:     even
                            	  4078: _L_z07__FaceUnblockedDir_LoopSearchStep:
02:00001E50 6100FF70        	  4079:     bsr     Walker_GetNextAltDir
                            	  4080:     ; Set the moving direction [0F] to the direction returned.
                            	  4081:     ;
02:00001E54 1940000F        	  4082:     move.b  D0,($000F,A4)
                            	  4083:     ; But quit if none was found.
                            	  4084:     ;
02:00001E58 671A            	  4085:     beq  L1F1FC_Exit
                            	  4086:     ; If blocked in this direction by a tile or the room boundary,
                            	  4087:     ; then loop again.
                            	  4088:     ;
02:00001E5A 6100F8D2        	  4089:     bsr     GetCollidingTileMoving
02:00001E5E 122C034A        	  4090:     move.b  ($034A,A4),D1
02:00001E62 B001            	  4091:     cmp.b   D1,D0
02:00001E64 64EA            	  4092:     bcc  _L_z07__FaceUnblockedDir_LoopSearchStep
02:00001E66 610018E0        	  4093:     bsr     BoundByRoom
02:00001E6A 67E4            	  4094:     beq  _L_z07__FaceUnblockedDir_LoopSearchStep
                            	  4095:     ; Set the facing direction to the one found.
                            	  4096:     ;
02:00001E6C 41EC0098        	  4097:     lea     ($0098,A4),A0
02:00001E70 11802000        	  4098:     move.b  D0,(A0,D2.W)
                            	  4099:     even
                            	  4100: L1F1FC_Exit:
02:00001E74 4E75            	  4101:     rts
                            	  4102: 
                            	  4103:     even
                            	  4104: LinkToLadderOffsetsX:
02:00001E76 00              	  4105:     dc.b    $00, $00, $F0, $10
02:00001E77 00
02:00001E78 F0
02:00001E79 10
                            	  4106: 
                            	  4107:     even
                            	  4108: LinkToLadderOffsetsY:
02:00001E7A FB              	  4109:     dc.b    $FB, $13, $03, $03
02:00001E7B 13
02:00001E7C 03
02:00001E7D 03
                            	  4110: 
                            	  4111:     even
                            	  4112: LinkHeadTiles:
02:00001E7E 02              	  4113:     dc.b    $02, $06, $08, $0A
02:00001E7F 06
02:00001E80 08
02:00001E81 0A
                            	  4114: 
                            	  4115:     even
                            	  4116: LinkHeadMagicShieldTiles:
02:00001E82 80              	  4117:     dc.b    $80, $54, $60, $60
02:00001E83 54
02:00001E84 60
02:00001E85 60
                            	  4118: 
                            	  4119:     even
                            	  4120: LadderRoomsOW:
02:00001E86 17              	  4121:     dc.b    $17, $18, $19, $27, $4F, $5F
02:00001E87 18
02:00001E88 19
02:00001E89 27
02:00001E8A 4F
02:00001E8B 5F
                            	  4122: 
                            	  4123:     even
                            	  4124: Link_EndMoveAndAnimate_Bank4:
02:00001E8C 612A            	  4125:     bsr     Link_EndMoveAndAnimate
02:00001E8E 7004            	  4126:     moveq   #4,D0
02:00001E90 4EF836CC        	  4127:     jmp     SwitchBank
                            	  4128: 
                            	  4129:     even
                            	  4130: Link_EndMoveAndDraw_Bank1:
02:00001E94 6114            	  4131:     bsr     Link_EndMoveAndDraw
                            	  4132: _anon_z07_20:
02:00001E96 7001            	  4133:     moveq   #1,D0
02:00001E98 4EF836CC        	  4134:     jmp     SwitchBank
                            	  4135: 
                            	  4136:     even
                            	  4137: Link_EndMoveAndAnimate_Bank1:
02:00001E9C 611A            	  4138:     bsr     Link_EndMoveAndAnimate
02:00001E9E 4EF81E96        	  4139:     jmp     _anon_z07_20
                            	  4140: 
                            	  4141:     even
                            	  4142: Link_EndMoveAndDraw_Bank4:
02:00001EA2 6106            	  4143:     bsr     Link_EndMoveAndDraw
02:00001EA4 7004            	  4144:     moveq   #4,D0
02:00001EA6 4EF836CC        	  4145:     jmp     SwitchBank
                            	  4146: 
                            	  4147: ; Description:
                            	  4148: ; Draw Link without animating by keeping the animation counter fixed.
                            	  4149: ;
                            	  4150:     even
                            	  4151: Link_EndMoveAndDraw:
02:00001EAA 7006            	  4152:     moveq   #6,D0
02:00001EAC 194003D0        	  4153:     move.b  D0,($03D0,A4)
02:00001EB0 6606            	  4154:     bne  Link_EndMoveAndAnimate
                            	  4155:     even
                            	  4156: Link_EndMoveAndAnimateBetweenRooms:
02:00001EB2 102C0010        	  4157:     move.b  ($0010,A4),D0
02:00001EB6 66BC            	  4158:     bne  L1F1FC_Exit
                            	  4159:     even
                            	  4160: Link_EndMoveAndAnimate:
                            	  4161:     ; Switches bank: 5
                            	  4162:     ;
                            	  4163:     ; If teleporting by whirlwind, then return.
                            	  4164:     ;
02:00001EB8 102C0522        	  4165:     move.b  ($0522,A4),D0
02:00001EBC 66B6            	  4166:     bne  L1F1FC_Exit
                            	  4167:     ; If mode 4 or 6 (not a playing mode), then go check warps and animate.
                            	  4168:     ;
02:00001EBE 1400            	  4169:     move.b  D0,D2
02:00001EC0 102C0012        	  4170:     move.b  ($0012,A4),D0
02:00001EC4 0C000006        	  4171:     cmpi.b  #$06,D0
02:00001EC8 6712            	  4172:     beq  _L_z07_Link_EndMoveAndAnimate_CheckWarpsAndAnimate
02:00001ECA 0C000005        	  4173:     cmpi.b  #$05,D0
02:00001ECE 650C            	  4174:     bcs  _L_z07_Link_EndMoveAndAnimate_CheckWarpsAndAnimate
                            	  4175:     ; If Link's grid offset = 0, go see whether we need to wield the ladder.
                            	  4176:     ; If Link's grid offset is not a multiple of 8, go check warps and animate.
                            	  4177:     ;
02:00001ED0 102C0394        	  4178:     move.b  ($0394,A4),D0
02:00001ED4 671E            	  4179:     beq  _L_z07_Link_EndMoveAndAnimate_CheckLadderRoom
02:00001ED6 02000007        	  4180:     andi.b #$07,D0
02:00001EDA 6704            	  4181:     beq  _L_z07_Link_EndMoveAndAnimate_TruncGridOffset
                            	  4182:     even
                            	  4183: _L_z07_Link_EndMoveAndAnimate_CheckWarpsAndAnimate:
02:00001EDC 4EF81FF0        	  4184:     jmp     _L_z07_Link_EndMoveAndAnimate_CheckWarps
                            	  4185: 
                            	  4186:     even
                            	  4187: _L_z07_Link_EndMoveAndAnimate_TruncGridOffset:
                            	  4188:     ; Grid offset is a multiple of 8. So set it to 0.
                            	  4189:     ; If not in mode 5, go check warps and animate.
                            	  4190:     ;
02:00001EE0 7000            	  4191:     moveq   #0,D0
02:00001EE2 19400394        	  4192:     move.b  D0,($0394,A4)
02:00001EE6 162C0012        	  4193:     move.b  ($0012,A4),D3
02:00001EEA 0C030005        	  4194:     cmpi.b  #$05,D3
02:00001EEE 66EC            	  4195:     bne  _L_z07_Link_EndMoveAndAnimate_CheckWarpsAndAnimate
                            	  4196:     ; Grid offset was a multiple of 8. So, we've stepped a whole tile,
                            	  4197:     ; and need to reset the subroom indicator.
                            	  4198:     ;
                            	  4199:     ; That way, we know not to go into a subroom that we just came out of.
                            	  4200:     ;
02:00001EF0 1940005A        	  4201:     move.b  D0,($005A,A4)
                            	  4202:     even
                            	  4203: _L_z07_Link_EndMoveAndAnimate_CheckLadderRoom:
                            	  4204:     ; If not in mode 5, go check warps and animate.
                            	  4205:     ;
02:00001EF4 102C0012        	  4206:     move.b  ($0012,A4),D0
02:00001EF8 0C000005        	  4207:     cmpi.b  #$05,D0
02:00001EFC 66DE            	  4208:     bne  _L_z07_Link_EndMoveAndAnimate_CheckWarpsAndAnimate
                            	  4209:     ; If in OW and we're not in this list of 6 rooms, go check warps and animate.
                            	  4210:     ;
02:00001EFE 102C0010        	  4211:     move.b  ($0010,A4),D0
02:00001F02 661C            	  4212:     bne  _L_z07_Link_EndMoveAndAnimate_CheckLadder
02:00001F04 102C00EB        	  4213:     move.b  ($00EB,A4),D0
02:00001F08 7605            	  4214:     moveq   #5,D3
                            	  4215:     even
                            	  4216: _L_z07_Link_EndMoveAndAnimate_LoopLadderRoom:
02:00001F0A 41F900001E86    	  4217:     lea     (LadderRoomsOW).l,A0
02:00001F10 12303000        	  4218:     move.b  (A0,D3.W),D1
02:00001F14 B001            	  4219:     cmp.b   D1,D0
02:00001F16 6708            	  4220:     beq  _L_z07_Link_EndMoveAndAnimate_CheckLadder
02:00001F18 5303            	  4221:     subq.b  #1,D3
02:00001F1A 6AEE            	  4222:     bpl  _L_z07_Link_EndMoveAndAnimate_LoopLadderRoom
02:00001F1C 6B0000D2        	  4223:     bmi  _L_z07_Link_EndMoveAndAnimate_CheckWarps
                            	  4224:     even
                            	  4225: _L_z07_Link_EndMoveAndAnimate_CheckLadder:
                            	  4226:     ; If in a doorway or missing the ladder, go check warps and animate.
                            	  4227:     ;
02:00001F20 102C0053        	  4228:     move.b  ($0053,A4),D0
02:00001F24 660000CA        	  4229:     bne  _L_z07_Link_EndMoveAndAnimate_CheckWarps
02:00001F28 102C0663        	  4230:     move.b  ($0663,A4),D0
02:00001F2C 670000C2        	  4231:     beq  _L_z07_Link_EndMoveAndAnimate_CheckWarps
                            	  4232:     ; If Link is halted or using the ladder, go check warps and animate.
                            	  4233:     ;
02:00001F30 102C00AC        	  4234:     move.b  ($00AC,A4),D0
02:00001F34 020000C0        	  4235:     andi.b #$C0,D0
02:00001F38 0C000040        	  4236:     cmpi.b  #$40,D0
02:00001F3C 670000B2        	  4237:     beq  _L_z07_Link_EndMoveAndAnimate_CheckWarps
02:00001F40 102C0064        	  4238:     move.b  ($0064,A4),D0
02:00001F44 660000AA        	  4239:     bne  _L_z07_Link_EndMoveAndAnimate_CheckWarps
                            	  4240:     ; Get the colliding tile in moving direction.
                            	  4241:     ;
02:00001F48 7400            	  4242:     moveq   #0,D2
02:00001F4A 102C0098        	  4243:     move.b  ($0098,A4),D0
02:00001F4E 1940000F        	  4244:     move.b  D0,($000F,A4)
02:00001F52 6100F7DA        	  4245:     bsr     GetCollidingTileMoving
                            	  4246:     ; If in OW and tile is not water (as in < $8D or >= $99), then
                            	  4247:     ; go check warps and animate.
                            	  4248:     ; If in UW, and tile <> $F4, go check warps and animate.
                            	  4249:     ;
02:00001F56 162C0010        	  4250:     move.b  ($0010,A4),D3
02:00001F5A 670A            	  4251:     beq  _L_z07_Link_EndMoveAndAnimate_CheckWaterOW
02:00001F5C 0C0000F4        	  4252:     cmpi.b  #$F4,D0
02:00001F60 6712            	  4253:     beq  _L_z07_Link_EndMoveAndAnimate_SetUpLadder
02:00001F62 6600008C        	  4254:     bne  _L_z07_Link_EndMoveAndAnimate_CheckWarps
                            	  4255:     even
                            	  4256: _L_z07_Link_EndMoveAndAnimate_CheckWaterOW:
02:00001F66 0C00008D        	  4257:     cmpi.b  #$8D,D0
02:00001F6A 65000084        	  4258:     bcs  _L_z07_Link_EndMoveAndAnimate_CheckWarps
02:00001F6E 0C000099        	  4259:     cmpi.b  #$99,D0
02:00001F72 647C            	  4260:     bcc  _L_z07_Link_EndMoveAndAnimate_CheckWarps
                            	  4261:     even
                            	  4262: _L_z07_Link_EndMoveAndAnimate_SetUpLadder:
                            	  4263:     ; Look for an empty monster slot.
                            	  4264:     ; If none found, or input dir = 0, or input direction <> facing direction,
                            	  4265:     ; then go check warps and animate.
                            	  4266:     ;
02:00001F74 610015FC        	  4267:     bsr     FindEmptyMonsterSlot
02:00001F78 6776            	  4268:     beq  _L_z07_Link_EndMoveAndAnimate_CheckWarps
02:00001F7A 102C03F8        	  4269:     move.b  ($03F8,A4),D0
02:00001F7E 6770            	  4270:     beq  _L_z07_Link_EndMoveAndAnimate_CheckWarps
02:00001F80 142C0059        	  4271:     move.b  ($0059,A4),D2
02:00001F84 122C0098        	  4272:     move.b  ($0098,A4),D1
02:00001F88 B001            	  4273:     cmp.b   D1,D0
02:00001F8A 6664            	  4274:     bne  _L_z07_Link_EndMoveAndAnimate_CheckWarps
                            	  4275:     ; X register now holds the ladder's slot.
                            	  4276:     ; Set ladder slot to empty slot found.
                            	  4277:     ; Set ladder's direction to input direction.
                            	  4278:     ;
02:00001F8C 19420064        	  4279:     move.b  D2,($0064,A4)
02:00001F90 41EC0098        	  4280:     lea     ($0098,A4),A0
02:00001F94 11802000        	  4281:     move.b  D0,(A0,D2.W)
                            	  4282:     ; Add appropriate offset to player's position to set the ladder's position.
                            	  4283:     ;
                            	  4284:     ;
                            	  4285:     ; Call this for the reverse direction index.
02:00001F98 610017C2        	  4286:     bsr     GetOppositeDir
02:00001F9C 102C0070        	  4287:     move.b  ($0070,A4),D0
02:00001FA0 023C00EE        	  4288:     andi.b  #$EE,CCR  ; CLC: clear C+X
02:00001FA4 41F900001E76    	  4289:     lea     (LinkToLadderOffsetsX).l,A0
02:00001FAA 12303000        	  4290:     move.b  (A0,D3.W),D1
02:00001FAE D101            	  4291:     addx.b  D1,D0   ; ADC LinkToLadderOffsetsX,Y
02:00001FB0 19802070        	  4292:     move.b  D0,($70,A4,D2.W)
02:00001FB4 102C0084        	  4293:     move.b  ($0084,A4),D0
02:00001FB8 023C00EE        	  4294:     andi.b  #$EE,CCR  ; CLC: clear C+X
02:00001FBC 41F900001E7A    	  4295:     lea     (LinkToLadderOffsetsY).l,A0
02:00001FC2 12303000        	  4296:     move.b  (A0,D3.W),D1
02:00001FC6 D101            	  4297:     addx.b  D1,D0   ; ADC LinkToLadderOffsetsY,Y
02:00001FC8 41EC0084        	  4298:     lea     ($0084,A4),A0
02:00001FCC 11802000        	  4299:     move.b  D0,(A0,D2.W)
                            	  4300:     ; Set the ladder object's type. Reset shove params and invincibility timer.
                            	  4301:     ;
                            	  4302:     ;
                            	  4303:     ; Ladder
02:00001FD0 705F            	  4304:     moveq   #95,D0
02:00001FD2 41EC034F        	  4305:     lea     ($034F,A4),A0
02:00001FD6 11802000        	  4306:     move.b  D0,(A0,D2.W)
02:00001FDA 6100F948        	  4307:     bsr     ResetShoveInfo
02:00001FDE 41EC04F0        	  4308:     lea     ($04F0,A4),A0
02:00001FE2 11802000        	  4309:     move.b  D0,(A0,D2.W)
                            	  4310:     ; Set the initial state of the ladder.
                            	  4311:     ;
02:00001FE6 7001            	  4312:     moveq   #1,D0
02:00001FE8 41EC00AC        	  4313:     lea     ($00AC,A4),A0
02:00001FEC 11802000        	  4314:     move.b  D0,(A0,D2.W)
                            	  4315:     even
                            	  4316: _L_z07_Link_EndMoveAndAnimate_CheckWarps:
                            	  4317:     ; If in mode 5, check warps.
                            	  4318:     ;
                            	  4319:     ;
                            	  4320:     ; Set X to 0 to refer to Link object.
02:00001FF0 7400            	  4321:     moveq   #0,D2
02:00001FF2 102C0012        	  4322:     move.b  ($0012,A4),D0
02:00001FF6 0C000005        	  4323:     cmpi.b  #$05,D0
02:00001FFA 6618            	  4324:     bne  _L_z07_Link_EndMoveAndAnimate_Animate
02:00001FFC 102C049E        	  4325:     move.b  ($049E,A4),D0
02:00002000 1B00            	  4326:     move.b  D0,-(A5)  ; PHA
02:00002002 7005            	  4327:     moveq   #5,D0
02:00002004 610016C6        	  4328:     bsr     SwitchBank
02:00002008 61001862        	  4329:     bsr     CheckWarps
02:0000200C 7400            	  4330:     moveq   #0,D2
02:0000200E 101D            	  4331:     move.b  (A5)+,D0  ; PLA
02:00002010 1940049E        	  4332:     move.b  D0,($049E,A4)
                            	  4333:     even
                            	  4334: _L_z07_Link_EndMoveAndAnimate_Animate:
                            	  4335:     ; Animate Link.
                            	  4336:     ;
02:00002014 61000DA6        	  4337:     bsr     AnimateLinkBase
02:00002018 102C0012        	  4338:     move.b  ($0012,A4),D0
02:0000201C 0C000009        	  4339:     cmpi.b  #$09,D0
02:00002020 6706            	  4340:     beq  _L_z07_Link_EndMoveAndAnimate_ShiftDown2Pixels
02:00002022 102C0010        	  4341:     move.b  ($0010,A4),D0
02:00002026 6608            	  4342:     bne  _L_z07_Link_EndMoveAndAnimate_ChangeLookForState
                            	  4343:     even
                            	  4344: _L_z07_Link_EndMoveAndAnimate_ShiftDown2Pixels:
02:00002028 522C0001        	  4345:     addq.b  #1,($0001,A4)
02:0000202C 522C0001        	  4346:     addq.b  #1,($0001,A4)
                            	  4347:     even
                            	  4348: _L_z07_Link_EndMoveAndAnimate_ChangeLookForState:
                            	  4349:     ; Now change Link's look for specific states and items.
                            	  4350:     ;
                            	  4351:     ; If Link is attacking or using an item,
                            	  4352:     ; then add 4 to frame to use the "attack/use item" frames.
02:00002030 102C00AC        	  4353:     move.b  ($00AC,A4),D0
02:00002034 02000030        	  4354:     andi.b #$30,D0
02:00002038 0C000010        	  4355:     cmpi.b  #$10,D0
02:0000203C 6706            	  4356:     beq  _L_z07_Link_EndMoveAndAnimate_WieldingObject
02:0000203E 0C000020        	  4357:     cmpi.b  #$20,D0
02:00002042 660E            	  4358:     bne  _L_z07_Link_EndMoveAndAnimate_Draw
                            	  4359:     even
                            	  4360: _L_z07_Link_EndMoveAndAnimate_WieldingObject:
02:00002044 1003            	  4361:     move.b  D3,D0
02:00002046 023C00EE        	  4362:     andi.b  #$EE,CCR  ; CLC: clear C+X
02:0000204A 123C0004        	  4363:     move.b  #$04,D1
02:0000204E D101            	  4364:     addx.b  D1,D0   ; ADC #$04 (X flag = 6502 C)
02:00002050 1600            	  4365:     move.b  D0,D3
                            	  4366:     even
                            	  4367: _L_z07_Link_EndMoveAndAnimate_Draw:
02:00002052 1003            	  4368:     move.b  D3,D0
02:00002054 7600            	  4369:     moveq   #0,D3
02:00002056 610016FE        	  4370:     bsr     DrawObjectWithAnim
                            	  4371:     ; See if there's special processing needed for the shield.
                            	  4372:     ;
02:0000205A 102C0676        	  4373:     move.b  ($0676,A4),D0
02:0000205E 662A            	  4374:     bne  _L_z07_Link_EndMoveAndAnimate_HandleMagicShield
                            	  4375:     ; No magic shield.
                            	  4376:     ;
02:00002060 102C0098        	  4377:     move.b  ($0098,A4),D0
02:00002064 0C000004        	  4378:     cmpi.b  #$04,D0
02:00002068 6678            	  4379:     bne  L1F36A_Exit
02:0000206A 7401            	  4380:     moveq   #1,D2
02:0000206C 41EC0248        	  4381:     lea     ($0248,A4),A0
02:00002070 10302000        	  4382:     move.b  (A0,D2.W),D0
02:00002074 0C00000B        	  4383:     cmpi.b  #$0B,D0
02:00002078 6468            	  4384:     bcc  L1F36A_Exit
02:0000207A 1B00            	  4385:     move.b  D0,-(A5)  ; PHA
02:0000207C 023C00EE        	  4386:     andi.b  #$EE,CCR  ; CLC: clear C+X
02:00002080 123C0050        	  4387:     move.b  #$50,D1
02:00002084 D101            	  4388:     addx.b  D1,D0   ; ADC #$50 (X flag = 6502 C)
02:00002086 4EF820BE        	  4389:     jmp     _L_z07_Link_EndMoveAndAnimate_ApplyShieldSprite
                            	  4390: 
                            	  4391:     even
                            	  4392: _L_z07_Link_EndMoveAndAnimate_HandleMagicShield:
                            	  4393:     ; Magic shield.
                            	  4394:     ;
                            	  4395:     ;
                            	  4396:     ; Look at the left tile.
02:0000208A 7401            	  4397:     moveq   #1,D2
02:0000208C 102C0098        	  4398:     move.b  ($0098,A4),D0
02:00002090 E208            	  4399:     lsr.b  #1,D0   ; LSR A
02:00002092 6402            	  4400:     bcc  _anon_z07_21
02:00002094 7405            	  4401:     moveq   #5,D2
                            	  4402: _anon_z07_21:
02:00002096 7604            	  4403:     moveq   #4,D3
02:00002098 41EC0248        	  4404:     lea     ($0248,A4),A0
02:0000209C 10302000        	  4405:     move.b  (A0,D2.W),D0
02:000020A0 1B00            	  4406:     move.b  D0,-(A5)  ; PHA
                            	  4407:     even
                            	  4408: _L_z07_Link_EndMoveAndAnimate_LoopHeadTile:
                            	  4409:     ; Compare the sprite's tile with 4 tiles: 1 for each direction.
                            	  4410:     ;
02:000020A2 5303            	  4411:     subq.b  #1,D3
02:000020A4 6B20            	  4412:     bmi  _L_z07_Link_EndMoveAndAnimate_FixHFlip
02:000020A6 41F900001E7E    	  4413:     lea     (LinkHeadTiles).l,A0
02:000020AC 12303000        	  4414:     move.b  (A0,D3.W),D1
02:000020B0 B001            	  4415:     cmp.b   D1,D0
02:000020B2 66EE            	  4416:     bne  _L_z07_Link_EndMoveAndAnimate_LoopHeadTile
02:000020B4 41F900001E82    	  4417:     lea     (LinkHeadMagicShieldTiles).l,A0
02:000020BA 10303000        	  4418:     move.b  (A0,D3.W),D0
                            	  4419:     even
                            	  4420: _L_z07_Link_EndMoveAndAnimate_ApplyShieldSprite:
                            	  4421:     ; Apply the sprite's modification for the shield.
                            	  4422:     ;
02:000020BE 41EC0248        	  4423:     lea     ($0248,A4),A0
02:000020C2 11802000        	  4424:     move.b  D0,(A0,D2.W)
                            	  4425:     even
                            	  4426: _L_z07_Link_EndMoveAndAnimate_FixHFlip:
02:000020C6 101D            	  4427:     move.b  (A5)+,D0  ; PLA
02:000020C8 0C00000A        	  4428:     cmpi.b  #$0A,D0
02:000020CC 6614            	  4429:     bne  L1F36A_Exit
                            	  4430:     ; It's a down facing tile. Make sure it's not flipped,
                            	  4431:     ; because there's only 1 frame of downward shield tile.
02:000020CE 41EC0249        	  4432:     lea     ($0249,A4),A0
02:000020D2 10302000        	  4433:     move.b  (A0,D2.W),D0
02:000020D6 0200000F        	  4434:     andi.b #$0F,D0
02:000020DA 41EC0249        	  4435:     lea     ($0249,A4),A0
02:000020DE 11802000        	  4436:     move.b  D0,(A0,D2.W)
                            	  4437:     even
                            	  4438: L1F36A_Exit:
02:000020E2 4E75            	  4439:     rts
                            	  4440: 
                            	  4441: ; Sprite attributes that flip each corner of the spread shot
                            	  4442: ; differently: H, H-V, V, 0
                            	  4443: ;
                            	  4444:     even
                            	  4445: SwordShotSpreadBaseAttr:
02:000020E4 40              	  4446:     dc.b    $40, $C0, $80, $00
02:000020E5 C0
02:000020E6 80
02:000020E7 00
                            	  4447: 
                            	  4448:     even
                            	  4449: UpdateSwordShotOrMagicShot:
                            	  4450:     ; If the shot is not active, return.
                            	  4451:     ;
02:000020E8 41EC00AC        	  4452:     lea     ($00AC,A4),A0
02:000020EC 10302000        	  4453:     move.b  (A0,D2.W),D0
02:000020F0 67F0            	  4454:     beq  L1F36A_Exit
                            	  4455:     ; If low bit is set, go handle shot spreading out.
                            	  4456:     ;
02:000020F2 E208            	  4457:     lsr.b  #1,D0   ; LSR A
02:000020F4 6404            	  4458:     bcc  _anon_z07_22
02:000020F6 4EF82248        	  4459:     jmp     SpreadShot
                            	  4460: 
                            	  4461: _anon_z07_22:
                            	  4462:     ; Move the shot.
                            	  4463:     ;
02:000020FA 41EC0394        	  4464:     lea     ($0394,A4),A0
02:000020FE 10302000        	  4465:     move.b  (A0,D2.W),D0
                            	  4466:     bne  _anon_z07_23
                            	  4467: _anon_z07_23:
02:00002102 41EC0098        	  4468:     lea     ($0098,A4),A0
02:00002106 10302000        	  4469:     move.b  (A0,D2.W),D0
02:0000210A 61001660        	  4470:     bsr     MoveShot
                            	  4471:     ; If movement was blocked, go handle the situation.
                            	  4472:     ;
02:0000210E 102C000F        	  4473:     move.b  ($000F,A4),D0
02:00002112 6700009E        	  4474:     beq  HandleShotBlocked
                            	  4475:     ; If grid offset is a multiple of 8, reset it.
                            	  4476:     ;
02:00002116 41EC0394        	  4477:     lea     ($0394,A4),A0
02:0000211A 10302000        	  4478:     move.b  (A0,D2.W),D0
02:0000211E 02000007        	  4479:     andi.b #$07,D0
02:00002122 6608            	  4480:     bne  DrawSwordShotOrMagicShot
02:00002124 41EC0394        	  4481:     lea     ($0394,A4),A0
02:00002128 11802000        	  4482:     move.b  D0,(A0,D2.W)
                            	  4483:     even
                            	  4484: DrawSwordShotOrMagicShot:
                            	  4485:     ; Prepare the sprite position.
                            	  4486:     ;
02:0000212C 61000D1A        	  4487:     bsr     Anim_FetchObjPosForSpriteDescriptor
                            	  4488:     ; If the direction is horizontal, move the sprites down 3 pixels.
                            	  4489:     ;
02:00002130 41EC0098        	  4490:     lea     ($0098,A4),A0
02:00002134 10302000        	  4491:     move.b  (A0,D2.W),D0
02:00002138 1B00            	  4492:     move.b  D0,-(A5)  ; PHA
02:0000213A 02000003        	  4493:     andi.b #$03,D0
02:0000213E 6712            	  4494:     beq  _L_z07_DrawSwordShotOrMagicShot_Flash
02:00002140 102C0001        	  4495:     move.b  ($0001,A4),D0
02:00002144 023C00EE        	  4496:     andi.b  #$EE,CCR  ; CLC: clear C+X
02:00002148 123C0003        	  4497:     move.b  #$03,D1
02:0000214C D101            	  4498:     addx.b  D1,D0   ; ADC #$03 (X flag = 6502 C)
02:0000214E 19400001        	  4499:     move.b  D0,($0001,A4)
                            	  4500:     even
                            	  4501: _L_z07_DrawSwordShotOrMagicShot_Flash:
02:00002152 101D            	  4502:     move.b  (A5)+,D0  ; PLA
                            	  4503:     ; Set the sprite attributes to (base attribute OR (frame counter AND 3)).
                            	  4504:     ; This makes the shot flash by cycling all the palettes, one each frame.
                            	  4505:     ;
                            	  4506:     ;
                            	  4507:     ; Call this only to get reverse direction index.
02:00002154 61001606        	  4508:     bsr     GetOppositeDir
02:00002158 102C0015        	  4509:     move.b  ($0015,A4),D0
02:0000215C 02000003        	  4510:     andi.b #$03,D0
02:00002160 41F9000023F2    	  4511:     lea     (RDirectionToWeaponBaseAttribute).l,A0
02:00002166 12303000        	  4512:     move.b  (A0,D3.W),D1
02:0000216A 8001            	  4513:     or.b  D1,D0
02:0000216C 610015CA        	  4514:     bsr     Anim_SetSpriteDescriptorAttributes
                            	  4515:     ; Set [0C] to the correct frame for the direction: horizontal or vertical.
                            	  4516:     ;
02:00002170 41F9000023EE    	  4517:     lea     (RDirectionToWeaponFrame).l,A0
02:00002176 10303000        	  4518:     move.b  (A0,D3.W),D0
02:0000217A 1940000C        	  4519:     move.b  D0,($000C,A4)
                            	  4520:     ; If the direction is left, flip the right facing image by setting [0F] to 1.
                            	  4521:     ;
02:0000217E 0C030002        	  4522:     cmpi.b  #$02,D3
02:00002182 6604            	  4523:     bne  _anon_z07_24
02:00002184 522C000F        	  4524:     addq.b  #1,($000F,A4)
                            	  4525: _anon_z07_24:
                            	  4526:     ; If this a monster's shot, choose the item slot for drawing based on object type.
                            	  4527:     ;   $57 (sword shot) => $22
                            	  4528:     ;   other (presumably $58 or $59, magic shot) => $23
                            	  4529:     ;
02:00002188 7622            	  4530:     moveq   #34,D3
02:0000218A 0C02000D        	  4531:     cmpi.b  #$0D,D2
02:0000218E 6410            	  4532:     bcc  _L_z07_DrawSwordShotOrMagicShot_PlayerShot
02:00002190 41EC034F        	  4533:     lea     ($034F,A4),A0
02:00002194 10302000        	  4534:     move.b  (A0,D2.W),D0
02:00002198 0C000057        	  4535:     cmpi.b  #$57,D0
02:0000219C 6710            	  4536:     beq  _L_z07_DrawSwordShotOrMagicShot_WriteSprites
02:0000219E 660C            	  4537:     bne  _L_z07_DrawSwordShotOrMagicShot_WriteMagicSprites
                            	  4538:     even
                            	  4539: _L_z07_DrawSwordShotOrMagicShot_PlayerShot:
                            	  4540:     ; But if the player shot it, the choice depends on the shot's state.
                            	  4541:     ;   high bit set (magic)   => $23
                            	  4542:     ;   high bit clear (sword) => $22
                            	  4543:     ;
02:000021A0 41EC00AC        	  4544:     lea     ($00AC,A4),A0
02:000021A4 10302000        	  4545:     move.b  (A0,D2.W),D0
02:000021A8 E308            	  4546:     lsl.b  #1,D0   ; ASL A
02:000021AA 6402            	  4547:     bcc  _L_z07_DrawSwordShotOrMagicShot_WriteSprites
                            	  4548:     even
                            	  4549: _L_z07_DrawSwordShotOrMagicShot_WriteMagicSprites:
02:000021AC 7623            	  4550:     moveq   #35,D3
                            	  4551:     even
                            	  4552: _L_z07_DrawSwordShotOrMagicShot_WriteSprites:
02:000021AE 4EF8373C        	  4553:     jmp     Anim_WriteItemSprites
                            	  4554: 
                            	  4555: ; Params:
                            	  4556: ; X: shot object index
                            	  4557: ;
                            	  4558: ; If the object is a sword shot, go spread out the shot.
                            	  4559: ;
                            	  4560:     even
                            	  4561: HandleShotBlocked:
02:000021B2 41EC00AC        	  4562:     lea     ($00AC,A4),A0
02:000021B6 10302000        	  4563:     move.b  (A0,D2.W),D0
02:000021BA E308            	  4564:     lsl.b  #1,D0   ; ASL A
02:000021BC 6474            	  4565:     bcc  SetShotSpreadingState
                            	  4566:     ; This is a magic shot.
                            	  4567:     ;
                            	  4568:     ; If missing the magic book, go deactivate the shot object.
                            	  4569:     ;
02:000021BE 102C0661        	  4570:     move.b  ($0661,A4),D0
02:000021C2 676A            	  4571:     beq  DeactivateShot
                            	  4572:     ; Try to activate a fire object. Temporarily mark the candle
                            	  4573:     ; unused, so it only has to depend on having an empty slot.
                            	  4574:     ;
                            	  4575:     ; If successful, Link's state will have been changed to "using item".
                            	  4576:     ; But we don't want that in this case.
                            	  4577:     ;
                            	  4578:     ; For both these reasons, save state and restore it afterward.
                            	  4579:     ;
02:000021C4 102C00AC        	  4580:     move.b  ($00AC,A4),D0
02:000021C8 1B00            	  4581:     move.b  D0,-(A5)  ; PHA
02:000021CA 102C0513        	  4582:     move.b  ($0513,A4),D0
02:000021CE 1B00            	  4583:     move.b  D0,-(A5)  ; PHA
02:000021D0 7000            	  4584:     moveq   #0,D0
02:000021D2 19400513        	  4585:     move.b  D0,($0513,A4)
02:000021D6 610015B0        	  4586:     bsr     WieldCandle
02:000021DA 101D            	  4587:     move.b  (A5)+,D0  ; PLA
02:000021DC 19400513        	  4588:     move.b  D0,($0513,A4)
02:000021E0 101D            	  4589:     move.b  (A5)+,D0  ; PLA
02:000021E2 194000AC        	  4590:     move.b  D0,($00AC,A4)
                            	  4591:     ; State $21 means that a moving fire was just made.
                            	  4592:     ;
                            	  4593:     ; If it's any another value, then we didn't find an empty slot
                            	  4594:     ; to make a fire. In this case, all that's left to do is to go
                            	  4595:     ; deactivate the shot object.
                            	  4596:     ;
02:000021E6 41EC00AC        	  4597:     lea     ($00AC,A4),A0
02:000021EA 10302000        	  4598:     move.b  (A0,D2.W),D0
02:000021EE 0C000021        	  4599:     cmpi.b  #$21,D0
02:000021F2 6638            	  4600:     bne  DeactivateLinkShot
                            	  4601:     ; Make state $22 for a standing fire.
                            	  4602:     ;
02:000021F4 41EC00AC        	  4603:     lea     ($00AC,A4),A0
02:000021F8 52302000        	  4604:     addq.b  #1,(A0,D2.W)
                            	  4605:     ; Copy the shot's position and direction to the fire.
                            	  4606:     ;
02:000021FC 760E            	  4607:     moveq   #14,D3
02:000021FE 10343070        	  4608:     move.b  ($70,A4,D3.W),D0
02:00002202 19802070        	  4609:     move.b  D0,($70,A4,D2.W)
02:00002206 41EC0084        	  4610:     lea     ($0084,A4),A0
02:0000220A 10303000        	  4611:     move.b  (A0,D3.W),D0
02:0000220E 41EC0084        	  4612:     lea     ($0084,A4),A0
02:00002212 11802000        	  4613:     move.b  D0,(A0,D2.W)
02:00002216 41EC0098        	  4614:     lea     ($0098,A4),A0
02:0000221A 10303000        	  4615:     move.b  (A0,D3.W),D0
02:0000221E 41EC0098        	  4616:     lea     ($0098,A4),A0
02:00002222 11802000        	  4617:     move.b  D0,(A0,D2.W)
                            	  4618:     ; The fire lasts $4F frames.
                            	  4619:     ; Deactivate the shot.
                            	  4620:     ;
02:00002226 704F            	  4621:     moveq   #79,D0
02:00002228 19802028        	  4622:     move.b  D0,($28,A4,D2.W)
                            	  4623:     even
                            	  4624: DeactivateLinkShot:
02:0000222C 740E            	  4625:     moveq   #14,D2
                            	  4626:     even
                            	  4627: DeactivateShot:
02:0000222E 4EF82A5A        	  4628:     jmp     ResetObjState
                            	  4629: 
                            	  4630:     even
                            	  4631: SetShotSpreadingState:
                            	  4632:     ; MULTI: ObjDir -> ObjSwordShotNegativeOffset
                            	  4633:     ;
                            	  4634:     ; Set the state to spreading out (low bit is set).
                            	  4635:     ;
                            	  4636:     ; Set [98][X] to base negative offset -2. This is how far the left
                            	  4637:     ; corners will be shown relative to the center point at object X, Y.
                            	  4638:     ; The right corners will be shown 2 pixels in the opposite direction
                            	  4639:     ; of the center point.
                            	  4640:     ;
02:00002232 41EC00AC        	  4641:     lea     ($00AC,A4),A0
02:00002236 52302000        	  4642:     addq.b  #1,(A0,D2.W)
02:0000223A 103C00FE        	  4643:     move.b  #$FE,D0
02:0000223E 41EC0098        	  4644:     lea     ($0098,A4),A0
02:00002242 11802000        	  4645:     move.b  D0,(A0,D2.W)
02:00002246 4E75            	  4646:     rts
                            	  4647: 
                            	  4648:     even
                            	  4649: SpreadShot:
                            	  4650:     ; MULTI: ObjDir -> ObjSwordShotNegativeOffset
                            	  4651:     ;
                            	  4652:     ; The shot is spreading out.
                            	  4653:     ;
                            	  4654:     ; Copy base negative offset in [98][X] to [02] and [03].
                            	  4655:     ; These will be negated appropriately for each corner.
                            	  4656:     ;
02:00002248 41EC0098        	  4657:     lea     ($0098,A4),A0
02:0000224C 10302000        	  4658:     move.b  (A0,D2.W),D0
02:00002250 19400002        	  4659:     move.b  D0,($0002,A4)
02:00002254 19400003        	  4660:     move.b  D0,($0003,A4)
                            	  4661:     ; Reset [0F] to not flip horizontally.
                            	  4662:     ;
02:00002258 7000            	  4663:     moveq   #0,D0
02:0000225A 1940000F        	  4664:     move.b  D0,($000F,A4)
                            	  4665:     ; Loop 4 times to draw each corner of the spreading sword shot.
                            	  4666:     ; The corners are: top-left, bottom-left, bottom-right, top-right
                            	  4667:     ;
02:0000225E 7603            	  4668:     moveq   #3,D3
                            	  4669:     even
                            	  4670: _L_z07_SpreadShot_DrawShotCorner:
02:00002260 1003            	  4671:     move.b  D3,D0
02:00002262 1B00            	  4672:     move.b  D0,-(A5)  ; PHA
                            	  4673:     ; Save offset X [02] and Y offset [03].
                            	  4674:     ;
02:00002264 102C0002        	  4675:     move.b  ($0002,A4),D0
02:00002268 1B00            	  4676:     move.b  D0,-(A5)  ; PHA
02:0000226A 102C0003        	  4677:     move.b  ($0003,A4),D0
02:0000226E 1B00            	  4678:     move.b  D0,-(A5)  ; PHA
                            	  4679:     ; Calculate and set sprite attributes for this corner:
                            	  4680:     ;   base attribute OR (frame counter AND 3)
                            	  4681:     ;
                            	  4682:     ; The base attribute defines how to flip the sprite.
                            	  4683:     ; The frame counter makes the shot flash by cycling each
                            	  4684:     ; palette row.
                            	  4685:     ;
02:00002270 102C0015        	  4686:     move.b  ($0015,A4),D0
02:00002274 02000003        	  4687:     andi.b #$03,D0
02:00002278 41F9000020E4    	  4688:     lea     (SwordShotSpreadBaseAttr).l,A0
02:0000227E 12303000        	  4689:     move.b  (A0,D3.W),D1
02:00002282 8001            	  4690:     or.b  D1,D0
02:00002284 610014B2        	  4691:     bsr     Anim_SetSpriteDescriptorAttributes
                            	  4692:     ; Add the object's X (the center of the spread) and the
                            	  4693:     ; current offset in [02] to set sprite X in [00].
                            	  4694:     ;
02:00002288 10342070        	  4695:     move.b  ($70,A4,D2.W),D0
02:0000228C 023C00EE        	  4696:     andi.b  #$EE,CCR  ; CLC: clear C+X
02:00002290 122C0002        	  4697:     move.b  ($0002,A4),D1
02:00002294 D101            	  4698:     addx.b  D1,D0   ; ADC $02
02:00002296 1880            	  4699:     move.b  D0,($0000,A4)
                            	  4700:     ; If sprite X >= object X and sprite X >= $FC, skip this corner.
                            	  4701:     ; Else calculate the distance from object X to sprite X.
                            	  4702:     ;
02:00002298 12342070        	  4703:     move.b  ($70,A4,D2.W),D1
02:0000229C B001            	  4704:     cmp.b   D1,D0
02:0000229E 650E            	  4705:     bcs  _L_z07_SpreadShot_ReverseSub
02:000022A0 0C0000FC        	  4706:     cmpi.b  #$FC,D0
02:000022A4 644E            	  4707:     bcc  _L_z07_SpreadShot_NextCorner
02:000022A6 003C0011        	  4708:     ori.b   #$11,CCR  ; SEC: set C+X
                            	  4709: ; [SBC unhandled mode=ABS_X] SBC ObjX, X
02:000022AA 4EF822BA        	  4710:     jmp     _L_z07_SpreadShot_CheckDistance
                            	  4711: 
                            	  4712:     even
                            	  4713: _L_z07_SpreadShot_ReverseSub:
02:000022AE 10342070        	  4714:     move.b  ($70,A4,D2.W),D0
02:000022B2 003C0011        	  4715:     ori.b   #$11,CCR  ; SEC: set C+X
02:000022B6 1214            	  4716:     move.b  ($0000,A4),D1
02:000022B8 9101            	  4717:     subx.b  D1,D0   ; SBC $00
                            	  4718:     even
                            	  4719: _L_z07_SpreadShot_CheckDistance:
                            	  4720:     ; If distance >= $20, skip this corner.
                            	  4721:     ;
02:000022BA 0C000020        	  4722:     cmpi.b  #$20,D0
02:000022BE 6434            	  4723:     bcc  _L_z07_SpreadShot_NextCorner
                            	  4724:     ; Add the object's Y (the center of the spread) and the
                            	  4725:     ; current offset in [03] to set sprite Y in [01].
                            	  4726:     ;
02:000022C0 41EC0084        	  4727:     lea     ($0084,A4),A0
02:000022C4 10302000        	  4728:     move.b  (A0,D2.W),D0
02:000022C8 023C00EE        	  4729:     andi.b  #$EE,CCR  ; CLC: clear C+X
02:000022CC 122C0003        	  4730:     move.b  ($0003,A4),D1
02:000022D0 D101            	  4731:     addx.b  D1,D0   ; ADC $03
02:000022D2 19400001        	  4732:     move.b  D0,($0001,A4)
                            	  4733:     ; If in UW, and (sprite Y < $3E or >= $E8), then skip this corner.
                            	  4734:     ;
02:000022D6 162C0010        	  4735:     move.b  ($0010,A4),D3
02:000022DA 670C            	  4736:     beq  _L_z07_SpreadShot_Draw
02:000022DC 0C00003E        	  4737:     cmpi.b  #$3E,D0
02:000022E0 6512            	  4738:     bcs  _L_z07_SpreadShot_NextCorner
02:000022E2 0C0000E8        	  4739:     cmpi.b  #$E8,D0
02:000022E6 640C            	  4740:     bcc  _L_z07_SpreadShot_NextCorner
                            	  4741:     even
                            	  4742: _L_z07_SpreadShot_Draw:
                            	  4743:     ; Draw the corner.
                            	  4744:     ; Pass [0C] = frame 2 (spread shot), Y = $23 (sword 2).
                            	  4745:     ;
02:000022E8 7002            	  4746:     moveq   #2,D0
02:000022EA 1940000C        	  4747:     move.b  D0,($000C,A4)
02:000022EE 7623            	  4748:     moveq   #35,D3
02:000022F0 6100144A        	  4749:     bsr     Anim_WriteItemSprites
                            	  4750:     even
                            	  4751: _L_z07_SpreadShot_NextCorner:
                            	  4752:     ; Prepare to process the next corner.
                            	  4753:     ;
                            	  4754:     ; First, restore X offset [02] and Y offset [03].
                            	  4755:     ;
02:000022F4 101D            	  4756:     move.b  (A5)+,D0  ; PLA
02:000022F6 19400003        	  4757:     move.b  D0,($0003,A4)
02:000022FA 101D            	  4758:     move.b  (A5)+,D0  ; PLA
02:000022FC 19400002        	  4759:     move.b  D0,($0002,A4)
                            	  4760:     ; Take turns negating X offset or Y offset for the next round.
                            	  4761:     ; - First turn:  loop index = 3, negate Y offset [03]
                            	  4762:     ; - Second turn: loop index = 2, negate X offset [02]
                            	  4763:     ; - Third turn:  loop index = 1, negate Y offset [03]
                            	  4764:     ; - Fourth turn: doesn't matter
                            	  4765:     ;
                            	  4766:     ;
                            	  4767:     ; Get the loop index.
02:00002300 101D            	  4768:     move.b  (A5)+,D0  ; PLA
02:00002302 1B00            	  4769:     move.b  D0,-(A5)  ; PHA
02:00002304 1600            	  4770:     move.b  D0,D3
02:00002306 0C030001        	  4771:     cmpi.b  #$01,D3
02:0000230A 6602            	  4772:     bne  _anon_z07_25
02:0000230C 7603            	  4773:     moveq   #3,D3
                            	  4774: _anon_z07_25:
02:0000230E 10343000        	  4775:     move.b  ($00,A4,D3.W),D0
02:00002312 4600            	  4776:     eori.b #$FF,D0
02:00002314 023C00EE        	  4777:     andi.b  #$EE,CCR  ; CLC: clear C+X
02:00002318 123C0001        	  4778:     move.b  #$01,D1
02:0000231C D101            	  4779:     addx.b  D1,D0   ; ADC #$01 (X flag = 6502 C)
02:0000231E 19803000        	  4780:     move.b  D0,($00,A4,D3.W)
                            	  4781:     ; Restore the loop index, decrement it, and loop again if >= 0.
                            	  4782:     ;
02:00002322 101D            	  4783:     move.b  (A5)+,D0  ; PLA
02:00002324 1600            	  4784:     move.b  D0,D3
02:00002326 5303            	  4785:     subq.b  #1,D3
02:00002328 6A00FF36        	  4786:     bpl  _L_z07_SpreadShot_DrawShotCorner
                            	  4787:     ; MULTI: ObjDir -> ObjSwordShotNegativeOffset
                            	  4788:     ;
                            	  4789:     ; Decrease the base negative offset to get farther away from
                            	  4790:     ; the center point.
                            	  4791:     ;
02:0000232C 41EC0098        	  4792:     lea     ($0098,A4),A0
02:00002330 53302000        	  4793:     subq.b  #1,(A0,D2.W)
                            	  4794:     ; MULTI: ObjDir -> ObjSwordShotNegativeOffset
                            	  4795:     ;
                            	  4796:     ; Once the base negative offset reaches $E8, go deactivate the object.
                            	  4797:     ;
02:00002334 41EC0098        	  4798:     lea     ($0098,A4),A0
02:00002338 10302000        	  4799:     move.b  (A0,D2.W),D0
02:0000233C 0C0000E8        	  4800:     cmpi.b  #$E8,D0
02:00002340 6604            	  4801:     bne  L1F49F_Exit
02:00002342 4EF8222C        	  4802:     jmp     DeactivateLinkShot
                            	  4803: 
                            	  4804:     even
                            	  4805: L1F49F_Exit:
02:00002346 4E75            	  4806:     rts
                            	  4807: 
                            	  4808:     even
                            	  4809: UpdateBoomerangOrFood:
                            	  4810:     ; If state = 0, then not active. So, return.
                            	  4811:     ;
02:00002348 41EC00AC        	  4812:     lea     ($00AC,A4),A0
02:0000234C 10302000        	  4813:     move.b  (A0,D2.W),D0
02:00002350 67F4            	  4814:     beq  L1F49F_Exit
                            	  4815:     ; If the high bit of state is clear, then go update the boomerang.
                            	  4816:     ;
02:00002352 E308            	  4817:     lsl.b  #1,D0   ; ASL A
02:00002354 640000A8        	  4818:     bcc  UpdateArrowOrBoomerang
                            	  4819:     ; The object is food.
                            	  4820:     ;
                            	  4821:     ; Once the timer has expired, increment the state and set timer to $FF.
                            	  4822:     ; If we reach state $83, then go deactivate the object.
                            	  4823:     ;
                            	  4824:     ; Nothing changes between the states. So, they are used as
                            	  4825:     ; a way to extend the timer. $2FD screen frames in total.
                            	  4826:     ;
02:00002358 10342028        	  4827:     move.b  ($28,A4,D2.W),D0
02:0000235C 6622            	  4828:     bne  _L_z07_UpdateBoomerangOrFood_CheckMonsterType
02:0000235E 41EC00AC        	  4829:     lea     ($00AC,A4),A0
02:00002362 52302000        	  4830:     addq.b  #1,(A0,D2.W)
02:00002366 41EC00AC        	  4831:     lea     ($00AC,A4),A0
02:0000236A 10302000        	  4832:     move.b  (A0,D2.W),D0
02:0000236E 0200000F        	  4833:     andi.b #$0F,D0
02:00002372 0C000003        	  4834:     cmpi.b  #$03,D0
02:00002376 674A            	  4835:     beq  _L_z07_UpdateBoomerangOrFood_Deactivate
02:00002378 103C00FF        	  4836:     move.b  #$FF,D0
02:0000237C 19802028        	  4837:     move.b  D0,($28,A4,D2.W)
                            	  4838:     even
                            	  4839: _L_z07_UpdateBoomerangOrFood_CheckMonsterType:
                            	  4840:     ; If the template object type in the room is one of:
                            	  4841:     ; moblin, goriya, octorock, vire, keese
                            	  4842:     ; then attract these monsters to the food.
                            	  4843:     ;
                            	  4844:     ; They will chase the food instead of Link when given a chance.
                            	  4845:     ;
02:00002380 102C035F        	  4846:     move.b  ($035F,A4),D0
02:00002384 0C000003        	  4847:     cmpi.b  #$03,D0
02:00002388 652C            	  4848:     bcs  _L_z07_UpdateBoomerangOrFood_Draw
02:0000238A 0C00000B        	  4849:     cmpi.b  #$0B,D0
02:0000238E 6512            	  4850:     bcs  _L_z07_UpdateBoomerangOrFood_AttractMonsters
02:00002390 0C000012        	  4851:     cmpi.b  #$12,D0
02:00002394 670C            	  4852:     beq  _L_z07_UpdateBoomerangOrFood_AttractMonsters
02:00002396 0C00001B        	  4853:     cmpi.b  #$1B,D0
02:0000239A 6706            	  4854:     beq  _L_z07_UpdateBoomerangOrFood_AttractMonsters
02:0000239C 0C00001C        	  4855:     cmpi.b  #$1C,D0
02:000023A0 6614            	  4856:     bne  _L_z07_UpdateBoomerangOrFood_Draw
                            	  4857:     even
                            	  4858: _L_z07_UpdateBoomerangOrFood_AttractMonsters:
02:000023A2 10342070        	  4859:     move.b  ($70,A4,D2.W),D0
02:000023A6 19400061        	  4860:     move.b  D0,($0061,A4)
02:000023AA 41EC0084        	  4861:     lea     ($0084,A4),A0
02:000023AE 10302000        	  4862:     move.b  (A0,D2.W),D0
02:000023B2 19400062        	  4863:     move.b  D0,($0062,A4)
                            	  4864:     even
                            	  4865: _L_z07_UpdateBoomerangOrFood_Draw:
                            	  4866:     ; Draw the food.
                            	  4867:     ;
02:000023B6 61000A90        	  4868:     bsr     Anim_FetchObjPosForSpriteDescriptor
02:000023BA 7002            	  4869:     moveq   #2,D0
02:000023BC 7606            	  4870:     moveq   #6,D3
02:000023BE 4EF83740        	  4871:     jmp     Anim_WriteStaticItemSpritesWithAttributes
                            	  4872: 
                            	  4873:     even
                            	  4874: _L_z07_UpdateBoomerangOrFood_Deactivate:
02:000023C2 4EF82A5A        	  4875:     jmp     ResetObjState
                            	  4876: 
                            	  4877:     even
                            	  4878: BoomerangFrameCycle:
02:000023C6 00              	  4879:     dc.b    $00, $01, $02, $01, $00, $01, $02, $01
02:000023C7 01
02:000023C8 02
02:000023C9 01
02:000023CA 00
02:000023CB 01
02:000023CC 02
02:000023CD 01
02:000023CE 03              	  4880:     dc.b    $03
                            	  4881: 
                            	  4882:     even
                            	  4883: BoomerangBaseSpriteAttrCycle:
02:000023D0 00              	  4884:     dc.b    $00, $00, $00, $40, $40, $C0, $80, $80
02:000023D1 00
02:000023D2 00
02:000023D3 40
02:000023D4 40
02:000023D5 C0
02:000023D6 80
02:000023D7 80
02:000023D8 01              	  4885:     dc.b    $01
                            	  4886: 
                            	  4887:     even
                            	  4888: BoomerangQSpeedFracsY:
02:000023DA 00              	  4889:     dc.b    $00, $20, $36, $4C, $60, $68, $70, $78
02:000023DB 20
02:000023DC 36
02:000023DD 4C
02:000023DE 60
02:000023DF 68
02:000023E0 70
02:000023E1 78
02:000023E2 80              	  4890:     dc.b    $80
                            	  4891: 
                            	  4892:     even
                            	  4893: BoomerangQSpeedFracsX:
02:000023E4 80              	  4894:     dc.b    $80, $78, $70, $68, $60, $4C, $36, $20
02:000023E5 78
02:000023E6 70
02:000023E7 68
02:000023E8 60
02:000023E9 4C
02:000023EA 36
02:000023EB 20
02:000023EC 00              	  4895:     dc.b    $00
                            	  4896: 
                            	  4897:     even
                            	  4898: RDirectionToWeaponFrame:
02:000023EE 00              	  4899:     dc.b    $00, $00, $01, $01
02:000023EF 00
02:000023F0 01
02:000023F1 01
                            	  4900: 
                            	  4901: ; The base sprite attribute for weapon sprites, 1 for each
                            	  4902: ; direction in reverse direction order: up, down, left, right
                            	  4903: ;
                            	  4904: ; All of them are 0, except for the element for "down".
                            	  4905: ; That one flips the vertical sword or rod image so that it points down.
                            	  4906: ;
                            	  4907:     even
                            	  4908: RDirectionToWeaponBaseAttribute:
02:000023F2 00              	  4909:     dc.b    $00, $80, $00, $00
02:000023F3 80
02:000023F4 00
02:000023F5 00
                            	  4910: 
                            	  4911:     even
                            	  4912: RDirectionToOffsetsX:
02:000023F6 FC              	  4913:     dc.b    $FC, $FC, $00, $00
02:000023F7 FC
02:000023F8 00
02:000023F9 00
                            	  4914: 
                            	  4915:     even
                            	  4916: RDirectionToOffsetsY:
02:000023FA 00              	  4917:     dc.b    $00, $00, $03, $03
02:000023FB 00
02:000023FC 03
02:000023FD 03
                            	  4918: 
                            	  4919:     even
                            	  4920: UpdateArrowOrBoomerang:
                            	  4921:     ; If not active (state = 0), then return.
                            	  4922:     ;
02:000023FE 41EC00AC        	  4923:     lea     ($00AC,A4),A0
02:00002402 10302000        	  4924:     move.b  (A0,D2.W),D0
02:00002406 6700FF3E        	  4925:     beq  L1F49F_Exit
                            	  4926:     ; Reset [00], which will hold the number of axes where the distance <= 8
                            	  4927:     ; when calculating the angle to return to thrower.
                            	  4928:     ; See states $40 and $50 and GetDirectionsAndDistancesToTarget.
                            	  4929:     ;
02:0000240A 7000            	  4930:     moveq   #0,D0
02:0000240C 1880            	  4931:     move.b  D0,($0000,A4)
                            	  4932:     ; If not in major state $10, go check other states.
                            	  4933:     ;
02:0000240E 41EC00AC        	  4934:     lea     ($00AC,A4),A0
02:00002412 10302000        	  4935:     move.b  (A0,D2.W),D0
02:00002416 020000F0        	  4936:     andi.b #$F0,D0
02:0000241A 0C000010        	  4937:     cmpi.b  #$10,D0
02:0000241E 6704            	  4938:     beq  _L_z07_UpdateArrowOrBoomerang_State10
02:00002420 4EF8253A        	  4939:     jmp     CheckState20
                            	  4940: 
                            	  4941:     even
                            	  4942: _L_z07_UpdateArrowOrBoomerang_State10:
                            	  4943:     ; State $1x. Fly away from the thrower.
                            	  4944:     ;
                            	  4945:     ; Reset [0E], which will indicate:
                            	  4946:     ; - into MoveShot:   0 update grid offset, else don't
                            	  4947:     ; - out of MoveShot: $80 if blocked
                            	  4948:     ;
02:00002424 7000            	  4949:     moveq   #0,D0
02:00002426 1940000E        	  4950:     move.b  D0,($000E,A4)
                            	  4951:     ; If the object's direction has a horizontal component, then
                            	  4952:     ; move it horizontally.
                            	  4953:     ;
02:0000242A 41EC0098        	  4954:     lea     ($0098,A4),A0
02:0000242E 10302000        	  4955:     move.b  (A0,D2.W),D0
02:00002432 02000003        	  4956:     andi.b #$03,D0
02:00002436 6708            	  4957:     beq  _anon_z07_26
02:00002438 61001332        	  4958:     bsr     MoveShot
02:0000243C 522C000E        	  4959:     addq.b  #1,($000E,A4)
                            	  4960: _anon_z07_26:
                            	  4961:     ; If the object was blocked, go handle it.
                            	  4962:     ;
02:00002440 102C000E        	  4963:     move.b  ($000E,A4),D0
02:00002444 E308            	  4964:     lsl.b  #1,D0   ; ASL A
02:00002446 656A            	  4965:     bcs  _L_z07_UpdateArrowOrBoomerang_HandleBlocked
                            	  4966:     ; If the object's direction has a vertical component, then
                            	  4967:     ; move it vertically.
                            	  4968:     ;
02:00002448 41EC0098        	  4969:     lea     ($0098,A4),A0
02:0000244C 10302000        	  4970:     move.b  (A0,D2.W),D0
02:00002450 0200000C        	  4971:     andi.b #$0C,D0
02:00002454 6704            	  4972:     beq  _anon_z07_27
02:00002456 61001314        	  4973:     bsr     MoveShot
                            	  4974: _anon_z07_27:
                            	  4975:     ; If the object was blocked, go handle it.
                            	  4976:     ;
02:0000245A 102C000E        	  4977:     move.b  ($000E,A4),D0
02:0000245E E308            	  4978:     lsl.b  #1,D0   ; ASL A
02:00002460 6550            	  4979:     bcs  _L_z07_UpdateArrowOrBoomerang_HandleBlocked
                            	  4980:     ; If the object is an arrow (Link's or a monster's), go set up sprite parameters.
                            	  4981:     ;
02:00002462 0C02000D        	  4982:     cmpi.b  #$0D,D2
02:00002466 640E            	  4983:     bcc  _L_z07_UpdateArrowOrBoomerang_CheckPlayerArrow
02:00002468 41EC034F        	  4984:     lea     ($034F,A4),A0
02:0000246C 10302000        	  4985:     move.b  (A0,D2.W),D0
02:00002470 0C00005B        	  4986:     cmpi.b  #$5B,D0
02:00002474 6744            	  4987:     beq  DrawArrow
                            	  4988:     even
                            	  4989: _L_z07_UpdateArrowOrBoomerang_CheckPlayerArrow:
02:00002476 0C020012        	  4990:     cmpi.b  #$12,D2
02:0000247A 673E            	  4991:     beq  DrawArrow
                            	  4992:     ; For boomerangs, get the absolute value of the weapon's grid offset:
                            	  4993:     ; the distance traveled.
                            	  4994:     ;
02:0000247C 41EC0394        	  4995:     lea     ($0394,A4),A0
02:00002480 10302000        	  4996:     move.b  (A0,D2.W),D0
02:00002484 6A0C            	  4997:     bpl  _L_z07_UpdateArrowOrBoomerang_CompareLimit
02:00002486 4600            	  4998:     eori.b #$FF,D0
02:00002488 023C00EE        	  4999:     andi.b  #$EE,CCR  ; CLC: clear C+X
02:0000248C 123C0001        	  5000:     move.b  #$01,D1
02:00002490 D101            	  5001:     addx.b  D1,D0   ; ADC #$01 (X flag = 6502 C)
                            	  5002:     even
                            	  5003: _L_z07_UpdateArrowOrBoomerang_CompareLimit:
                            	  5004:     ; For boomerangs, compare it to the movement limit.
                            	  5005:     ; If it reached the limit, set state $20 and a new movement
                            	  5006:     ; limit of $10, and go handle the rest as if blocked.
                            	  5007:     ; State $20 will become $30 below in HandleArrowOrBoomerangBlocked.
                            	  5008:     ;
                            	  5009:     ; Otherwise, only animate and check collision as usual.
                            	  5010:     ;
                            	  5011:     ; In major state $30, ObjMovingLimit is a timer to change the state to $40.
                            	  5012:     ;
02:00002492 41EC0380        	  5013:     lea     ($0380,A4),A0
02:00002496 12302000        	  5014:     move.b  (A0,D2.W),D1
02:0000249A B001            	  5015:     cmp.b   D1,D0
02:0000249C 6518            	  5016:     bcs  _L_z07_UpdateArrowOrBoomerang_AnimateBoomerang
02:0000249E 7010            	  5017:     moveq   #16,D0
02:000024A0 41EC0380        	  5018:     lea     ($0380,A4),A0
02:000024A4 11802000        	  5019:     move.b  D0,(A0,D2.W)
02:000024A8 7020            	  5020:     moveq   #32,D0
02:000024AA 41EC00AC        	  5021:     lea     ($00AC,A4),A0
02:000024AE 11802000        	  5022:     move.b  D0,(A0,D2.W)
                            	  5023:     even
                            	  5024: _L_z07_UpdateArrowOrBoomerang_HandleBlocked:
02:000024B2 4EF8258A        	  5025:     jmp     HandleArrowOrBoomerangBlocked
                            	  5026: 
                            	  5027:     even
                            	  5028: _L_z07_UpdateArrowOrBoomerang_AnimateBoomerang:
02:000024B6 4EF8271E        	  5029:     jmp     AnimateBoomerangAndCheckCollision
                            	  5030: 
                            	  5031:     even
                            	  5032: DrawArrow:
                            	  5033:     ; This is an arrow. Set up sprite parameters.
                            	  5034:     ;
                            	  5035:     ; If facing left, set horizontal flipping in [0F].
                            	  5036:     ;
02:000024BA 7000            	  5037:     moveq   #0,D0
02:000024BC 1940000F        	  5038:     move.b  D0,($000F,A4)
02:000024C0 41EC0098        	  5039:     lea     ($0098,A4),A0
02:000024C4 10302000        	  5040:     move.b  (A0,D2.W),D0
02:000024C8 0C000002        	  5041:     cmpi.b  #$02,D0
02:000024CC 6604            	  5042:     bne  _anon_z07_28
02:000024CE 522C000F        	  5043:     addq.b  #1,($000F,A4)
                            	  5044: _anon_z07_28:
02:000024D2 61001288        	  5045:     bsr     GetOppositeDir
                            	  5046:     ; Store the weapon's frame (up or right) in [0C].
                            	  5047:     ;
02:000024D6 41F9000023EE    	  5048:     lea     (RDirectionToWeaponFrame).l,A0
02:000024DC 10303000        	  5049:     move.b  (A0,D3.W),D0
02:000024E0 1940000C        	  5050:     move.b  D0,($000C,A4)
                            	  5051:     ; Store the base sprite attribute in [04].
                            	  5052:     ;
02:000024E4 41F9000023F2    	  5053:     lea     (RDirectionToWeaponBaseAttribute).l,A0
02:000024EA 10303000        	  5054:     move.b  (A0,D3.W),D0
                            	  5055:     even
                            	  5056: SetAttrAndDrawArrow:
02:000024EE 19400004        	  5057:     move.b  D0,($0004,A4)
                            	  5058:     ; If this is a monster's arrow, add 2 to sprite attributes in [04].
                            	  5059:     ; This chooses palette row 6.
                            	  5060:     ;
                            	  5061:     ; Otherwise, add the arrow item value less 1. This chooses
                            	  5062:     ; palette row 4 if the arrow is wooden, otherwise 5 for silver.
                            	  5063:     ;
02:000024F2 0C02000D        	  5064:     cmpi.b  #$0D,D2
02:000024F6 641E            	  5065:     bcc  _L_z07_SetAttrAndDrawArrow_PlayerArrow
02:000024F8 41EC034F        	  5066:     lea     ($034F,A4),A0
02:000024FC 10302000        	  5067:     move.b  (A0,D2.W),D0
02:00002500 0C00005B        	  5068:     cmpi.b  #$5B,D0
02:00002504 6610            	  5069:     bne  _L_z07_SetAttrAndDrawArrow_PlayerArrow
02:00002506 102C0004        	  5070:     move.b  ($0004,A4),D0
02:0000250A 023C00EE        	  5071:     andi.b  #$EE,CCR  ; CLC: clear C+X
02:0000250E 123C0002        	  5072:     move.b  #$02,D1
02:00002512 D101            	  5073:     addx.b  D1,D0   ; ADC #$02 (X flag = 6502 C)
02:00002514 6614            	  5074:     bne  _L_z07_SetAttrAndDrawArrow_SetAttr
                            	  5075:     even
                            	  5076: _L_z07_SetAttrAndDrawArrow_PlayerArrow:
02:00002516 023C00EE        	  5077:     andi.b  #$EE,CCR  ; CLC: clear C+X
02:0000251A 122C0659        	  5078:     move.b  ($0659,A4),D1
02:0000251E D101            	  5079:     addx.b  D1,D0   ; ADC InvArrow
02:00002520 003C0011        	  5080:     ori.b   #$11,CCR  ; SEC: set C+X
02:00002524 123C0001        	  5081:     move.b  #$01,D1
02:00002528 9101            	  5082:     subx.b  D1,D0   ; SBC #$01
                            	  5083:     even
                            	  5084: _L_z07_SetAttrAndDrawArrow_SetAttr:
02:0000252A 19400004        	  5085:     move.b  D0,($0004,A4)
                            	  5086:     ; Copy the attribute to [05], and go draw.
                            	  5087:     ;
02:0000252E 102C0004        	  5088:     move.b  ($0004,A4),D0
02:00002532 19400005        	  5089:     move.b  D0,($0005,A4)
02:00002536 4EF827D6        	  5090:     jmp     OffsetAndDrawArrow
                            	  5091: 
                            	  5092:     even
                            	  5093: CheckState20:
                            	  5094:     ; If major state <> $20, go check other states.
                            	  5095:     ;
02:0000253A 0C000020        	  5096:     cmpi.b  #$20,D0
02:0000253E 660000AA        	  5097:     bne  CheckState30
                            	  5098:     ; State $2x. Spark.
                            	  5099:     ;
                            	  5100:     ; Change the state to $28, and decrement animation counter.
                            	  5101:     ; If it hasn't reached 0, then go draw and check for collision
                            	  5102:     ; (with Link, if this is a monster's boomerang).
                            	  5103:     ;
                            	  5104:     ; TODO: Why state $28?
                            	  5105:     ; I thought that it was set to $28, so that the animation frame cycle will
                            	  5106:     ; start over again when spinning.
                            	  5107:     ; But when animation counter reaches 0, state will be set to $40.
                            	  5108:     ; If the counter hasn't reached 0, then I don't *think* that
                            	  5109:     ; any drawing code depends on the minor state.
                            	  5110:     ;
02:00002542 7028            	  5111:     moveq   #40,D0
02:00002544 41EC00AC        	  5112:     lea     ($00AC,A4),A0
02:00002548 11802000        	  5113:     move.b  D0,(A0,D2.W)
02:0000254C 41EC03D0        	  5114:     lea     ($03D0,A4),A0
02:00002550 53302000        	  5115:     subq.b  #1,(A0,D2.W)
02:00002554 6658            	  5116:     bne  DrawArrowOrBoomerangAndCheckCollisions
                            	  5117:     ; Animation counter = 0.
                            	  5118:     ;
                            	  5119:     ; Set state to $40. It will become $50 below in
                            	  5120:     ; HandleArrowOrBoomerangBlocked.
                            	  5121:     ;
02:00002556 7040            	  5122:     moveq   #64,D0
02:00002558 41EC00AC        	  5123:     lea     ($00AC,A4),A0
02:0000255C 11802000        	  5124:     move.b  D0,(A0,D2.W)
                            	  5125:     ; If this is an arrow (monster's or player's), then deactivate it.
                            	  5126:     ; Else go handle the boomerang being blocked.
                            	  5127:     ;
02:00002560 0C02000D        	  5128:     cmpi.b  #$0D,D2
02:00002564 640E            	  5129:     bcc  _L_z07_CheckState20_CheckBoomerangBlocked
02:00002566 41EC034F        	  5130:     lea     ($034F,A4),A0
02:0000256A 10302000        	  5131:     move.b  (A0,D2.W),D0
02:0000256E 0C00005B        	  5132:     cmpi.b  #$5B,D0
02:00002572 6706            	  5133:     beq  _L_z07_CheckState20_Deactivate
                            	  5134:     even
                            	  5135: _L_z07_CheckState20_CheckBoomerangBlocked:
02:00002574 0C020012        	  5136:     cmpi.b  #$12,D2
02:00002578 6610            	  5137:     bne  HandleArrowOrBoomerangBlocked
                            	  5138:     even
                            	  5139: _L_z07_CheckState20_Deactivate:
02:0000257A 610004DE        	  5140:     bsr     ResetObjState
                            	  5141:     ; If it's a monster's arrow, then destroy it in the monster slot,
                            	  5142:     ; including clearing object type.
                            	  5143:     ;
02:0000257E 0C02000D        	  5144:     cmpi.b  #$0D,D2
02:00002582 6404            	  5145:     bcc  _anon_z07_29
02:00002584 61001224        	  5146:     bsr     DestroyCountedMonsterShot
                            	  5147: _anon_z07_29:
02:00002588 4E75            	  5148:     rts
                            	  5149: 
                            	  5150:     even
                            	  5151: HandleArrowOrBoomerangBlocked:
                            	  5152:     ; Use animation counter to count down 3 screen frames in case the state is $20 (spark).
                            	  5153:     ;
02:0000258A 7003            	  5154:     moveq   #3,D0
02:0000258C 41EC03D0        	  5155:     lea     ($03D0,A4),A0
02:00002590 11802000        	  5156:     move.b  D0,(A0,D2.W)
                            	  5157:     ; Add $10 to the state to make it $2x.
                            	  5158:     ;
02:00002594 41EC00AC        	  5159:     lea     ($00AC,A4),A0
02:00002598 10302000        	  5160:     move.b  (A0,D2.W),D0
02:0000259C 023C00EE        	  5161:     andi.b  #$EE,CCR  ; CLC: clear C+X
02:000025A0 123C0010        	  5162:     move.b  #$10,D1
02:000025A4 D101            	  5163:     addx.b  D1,D0   ; ADC #$10 (X flag = 6502 C)
02:000025A6 41EC00AC        	  5164:     lea     ($00AC,A4),A0
02:000025AA 11802000        	  5165:     move.b  D0,(A0,D2.W)
                            	  5166:     even
                            	  5167: DrawArrowOrBoomerangAndCheckCollisions:
                            	  5168:     ; If the weapon is a boomerang (not a monster arrow nor player arrow),
                            	  5169:     ; then go draw it and check for a collision.
                            	  5170:     ;
02:000025AE 0C02000D        	  5171:     cmpi.b  #$0D,D2
02:000025B2 640E            	  5172:     bcc  _L_z07_DrawArrowOrBoomerangAndCheckCollisions_DrawPlayerWeapon
02:000025B4 41EC034F        	  5173:     lea     ($034F,A4),A0
02:000025B8 10302000        	  5174:     move.b  (A0,D2.W),D0
02:000025BC 0C00005B        	  5175:     cmpi.b  #$5B,D0
02:000025C0 670A            	  5176:     beq  _L_z07_DrawArrowOrBoomerangAndCheckCollisions_PrepareArrow
                            	  5177:     even
                            	  5178: _L_z07_DrawArrowOrBoomerangAndCheckCollisions_DrawPlayerWeapon:
02:000025C2 0C020012        	  5179:     cmpi.b  #$12,D2
02:000025C6 6704            	  5180:     beq  _L_z07_DrawArrowOrBoomerangAndCheckCollisions_PrepareArrow
02:000025C8 4EF8275A        	  5181:     jmp     DrawBoomerangAndCheckCollision
                            	  5182: 
                            	  5183:     even
                            	  5184: _L_z07_DrawArrowOrBoomerangAndCheckCollisions_PrepareArrow:
                            	  5185:     ; Start preparing to draw an arrow.
                            	  5186:     ;
                            	  5187:     ; Set arrow slot frame 2 (spark) in [0C],
                            	  5188:     ; and no horizontal flipping in [0F].
                            	  5189:     ;
02:000025CC 7002            	  5190:     moveq   #2,D0
02:000025CE 1940000C        	  5191:     move.b  D0,($000C,A4)
02:000025D2 7000            	  5192:     moveq   #0,D0
02:000025D4 1940000F        	  5193:     move.b  D0,($000F,A4)
                            	  5194:     ; Get reverse index of weapon's direction, and base sprite attribute 0,
                            	  5195:     ; and go draw.
                            	  5196:     ;
02:000025D8 41EC0098        	  5197:     lea     ($0098,A4),A0
02:000025DC 10302000        	  5198:     move.b  (A0,D2.W),D0
02:000025E0 6100117A        	  5199:     bsr     GetOppositeDir
02:000025E4 7000            	  5200:     moveq   #0,D0
02:000025E6 4EF824EE        	  5201:     jmp     SetAttrAndDrawArrow
                            	  5202: 
                            	  5203:     even
                            	  5204: CheckState30:
                            	  5205:     ; If major state <> $30, go check other states.
                            	  5206:     ;
02:000025EA 0C000030        	  5207:     cmpi.b  #$30,D0
02:000025EE 6656            	  5208:     bne  _L_z07_CheckState30_CheckOtherStates
                            	  5209:     ; State $3x. Slow down.
                            	  5210:     ;
                            	  5211:     ; Reset grid offset for movement.
                            	  5212:     ;
02:000025F0 7000            	  5213:     moveq   #0,D0
02:000025F2 41EC0394        	  5214:     lea     ($0394,A4),A0
02:000025F6 11802000        	  5215:     move.b  D0,(A0,D2.W)
                            	  5216:     ; Go slow at q-speed fraction $40 (1 pixel a frame).
                            	  5217:     ;
02:000025FA 7040            	  5218:     moveq   #64,D0
02:000025FC 41EC03BC        	  5219:     lea     ($03BC,A4),A0
02:00002600 11802000        	  5220:     move.b  D0,(A0,D2.W)
                            	  5221:     ; If facing left and X < 2, then go change state to $40. The
                            	  5222:     ; boomerang is too close to the left edge of the screen.
                            	  5223:     ; Another move might make it wrap around.
                            	  5224:     ;
02:00002604 41EC0098        	  5225:     lea     ($0098,A4),A0
02:00002608 10302000        	  5226:     move.b  (A0,D2.W),D0
02:0000260C 1940000F        	  5227:     move.b  D0,($000F,A4)
02:00002610 02000002        	  5228:     andi.b #$02,D0
02:00002614 670A            	  5229:     beq  _L_z07_CheckState30_MoveBoomerang
02:00002616 10342070        	  5230:     move.b  ($70,A4,D2.W),D0
02:0000261A 0C000002        	  5231:     cmpi.b  #$02,D0
02:0000261E 650E            	  5232:     bcs  _L_z07_CheckState30_SetState40
                            	  5233:     even
                            	  5234: _L_z07_CheckState30_MoveBoomerang:
                            	  5235:     ; Move the boomerang.
                            	  5236:     ;
02:00002620 6100F5CA        	  5237:     bsr     MoveObject
                            	  5238:     ; Decrement timer ObjMovingLimit. Once it reaches 0, change
                            	  5239:     ; state to $40.
                            	  5240:     ;
02:00002624 41EC0380        	  5241:     lea     ($0380,A4),A0
02:00002628 53302000        	  5242:     subq.b  #1,(A0,D2.W)
02:0000262C 6614            	  5243:     bne  _L_z07_CheckState30_AnimateBoomerang
                            	  5244:     even
                            	  5245: _L_z07_CheckState30_SetState40:
                            	  5246:     ; Set state $40, and a time to move of $20 frames.
                            	  5247:     ;
                            	  5248:     ; In major state $40, ObjMovingLimit is a timer to change the state to $50.
                            	  5249:     ;
                            	  5250:     ; Also, animate, draw, and handle any collision (with Link, if a monster's boomerang).
                            	  5251:     ;
02:0000262E 7020            	  5252:     moveq   #32,D0
02:00002630 41EC0380        	  5253:     lea     ($0380,A4),A0
02:00002634 11802000        	  5254:     move.b  D0,(A0,D2.W)
02:00002638 7040            	  5255:     moveq   #64,D0
02:0000263A 41EC00AC        	  5256:     lea     ($00AC,A4),A0
02:0000263E 11802000        	  5257:     move.b  D0,(A0,D2.W)
                            	  5258:     even
                            	  5259: _L_z07_CheckState30_AnimateBoomerang:
02:00002642 4EF8271E        	  5260:     jmp     AnimateBoomerangAndCheckCollision
                            	  5261: 
                            	  5262:     even
                            	  5263: _L_z07_CheckState30_CheckOtherStates:
                            	  5264:     ; State $40 or $50. Return to thrower: $40 slow, $50 fast.
                            	  5265:     ;
                            	  5266:     ; The boomerang will now return. Reset the grid offset.
                            	  5267:     ;
02:00002646 7000            	  5268:     moveq   #0,D0
02:00002648 41EC0394        	  5269:     lea     ($0394,A4),A0
02:0000264C 11802000        	  5270:     move.b  D0,(A0,D2.W)
                            	  5271:     ; Get the horizontal and vertical directions and distances to the thrower.
                            	  5272:     ;
02:00002650 0C02000D        	  5273:     cmpi.b  #$0D,D2
02:00002654 6408            	  5274:     bcc  _anon_z07_30
02:00002656 41EC042C        	  5275:     lea     ($042C,A4),A0
02:0000265A 10302000        	  5276:     move.b  (A0,D2.W),D0
                            	  5277: _anon_z07_30:
02:0000265E 610010FA        	  5278:     bsr     GetDirectionsAndDistancesToTarget
                            	  5279:     ; If the boomerang hasn't reached the thrower ([00] < 2),
                            	  5280:     ; then go move towards the thrower, draw, and check collisions.
                            	  5281:     ;
02:00002662 1014            	  5282:     move.b  ($0000,A4),D0
02:00002664 0C000002        	  5283:     cmpi.b  #$02,D0
02:00002668 6662            	  5284:     bne  _L_z07_CheckState30_MoveTowardThrower
                            	  5285:     ; The boomerang has reached the thrower.
                            	  5286:     ;
                            	  5287:     ; Reset the distance to move.
                            	  5288:     ; If this is a monster's boomerang, go handle the monster catching it.
                            	  5289:     ;
02:0000266A 7000            	  5290:     moveq   #0,D0
02:0000266C 41EC0380        	  5291:     lea     ($0380,A4),A0
02:00002670 11802000        	  5292:     move.b  D0,(A0,D2.W)
02:00002674 0C02000D        	  5293:     cmpi.b  #$0D,D2
02:00002678 6520            	  5294:     bcs  _L_z07_CheckState30_CatchBoomerang
                            	  5295:     ; Link has caught the boomerang.
                            	  5296:     ;
                            	  5297:     ; Combine Link's state with $20 for having caught the boomerang.
                            	  5298:     ;
                            	  5299:     ; If Link catches it some time after throwing it,
                            	  5300:     ; his state will become $20, and he will show the catch animation.
                            	  5301:     ;
                            	  5302:     ; But if he catches it right after throwing it, the state becomes
                            	  5303:     ; $30 ($10 OR $20), which is the end state of using an item.
                            	  5304:     ;
02:0000267A 102C00AC        	  5305:     move.b  ($00AC,A4),D0
02:0000267E 00000020        	  5306:     ori.b #$20,D0
02:00002682 194000AC        	  5307:     move.b  D0,($00AC,A4)
                            	  5308:     ; Make to set Link's animation counter to 1, so that he picks
                            	  5309:     ; up the new state.
                            	  5310:     ;
02:00002686 7001            	  5311:     moveq   #1,D0
02:00002688 194003D0        	  5312:     move.b  D0,($03D0,A4)
                            	  5313:     ; Deactivate the boomerang.
                            	  5314:     ;
02:0000268C 760F            	  5315:     moveq   #15,D3
02:0000268E 7000            	  5316:     moveq   #0,D0
02:00002690 41EC00AC        	  5317:     lea     ($00AC,A4),A0
02:00002694 11803000        	  5318:     move.b  D0,(A0,D3.W)
02:00002698 4E75            	  5319:     rts
                            	  5320: 
                            	  5321:     even
                            	  5322: _L_z07_CheckState30_CatchBoomerang:
                            	  5323:     ; A monster caught the boomerang that it threw.
                            	  5324:     ;
                            	  5325:     ; Set a timer for the thrower based on a random value:
                            	  5326:     ; < $30: $30
                            	  5327:     ; < $70: $50
                            	  5328:     ; Else:  $70
                            	  5329:     ;
02:0000269A 7630            	  5330:     moveq   #48,D3
02:0000269C 10342018        	  5331:     move.b  ($18,A4,D2.W),D0
02:000026A0 0C000030        	  5332:     cmpi.b  #$30,D0
02:000026A4 650A            	  5333:     bcs  _L_z07_CheckState30_SetThrowerTimer
02:000026A6 7650            	  5334:     moveq   #80,D3
02:000026A8 0C000070        	  5335:     cmpi.b  #$70,D0
02:000026AC 6502            	  5336:     bcs  _L_z07_CheckState30_SetThrowerTimer
02:000026AE 7670            	  5337:     moveq   #112,D3
                            	  5338:     even
                            	  5339: _L_z07_CheckState30_SetThrowerTimer:
02:000026B0 1003            	  5340:     move.b  D3,D0
02:000026B2 41EC042C        	  5341:     lea     ($042C,A4),A0
02:000026B6 16302000        	  5342:     move.b  (A0,D2.W),D3
02:000026BA 19803028        	  5343:     move.b  D0,($28,A4,D3.W)
                            	  5344:     ; Reset the thrower's state to make it idle or restart its state machine.
                            	  5345:     ; Destroy the monster's boomerang.
                            	  5346:     ;
02:000026BE 7000            	  5347:     moveq   #0,D0
02:000026C0 41EC00AC        	  5348:     lea     ($00AC,A4),A0
02:000026C4 11803000        	  5349:     move.b  D0,(A0,D3.W)
02:000026C8 4EF837AA        	  5350:     jmp     DestroyCountedMonsterShot
                            	  5351: 
                            	  5352:     even
                            	  5353: _L_z07_CheckState30_MoveTowardThrower:
                            	  5354:     ; Move towards the thrower.
                            	  5355:     ;
                            	  5356:     ; Middle speed index 4 goes equally fast in X and Y axes.
                            	  5357:     ;
02:000026CC 7604            	  5358:     moveq   #4,D3
02:000026CE 61001060        	  5359:     bsr     _CalcDiagonalSpeedIndex
                            	  5360:     ; Move vertically towards the thrower.
                            	  5361:     ;
02:000026D2 41F9000023DA    	  5362:     lea     (BoomerangQSpeedFracsY).l,A0
02:000026D8 10303000        	  5363:     move.b  (A0,D3.W),D0
02:000026DC 6100109A        	  5364:     bsr     SetBoomerangSpeed
02:000026E0 102C000A        	  5365:     move.b  ($000A,A4),D0
02:000026E4 1940000F        	  5366:     move.b  D0,($000F,A4)
02:000026E8 41EC0098        	  5367:     lea     ($0098,A4),A0
02:000026EC 11802000        	  5368:     move.b  D0,(A0,D2.W)
02:000026F0 1003            	  5369:     move.b  D3,D0
02:000026F2 1B00            	  5370:     move.b  D0,-(A5)  ; PHA
02:000026F4 6100F4F6        	  5371:     bsr     MoveObject
                            	  5372:     ; Move horizontally towards the thrower.
                            	  5373:     ;
02:000026F8 101D            	  5374:     move.b  (A5)+,D0  ; PLA
02:000026FA 1600            	  5375:     move.b  D0,D3
02:000026FC 41F9000023E4    	  5376:     lea     (BoomerangQSpeedFracsX).l,A0
02:00002702 10303000        	  5377:     move.b  (A0,D3.W),D0
02:00002706 61001070        	  5378:     bsr     SetBoomerangSpeed
02:0000270A 102C000B        	  5379:     move.b  ($000B,A4),D0
02:0000270E 1940000F        	  5380:     move.b  D0,($000F,A4)
02:00002712 41EC0098        	  5381:     lea     ($0098,A4),A0
02:00002716 11802000        	  5382:     move.b  D0,(A0,D2.W)
02:0000271A 6100F4D0        	  5383:     bsr     MoveObject
                            	  5384:     even
                            	  5385: AnimateBoomerangAndCheckCollision:
                            	  5386:     ; Decrement animation counter; and when it reaches 0:
                            	  5387:     ; 1. arm it again for 2 frames
                            	  5388:     ; 2. advance the minor state within a cycle of 8
                            	  5389:     ; 3. see if it's time to play the sound effect, if the boomerang belongs to Link
                            	  5390:     ;
02:0000271E 41EC03D0        	  5391:     lea     ($03D0,A4),A0
02:00002722 53302000        	  5392:     subq.b  #1,(A0,D2.W)
02:00002726 6632            	  5393:     bne  DrawBoomerangAndCheckCollision
02:00002728 7002            	  5394:     moveq   #2,D0
02:0000272A 41EC03D0        	  5395:     lea     ($03D0,A4),A0
02:0000272E 11802000        	  5396:     move.b  D0,(A0,D2.W)
02:00002732 41EC00AC        	  5397:     lea     ($00AC,A4),A0
02:00002736 52302000        	  5398:     addq.b  #1,(A0,D2.W)
02:0000273A 41EC00AC        	  5399:     lea     ($00AC,A4),A0
02:0000273E 10302000        	  5400:     move.b  (A0,D2.W),D0
02:00002742 02000077        	  5401:     andi.b #$77,D0
02:00002746 41EC00AC        	  5402:     lea     ($00AC,A4),A0
02:0000274A 11802000        	  5403:     move.b  D0,(A0,D2.W)
02:0000274E 0C02000D        	  5404:     cmpi.b  #$0D,D2
02:00002752 652A            	  5405:     bcs  CalcBoomerangFrame
02:00002754 7602            	  5406:     moveq   #2,D3
02:00002756 61001018        	  5407:     bsr     PlayBoomerangSfx
                            	  5408:     even
                            	  5409: DrawBoomerangAndCheckCollision:
                            	  5410:     ; If the boomerang belongs to a monster, then check for
                            	  5411:     ; collision with Link.
                            	  5412:     ;
                            	  5413:     ; If they collide, then set state $20 and animation counter 3.
                            	  5414:     ;
02:0000275A 0C02000D        	  5415:     cmpi.b  #$0D,D2
02:0000275E 641E            	  5416:     bcc  CalcBoomerangFrame
02:00002760 61000FEA        	  5417:     bsr     CheckLinkCollision
02:00002764 102C034B        	  5418:     move.b  ($034B,A4),D0
02:00002768 6714            	  5419:     beq  CalcBoomerangFrame
02:0000276A 7003            	  5420:     moveq   #3,D0
02:0000276C 41EC03D0        	  5421:     lea     ($03D0,A4),A0
02:00002770 11802000        	  5422:     move.b  D0,(A0,D2.W)
02:00002774 7020            	  5423:     moveq   #32,D0
02:00002776 41EC00AC        	  5424:     lea     ($00AC,A4),A0
02:0000277A 11802000        	  5425:     move.b  D0,(A0,D2.W)
                            	  5426:     even
                            	  5427: CalcBoomerangFrame:
                            	  5428:     ; The minor state (low 3 bits of state) is used to
                            	  5429:     ; set the right frame in [0C] for this point in the spinning cycle.
                            	  5430:     ;
                            	  5431:     ; Reset [00] and [01]. These are the offsets for boomerang's position.
                            	  5432:     ; In other words, don't offset the coordinate below.
                            	  5433:     ;
02:0000277E 7000            	  5434:     moveq   #0,D0
02:00002780 1880            	  5435:     move.b  D0,($0000,A4)
02:00002782 41EC00AC        	  5436:     lea     ($00AC,A4),A0
02:00002786 10302000        	  5437:     move.b  (A0,D2.W),D0
02:0000278A 0200000F        	  5438:     andi.b #$0F,D0
02:0000278E 1600            	  5439:     move.b  D0,D3
02:00002790 7000            	  5440:     moveq   #0,D0
02:00002792 19400001        	  5441:     move.b  D0,($0001,A4)
02:00002796 41F9000023C6    	  5442:     lea     (BoomerangFrameCycle).l,A0
02:0000279C 10303000        	  5443:     move.b  (A0,D3.W),D0
02:000027A0 1940000C        	  5444:     move.b  D0,($000C,A4)
                            	  5445:     ; Store the base sprite attribute for this point in the cycle in [04].
                            	  5446:     ;
02:000027A4 1003            	  5447:     move.b  D3,D0
02:000027A6 41F9000023D0    	  5448:     lea     (BoomerangBaseSpriteAttrCycle).l,A0
02:000027AC 10303000        	  5449:     move.b  (A0,D3.W),D0
02:000027B0 19400004        	  5450:     move.b  D0,($0004,A4)
                            	  5451:     ; TODO: ?
                            	  5452:     ; If base sprite attribute in [04] = 8, then leave [04] as it is.
                            	  5453:     ; Else add the item value of the magic boomerang.
                            	  5454:     ;
                            	  5455:     ; But none of the values in the base sprite attributes array is 8.
                            	  5456:     ;
                            	  5457:     ; As far I can tell, the magic boomerang's item value (0 or 1) in
                            	  5458:     ; the inventory will always be added to the base sprite attribute.
                            	  5459:     ;
                            	  5460:     ; So, palette row 4 or 5 will be chosen.
                            	  5461:     ;
02:000027B4 7600            	  5462:     moveq   #0,D3
02:000027B6 0C000008        	  5463:     cmpi.b  #$08,D0
02:000027BA 6704            	  5464:     beq  _anon_z07_31
02:000027BC 162C0675        	  5465:     move.b  ($0675,A4),D3
                            	  5466: _anon_z07_31:
02:000027C0 1003            	  5467:     move.b  D3,D0
02:000027C2 023C00EE        	  5468:     andi.b  #$EE,CCR  ; CLC: clear C+X
02:000027C6 122C0004        	  5469:     move.b  ($0004,A4),D1
02:000027CA D101            	  5470:     addx.b  D1,D0   ; ADC $04
02:000027CC 19400004        	  5471:     move.b  D0,($0004,A4)
02:000027D0 761D            	  5472:     moveq   #29,D3
02:000027D2 4EF827F2        	  5473:     jmp     L_DrawArrowOrBoomerang
                            	  5474: 
                            	  5475: ; Params:
                            	  5476: ; Y: reverse direction index that the weapon is facing
                            	  5477: ;
                            	  5478: ;
                            	  5479: ; [00] and [01] will hold sprite X and Y.
                            	  5480: ; Begin with the horizontal and vertical offsets.
                            	  5481: ;
                            	  5482:     even
                            	  5483: OffsetAndDrawArrow:
02:000027D6 41F9000023F6    	  5484:     lea     (RDirectionToOffsetsX).l,A0
02:000027DC 10303000        	  5485:     move.b  (A0,D3.W),D0
02:000027E0 1880            	  5486:     move.b  D0,($0000,A4)
02:000027E2 41F9000023FA    	  5487:     lea     (RDirectionToOffsetsY).l,A0
02:000027E8 10303000        	  5488:     move.b  (A0,D3.W),D0
02:000027EC 19400001        	  5489:     move.b  D0,($0001,A4)
02:000027F0 7602            	  5490:     moveq   #2,D3
                            	  5491:     even
                            	  5492: L_DrawArrowOrBoomerang:
                            	  5493:     ; Add the weapon's true coordinates to offsets in [00] and [01].
                            	  5494:     ;
02:000027F2 10342070        	  5495:     move.b  ($70,A4,D2.W),D0
02:000027F6 023C00EE        	  5496:     andi.b  #$EE,CCR  ; CLC: clear C+X
02:000027FA 1214            	  5497:     move.b  ($0000,A4),D1
02:000027FC D101            	  5498:     addx.b  D1,D0   ; ADC $00
02:000027FE 1880            	  5499:     move.b  D0,($0000,A4)
02:00002800 41EC0084        	  5500:     lea     ($0084,A4),A0
02:00002804 10302000        	  5501:     move.b  (A0,D2.W),D0
02:00002808 023C00EE        	  5502:     andi.b  #$EE,CCR  ; CLC: clear C+X
02:0000280C 122C0001        	  5503:     move.b  ($0001,A4),D1
02:00002810 D101            	  5504:     addx.b  D1,D0   ; ADC $01
02:00002812 19400001        	  5505:     move.b  D0,($0001,A4)
                            	  5506:     ; If state = $2x (spark), use palette row 5 to write sprites.
                            	  5507:     ; Otherwise, use the sprite attributes we already calculated.
                            	  5508:     ;
02:00002816 41EC00AC        	  5509:     lea     ($00AC,A4),A0
02:0000281A 10302000        	  5510:     move.b  (A0,D2.W),D0
02:0000281E 020000F0        	  5511:     andi.b #$F0,D0
02:00002822 0C000020        	  5512:     cmpi.b  #$20,D0
02:00002826 6606            	  5513:     bne  _L_z07_L_DrawArrowOrBoomerang_Draw
02:00002828 7001            	  5514:     moveq   #1,D0
02:0000282A 61000F0C        	  5515:     bsr     Anim_SetSpriteDescriptorAttributes
                            	  5516:     even
                            	  5517: _L_z07_L_DrawArrowOrBoomerang_Draw:
02:0000282E 4EF8373C        	  5518:     jmp     Anim_WriteItemSprites
                            	  5519: 
                            	  5520:     even
                            	  5521: UpdateRodOrArrow:
                            	  5522:     ; The rod uses states $3x. Arrow uses $1x and $2x.
                            	  5523:     ;
02:00002832 41EC00AC        	  5524:     lea     ($00AC,A4),A0
02:00002836 10302000        	  5525:     move.b  (A0,D2.W),D0
02:0000283A 020000F0        	  5526:     andi.b #$F0,D0
02:0000283E 0C000030        	  5527:     cmpi.b  #$30,D0
02:00002842 6424            	  5528:     bcc  UpdateSwordOrRod
02:00002844 4EF823FE        	  5529:     jmp     UpdateArrowOrBoomerang
                            	  5530: 
                            	  5531: ; 4 sets of horizontal offsets, one for each state of weapon.
                            	  5532: ; Each set contains 4 offsets in reverse direction index order:
                            	  5533: ; up, down, left, right
                            	  5534: ;
                            	  5535: ; These offsets are added to player X to get weapon X.
                            	  5536: ;
                            	  5537:     even
                            	  5538: PlayerToWeaponOffsetsX:
02:00002848 FF              	  5539:     dc.b    $FF, $01, $00, $F8, $FF, $01, $F5, $0B
02:00002849 01
02:0000284A 00
02:0000284B F8
02:0000284C FF
02:0000284D 01
02:0000284E F5
02:0000284F 0B
02:00002850 FF              	  5540:     dc.b    $FF, $01, $F9, $07, $FF, $01, $FD, $03
02:00002851 01
02:00002852 F9
02:00002853 07
02:00002854 FF
02:00002855 01
02:00002856 FD
02:00002857 03
                            	  5541: 
                            	  5542: ; 4 sets of vertical offsets, one for each state of weapon.
                            	  5543: ; Each set contains 4 offsets in reverse direction index order:
                            	  5544: ; up, down, left, right
                            	  5545: ;
                            	  5546: ; These offsets are added to player Y to get weapon Y.
                            	  5547: ;
                            	  5548:     even
                            	  5549: PlayerToWeaponOffsetsY:
02:00002858 F7              	  5550:     dc.b    $F7, $F2, $F5, $F5, $F6, $0D, $03, $03
02:00002859 F2
02:0000285A F5
02:0000285B F5
02:0000285C F6
02:0000285D 0D
02:0000285E 03
02:0000285F 03
02:00002860 F7              	  5551:     dc.b    $F7, $09, $03, $03, $FF, $05, $03, $03
02:00002861 09
02:00002862 03
02:00002863 03
02:00002864 FF
02:00002865 05
02:00002866 03
02:00002867 03
                            	  5552: 
                            	  5553:     even
                            	  5554: UpdateSwordOrRod:
                            	  5555:     ; If state = 0, the object is not active. So, return.
                            	  5556:     ;
02:00002868 41EC00AC        	  5557:     lea     ($00AC,A4),A0
02:0000286C 10302000        	  5558:     move.b  (A0,D2.W),D0
02:00002870 0200000F        	  5559:     andi.b #$0F,D0
02:00002874 674A            	  5560:     beq  _L_z07_UpdateSwordOrRod_Exit
                            	  5561:     ; Decrement the state timer.
                            	  5562:     ; If it hasn't expired, go move the sword or rod.
                            	  5563:     ;
02:00002876 41EC03D0        	  5564:     lea     ($03D0,A4),A0
02:0000287A 53302000        	  5565:     subq.b  #1,(A0,D2.W)
02:0000287E 6642            	  5566:     bne  _L_z07_UpdateSwordOrRod_DrawSwordOrRod
                            	  5567:     ; State 2 will last 8 frames. The higher ones last 1.
                            	  5568:     ;
02:00002880 41EC00AC        	  5569:     lea     ($00AC,A4),A0
02:00002884 10302000        	  5570:     move.b  (A0,D2.W),D0
02:00002888 0200000F        	  5571:     andi.b #$0F,D0
02:0000288C 1600            	  5572:     move.b  D0,D3
02:0000288E 7008            	  5573:     moveq   #8,D0
02:00002890 5303            	  5574:     subq.b  #1,D3
02:00002892 6702            	  5575:     beq  _anon_z07_32
02:00002894 7001            	  5576:     moveq   #1,D0
                            	  5577: _anon_z07_32:
                            	  5578:     ; Set both the player's animation counter and the sword's
                            	  5579:     ; animation counter/timer to this value.
                            	  5580:     ;
02:00002896 194003D0        	  5581:     move.b  D0,($03D0,A4)
02:0000289A 41EC03D0        	  5582:     lea     ($03D0,A4),A0
02:0000289E 11802000        	  5583:     move.b  D0,(A0,D2.W)
                            	  5584:     ; Go to the next state.
                            	  5585:     ;
02:000028A2 41EC00AC        	  5586:     lea     ($00AC,A4),A0
02:000028A6 52302000        	  5587:     addq.b  #1,(A0,D2.W)
                            	  5588:     ; Once we reach state 6, deactivate the object.
                            	  5589:     ; Otherwise, go draw it.
                            	  5590:     ;
02:000028AA 41EC00AC        	  5591:     lea     ($00AC,A4),A0
02:000028AE 10302000        	  5592:     move.b  (A0,D2.W),D0
02:000028B2 0200000F        	  5593:     andi.b #$0F,D0
02:000028B6 0C000006        	  5594:     cmpi.b  #$06,D0
02:000028BA 6506            	  5595:     bcs  _L_z07_UpdateSwordOrRod_DrawSwordOrRod
02:000028BC 6100019C        	  5596:     bsr     ResetObjState
                            	  5597:     even
                            	  5598: _L_z07_UpdateSwordOrRod_Exit:
02:000028C0 4E75            	  5599:     rts
                            	  5600: 
                            	  5601:     even
                            	  5602: _L_z07_UpdateSwordOrRod_DrawSwordOrRod:
                            	  5603:     ; Reset horizontal flipping in [0F].
                            	  5604:     ;
02:000028C2 7000            	  5605:     moveq   #0,D0
02:000028C4 1940000F        	  5606:     move.b  D0,($000F,A4)
                            	  5607:     ; If state = 5, return without drawing.
                            	  5608:     ;
02:000028C8 41EC00AC        	  5609:     lea     ($00AC,A4),A0
02:000028CC 10302000        	  5610:     move.b  (A0,D2.W),D0
02:000028D0 0200000F        	  5611:     andi.b #$0F,D0
02:000028D4 1600            	  5612:     move.b  D0,D3
02:000028D6 103C00FC        	  5613:     move.b  #$FC,D0
02:000028DA 0C030005        	  5614:     cmpi.b  #$05,D3
02:000028DE 67E0            	  5615:     beq  _L_z07_UpdateSwordOrRod_Exit
                            	  5616:     even
                            	  5617: _L_z07_UpdateSwordOrRod_Add4:
                            	  5618:     ; Set [00] to (state - 1) * 4:
                            	  5619:     ; the byte offset of the beginning of a set of pixel offsets.
                            	  5620:     ;
02:000028E0 023C00EE        	  5621:     andi.b  #$EE,CCR  ; CLC: clear C+X
02:000028E4 123C0004        	  5622:     move.b  #$04,D1
02:000028E8 D101            	  5623:     addx.b  D1,D0   ; ADC #$04 (X flag = 6502 C)
02:000028EA 5303            	  5624:     subq.b  #1,D3
02:000028EC 66F2            	  5625:     bne  _L_z07_UpdateSwordOrRod_Add4
02:000028EE 1880            	  5626:     move.b  D0,($0000,A4)
                            	  5627:     ; Set object's direction to player's. It might have changed
                            	  5628:     ; since the last frame.
                            	  5629:     ;
02:000028F0 102C0098        	  5630:     move.b  ($0098,A4),D0
02:000028F4 41EC0098        	  5631:     lea     ($0098,A4),A0
02:000028F8 11802000        	  5632:     move.b  D0,(A0,D2.W)
                            	  5633:     ; Add [00] and the reverse index of the direction to get
                            	  5634:     ; the byte offset of the pixel offset.
                            	  5635:     ;
02:000028FC 61000E5E        	  5636:     bsr     GetOppositeDir
02:00002900 1003            	  5637:     move.b  D3,D0
02:00002902 023C00EE        	  5638:     andi.b  #$EE,CCR  ; CLC: clear C+X
02:00002906 1214            	  5639:     move.b  ($0000,A4),D1
02:00002908 D101            	  5640:     addx.b  D1,D0   ; ADC $00
02:0000290A 1600            	  5641:     move.b  D0,D3
                            	  5642:     ; Set object's X to player's X + offset for state and direction.
                            	  5643:     ; Copy the result to [00].
                            	  5644:     ;
02:0000290C 102C0070        	  5645:     move.b  ($0070,A4),D0
02:00002910 023C00EE        	  5646:     andi.b  #$EE,CCR  ; CLC: clear C+X
02:00002914 41F900002848    	  5647:     lea     (PlayerToWeaponOffsetsX).l,A0
02:0000291A 12303000        	  5648:     move.b  (A0,D3.W),D1
02:0000291E D101            	  5649:     addx.b  D1,D0   ; ADC PlayerToWeaponOffsetsX,Y
02:00002920 19802070        	  5650:     move.b  D0,($70,A4,D2.W)
02:00002924 1880            	  5651:     move.b  D0,($0000,A4)
                            	  5652:     ; Set object's Y to player's Y + offset for state and direction.
                            	  5653:     ; Copy the result to [01].
                            	  5654:     ;
02:00002926 102C0084        	  5655:     move.b  ($0084,A4),D0
02:0000292A 023C00EE        	  5656:     andi.b  #$EE,CCR  ; CLC: clear C+X
02:0000292E 41F900002858    	  5657:     lea     (PlayerToWeaponOffsetsY).l,A0
02:00002934 12303000        	  5658:     move.b  (A0,D3.W),D1
02:00002938 D101            	  5659:     addx.b  D1,D0   ; ADC PlayerToWeaponOffsetsY,Y
02:0000293A 41EC0084        	  5660:     lea     ($0084,A4),A0
02:0000293E 11802000        	  5661:     move.b  D0,(A0,D2.W)
02:00002942 19400001        	  5662:     move.b  D0,($0001,A4)
                            	  5663:     ; If state = 1, use up direction.
                            	  5664:     ; Else use object direction.
                            	  5665:     ;
02:00002946 41EC00AC        	  5666:     lea     ($00AC,A4),A0
02:0000294A 10302000        	  5667:     move.b  (A0,D2.W),D0
02:0000294E 0200000F        	  5668:     andi.b #$0F,D0
02:00002952 1600            	  5669:     move.b  D0,D3
02:00002954 7008            	  5670:     moveq   #8,D0
02:00002956 5303            	  5671:     subq.b  #1,D3
02:00002958 6708            	  5672:     beq  _L_z07_UpdateSwordOrRod_CalcAttrs
02:0000295A 41EC0098        	  5673:     lea     ($0098,A4),A0
02:0000295E 10302000        	  5674:     move.b  (A0,D2.W),D0
                            	  5675:     even
                            	  5676: _L_z07_UpdateSwordOrRod_CalcAttrs:
                            	  5677:     ; Store the weapon's frame (horizontal or vertical)
                            	  5678:     ; for the direction chosen above in [0C].
                            	  5679:     ;
02:00002962 61000DF8        	  5680:     bsr     GetOppositeDir
02:00002966 41F9000023EE    	  5681:     lea     (RDirectionToWeaponFrame).l,A0
02:0000296C 10303000        	  5682:     move.b  (A0,D3.W),D0
02:00002970 1940000C        	  5683:     move.b  D0,($000C,A4)
                            	  5684:     ; Calculate sprite attributes.
                            	  5685:     ;
                            	  5686:     ; If the weapon is the rod, calculate its sprite attributes:
                            	  5687:     ;   base attribute OR 1
                            	  5688:     ; So, it uses palette row 5.
                            	  5689:     ;
02:00002974 41F9000023F2    	  5690:     lea     (RDirectionToWeaponBaseAttribute).l,A0
02:0000297A 10303000        	  5691:     move.b  (A0,D3.W),D0
02:0000297E 0C02000D        	  5692:     cmpi.b  #$0D,D2
02:00002982 6708            	  5693:     beq  _L_z07_UpdateSwordOrRod_CalcSwordAttrs
02:00002984 00000001        	  5694:     ori.b #$01,D0
02:00002988 4EF829A0        	  5695:     jmp     _L_z07_UpdateSwordOrRod_SetAttrs
                            	  5696: 
                            	  5697:     even
                            	  5698: _L_z07_UpdateSwordOrRod_CalcSwordAttrs:
                            	  5699:     ; The weapon is the sword.
                            	  5700:     ; To calculate the sprite attributes: (item value - 1) + base attribute
                            	  5701:     ;
02:0000298C 023C00EE        	  5702:     andi.b  #$EE,CCR  ; CLC: clear C+X
02:00002990 122C0657        	  5703:     move.b  ($0657,A4),D1
02:00002994 D101            	  5704:     addx.b  D1,D0   ; ADC Items
02:00002996 003C0011        	  5705:     ori.b   #$11,CCR  ; SEC: set C+X
02:0000299A 123C0001        	  5706:     move.b  #$01,D1
02:0000299E 9101            	  5707:     subx.b  D1,D0   ; SBC #$01
                            	  5708:     even
                            	  5709: _L_z07_UpdateSwordOrRod_SetAttrs:
                            	  5710:     ; Set sprite attributes to the calculated value above.
                            	  5711:     ;
02:000029A0 61000D96        	  5712:     bsr     Anim_SetSpriteDescriptorAttributes
                            	  5713:     ; If the direction is left, set [0F] to flip horizontally.
                            	  5714:     ;
02:000029A4 0C030002        	  5715:     cmpi.b  #$02,D3
02:000029A8 6604            	  5716:     bne  _anon_z07_33
02:000029AA 522C000F        	  5717:     addq.b  #1,($000F,A4)
                            	  5718: _anon_z07_33:
                            	  5719:     ; If state = 1, return. Don't show the weapon.
                            	  5720:     ;
02:000029AE 41EC00AC        	  5721:     lea     ($00AC,A4),A0
02:000029B2 10302000        	  5722:     move.b  (A0,D2.W),D0
02:000029B6 0200000F        	  5723:     andi.b #$0F,D0
02:000029BA 0C000001        	  5724:     cmpi.b  #$01,D0
02:000029BE 67000098        	  5725:     beq  L1F854_Exit
                            	  5726:     ; Set Y to the right item slot to pass to the routine to write sprites:
                            	  5727:     ; sword or rod
                            	  5728:     ;
                            	  5729:     ;
                            	  5730:     ; Sword slot
02:000029C2 7600            	  5731:     moveq   #0,D3
02:000029C4 0C02000D        	  5732:     cmpi.b  #$0D,D2
02:000029C8 6702            	  5733:     beq  _anon_z07_34
02:000029CA 7608            	  5734:     moveq   #8,D3
                            	  5735: _anon_z07_34:
02:000029CC 61000D6E        	  5736:     bsr     Anim_WriteItemSprites
                            	  5737:     ; If state <> 3, return.
                            	  5738:     ;
02:000029D0 41EC00AC        	  5739:     lea     ($00AC,A4),A0
02:000029D4 10302000        	  5740:     move.b  (A0,D2.W),D0
02:000029D8 0200000F        	  5741:     andi.b #$0F,D0
02:000029DC 0C000003        	  5742:     cmpi.b  #$03,D0
02:000029E0 6676            	  5743:     bne  L1F854_Exit
                            	  5744:     ; State = 3. Time to instantiate a shot.
                            	  5745:     ;
                            	  5746:     ; If object slot is not the rod's, go instantiate the sword shot separately.
                            	  5747:     ;
02:000029E2 0C020012        	  5748:     cmpi.b  #$12,D2
02:000029E6 667E            	  5749:     bne  MakeSwordShot
                            	  5750:     ; Instantiate a magic shot (rod shot).
                            	  5751:     ; Switch to the shot slot $E.
                            	  5752:     ;
02:000029E8 740E            	  5753:     moveq   #14,D2
                            	  5754:     ; If high bit of state is set, return. It's already active.
                            	  5755:     ;
02:000029EA 41EC00AC        	  5756:     lea     ($00AC,A4),A0
02:000029EE 10302000        	  5757:     move.b  (A0,D2.W),D0
02:000029F2 6704            	  5758:     beq  _L_z07_UpdateSwordOrRod_MakeMagicShot
02:000029F4 E308            	  5759:     lsl.b  #1,D0   ; ASL A
02:000029F6 6560            	  5760:     bcs  L1F854_Exit
                            	  5761:     even
                            	  5762: _L_z07_UpdateSwordOrRod_MakeMagicShot:
                            	  5763:     ; Play "magic shot" tune.
                            	  5764:     ;
02:000029F8 7004            	  5765:     moveq   #4,D0
02:000029FA 19400604        	  5766:     move.b  D0,($0604,A4)
                            	  5767:     ; Activate the shot object (state $80).
                            	  5768:     ;
02:000029FE 103C0080        	  5769:     move.b  #$80,D0
                            	  5770:     even
                            	  5771: SetUpWeaponWithState:
02:00002A02 41EC00AC        	  5772:     lea     ($00AC,A4),A0
02:00002A06 11802000        	  5773:     move.b  D0,(A0,D2.W)
02:00002A0A 7010            	  5774:     moveq   #16,D0
02:00002A0C 61000D60        	  5775:     bsr     PlaceWeapon
                            	  5776:     ; If the direction is horizontal, and X < $14 or >= $EC, then
                            	  5777:     ; deactivate the shot object.
                            	  5778:     ;
02:00002A10 41EC0098        	  5779:     lea     ($0098,A4),A0
02:00002A14 10302000        	  5780:     move.b  (A0,D2.W),D0
02:00002A18 02000003        	  5781:     andi.b #$03,D0
02:00002A1C 6710            	  5782:     beq  _L_z07_SetUpWeaponWithState_ChooseSpeed
02:00002A1E 10342070        	  5783:     move.b  ($70,A4,D2.W),D0
02:00002A22 0C000014        	  5784:     cmpi.b  #$14,D0
02:00002A26 6532            	  5785:     bcs  ResetObjState
02:00002A28 0C0000EC        	  5786:     cmpi.b  #$EC,D0
02:00002A2C 642C            	  5787:     bcc  ResetObjState
                            	  5788:     even
                            	  5789: _L_z07_SetUpWeaponWithState_ChooseSpeed:
                            	  5790:     ; If high bit of state is set, use $A0 else $C0 for the q-speed fraction.
                            	  5791:     ;
                            	  5792:     ; The high bit is set for magic shot, and reset for sword shot.
                            	  5793:     ;
02:00002A2E 163C00C0        	  5794:     move.b  #$C0,D3
02:00002A32 41EC00AC        	  5795:     lea     ($00AC,A4),A0
02:00002A36 10302000        	  5796:     move.b  (A0,D2.W),D0
02:00002A3A E308            	  5797:     lsl.b  #1,D0   ; ASL A
02:00002A3C 6404            	  5798:     bcc  _anon_z07_35
02:00002A3E 163C00A0        	  5799:     move.b  #$A0,D3
                            	  5800: _anon_z07_35:
02:00002A42 1003            	  5801:     move.b  D3,D0
02:00002A44 41EC03BC        	  5802:     lea     ($03BC,A4),A0
02:00002A48 11802000        	  5803:     move.b  D0,(A0,D2.W)
                            	  5804:     ; Set the shot object's grid offset the same as the player's.
                            	  5805:     ;
02:00002A4C 102C0394        	  5806:     move.b  ($0394,A4),D0
02:00002A50 41EC0394        	  5807:     lea     ($0394,A4),A0
02:00002A54 11802000        	  5808:     move.b  D0,(A0,D2.W)
                            	  5809:     even
                            	  5810: L1F854_Exit:
02:00002A58 4E75            	  5811:     rts
                            	  5812: 
                            	  5813: ; Returns:
                            	  5814: ; A: 0
                            	  5815: ;
                            	  5816: ; If it's the room item, then deactivates it.
                            	  5817: ;
                            	  5818:     even
                            	  5819: ResetObjState:
02:00002A5A 7000            	  5820:     moveq   #0,D0
02:00002A5C 41EC00AC        	  5821:     lea     ($00AC,A4),A0
02:00002A60 11802000        	  5822:     move.b  D0,(A0,D2.W)
02:00002A64 4E75            	  5823:     rts
                            	  5824: 
                            	  5825:     even
                            	  5826: MakeSwordShot:
                            	  5827:     ; Try to activate a sword shot.
                            	  5828:     ;
                            	  5829:     ; Switch to shot slot $E.
                            	  5830:     ;
02:00002A66 740E            	  5831:     moveq   #14,D2
                            	  5832:     ; If state <> 0, return. It's already activated.
                            	  5833:     ;
02:00002A68 41EC00AC        	  5834:     lea     ($00AC,A4),A0
02:00002A6C 10302000        	  5835:     move.b  (A0,D2.W),D0
02:00002A70 66E6            	  5836:     bne  L1F854_Exit
                            	  5837:     ; If [0529] is set, go activate a sword shot regardless of hearts.
                            	  5838:     ;
                            	  5839:     ; TODO: But is this used?
                            	  5840:     ;
02:00002A72 102C0529        	  5841:     move.b  ($0529,A4),D0
02:00002A76 6626            	  5842:     bne  _L_z07_MakeSwordShot_SetUp
                            	  5843:     ; If full hearts <> (heart containers - 1), return.
                            	  5844:     ;
02:00002A78 102C066F        	  5845:     move.b  ($066F,A4),D0
02:00002A7C 1B00            	  5846:     move.b  D0,-(A5)  ; PHA
02:00002A7E 0200000F        	  5847:     andi.b #$0F,D0
02:00002A82 1880            	  5848:     move.b  D0,($0000,A4)
02:00002A84 101D            	  5849:     move.b  (A5)+,D0  ; PLA
02:00002A86 E208            	  5850:     lsr.b  #1,D0   ; LSR A
02:00002A88 E208            	  5851:     lsr.b  #1,D0   ; LSR A
02:00002A8A E208            	  5852:     lsr.b  #1,D0   ; LSR A
02:00002A8C E208            	  5853:     lsr.b  #1,D0   ; LSR A
02:00002A8E 1214            	  5854:     move.b  ($0000,A4),D1
02:00002A90 B001            	  5855:     cmp.b   D1,D0
02:00002A92 66C4            	  5856:     bne  L1F854_Exit
                            	  5857:     ; If partial heart is less than half full, return.
                            	  5858:     ;
02:00002A94 102C0670        	  5859:     move.b  ($0670,A4),D0
02:00002A98 0C000080        	  5860:     cmpi.b  #$80,D0
02:00002A9C 65BA            	  5861:     bcs  L1F854_Exit
                            	  5862:     even
                            	  5863: _L_z07_MakeSwordShot_SetUp:
02:00002A9E 7001            	  5864:     moveq   #1,D0
02:00002AA0 61000CD2        	  5865:     bsr     PlaySample
                            	  5866:     ; Go finish setting up a sword shot in initial state $10.
                            	  5867:     ;
02:00002AA4 7010            	  5868:     moveq   #16,D0
02:00002AA6 6600FF5A        	  5869:     bne  SetUpWeaponWithState
                            	  5870:     even
                            	  5871: UpdateFire:
                            	  5872:     ; If this is not a walking fire (state $21), skip moving it.
                            	  5873:     ;
02:00002AAA 41EC00AC        	  5874:     lea     ($00AC,A4),A0
02:00002AAE 10302000        	  5875:     move.b  (A0,D2.W),D0
02:00002AB2 0C000021        	  5876:     cmpi.b  #$21,D0
02:00002AB6 6654            	  5877:     bne  _L_z07_UpdateFire_StandingFie
                            	  5878:     ; Move as if grid offset were 0.
                            	  5879:     ;
02:00002AB8 41EC0394        	  5880:     lea     ($0394,A4),A0
02:00002ABC 10302000        	  5881:     move.b  (A0,D2.W),D0
02:00002AC0 1B00            	  5882:     move.b  D0,-(A5)  ; PHA
02:00002AC2 7000            	  5883:     moveq   #0,D0
02:00002AC4 41EC0394        	  5884:     lea     ($0394,A4),A0
02:00002AC8 11802000        	  5885:     move.b  D0,(A0,D2.W)
02:00002ACC 41EC0098        	  5886:     lea     ($0098,A4),A0
02:00002AD0 10302000        	  5887:     move.b  (A0,D2.W),D0
02:00002AD4 1940000F        	  5888:     move.b  D0,($000F,A4)
02:00002AD8 6100F112        	  5889:     bsr     MoveObject
02:00002ADC 101D            	  5890:     move.b  (A5)+,D0  ; PLA
                            	  5891:     ; Add grid offset after the move to the original.
                            	  5892:     ; This makes it continuous, and useful as a distance traveled.
                            	  5893:     ;
02:00002ADE 023C00EE        	  5894:     andi.b  #$EE,CCR  ; CLC: clear C+X
02:00002AE2 41EC0394        	  5895:     lea     ($0394,A4),A0
02:00002AE6 12302000        	  5896:     move.b  (A0,D2.W),D1
02:00002AEA D101            	  5897:     addx.b  D1,D0   ; ADC ObjGridOffset,X
02:00002AEC 41EC0394        	  5898:     lea     ($0394,A4),A0
02:00002AF0 11802000        	  5899:     move.b  D0,(A0,D2.W)
                            	  5900:     ; If the absolute value of grid offset < $10, go draw.
                            	  5901:     ; 
                            	  5902:     ; Once the absolute value of grid offset = $10,
                            	  5903:     ; make the fire stand instead of move.
                            	  5904:     ; Set state $22 and last $3F frames.
                            	  5905:     ;
02:00002AF4 61000C3C        	  5906:     bsr     Abs
02:00002AF8 0C000010        	  5907:     cmpi.b  #$10,D0
02:00002AFC 662E            	  5908:     bne  _L_z07_UpdateFire_DrawAndCheckCollisions
02:00002AFE 703F            	  5909:     moveq   #63,D0
02:00002B00 19802028        	  5910:     move.b  D0,($28,A4,D2.W)
02:00002B04 41EC00AC        	  5911:     lea     ($00AC,A4),A0
02:00002B08 52302000        	  5912:     addq.b  #1,(A0,D2.W)
                            	  5913:     even
                            	  5914: _L_z07_UpdateFire_StandingFie:
                            	  5915:     ; Check a standing fire.
                            	  5916:     ;
                            	  5917:     ; If time has run out, deactivate the item and return.
                            	  5918:     ;
02:00002B0C 10342028        	  5919:     move.b  ($28,A4,D2.W),D0
02:00002B10 6700FF48        	  5920:     beq  ResetObjState
                            	  5921:     ; If in UW, update the candle to brighten the room if needed.
                            	  5922:     ;
02:00002B14 102C0010        	  5923:     move.b  ($0010,A4),D0
02:00002B18 6712            	  5924:     beq  _L_z07_UpdateFire_DrawAndCheckCollisions
02:00002B1A 1002            	  5925:     move.b  D2,D0
02:00002B1C 1B00            	  5926:     move.b  D0,-(A5)  ; PHA
02:00002B1E 7004            	  5927:     moveq   #4,D0
02:00002B20 61000BAA        	  5928:     bsr     SwitchBank
02:00002B24 61000CD6        	  5929:     bsr     UpdateCandle
02:00002B28 101D            	  5930:     move.b  (A5)+,D0  ; PLA
02:00002B2A 1400            	  5931:     move.b  D0,D2
                            	  5932:     even
                            	  5933: _L_z07_UpdateFire_DrawAndCheckCollisions:
                            	  5934:     ; Advance the animation counter, and draw.
                            	  5935:     ;
                            	  5936:     ;
                            	  5937:     ; 4 frames in every animation cycle.
02:00002B2C 7004            	  5938:     moveq   #4,D0
02:00002B2E 6100030A        	  5939:     bsr     Anim_AdvanceAnimCounterAndSetObjPosForSpriteDescriptor
02:00002B32 610002D6        	  5940:     bsr     Anim_SetObjHFlipForSpriteDescriptor
02:00002B36 61000C02        	  5941:     bsr     Anim_SetSpriteDescriptorRedPaletteRow
02:00002B3A 7000            	  5942:     moveq   #0,D0
02:00002B3C 1940000C        	  5943:     move.b  D0,($000C,A4)
02:00002B40 7640            	  5944:     moveq   #64,D3
02:00002B42 61000C14        	  5945:     bsr     DrawObjectWithType
                            	  5946:     ; Now check for a collision with the player.
                            	  5947:     ;
                            	  5948:     ; First, if the player is invincible, return.
                            	  5949:     ;
02:00002B46 102C04F0        	  5950:     move.b  ($04F0,A4),D0
02:00002B4A 665E            	  5951:     bne  L1F91D_Exit
                            	  5952:     ; Save the object index in [00].
                            	  5953:     ;
02:00002B4C 1882            	  5954:     move.b  D2,($0000,A4)
                            	  5955:     ; Store the player's center point coordinates in [04] and [05].
                            	  5956:     ;
02:00002B4E 7400            	  5957:     moveq   #0,D2
02:00002B50 7602            	  5958:     moveq   #2,D3
02:00002B52 612E            	  5959:     bsr     GetWideObjectMiddle
                            	  5960:     ; Store the fire's center point coordinates in [02] and [03].
                            	  5961:     ;
02:00002B54 1414            	  5962:     move.b  ($0000,A4),D2
02:00002B56 7600            	  5963:     moveq   #0,D3
02:00002B58 6128            	  5964:     bsr     GetWideObjectMiddle
                            	  5965:     ; If the objects don't collide (< $E pixels in X and Y), then return.
                            	  5966:     ;
02:00002B5A 1614            	  5967:     move.b  ($0000,A4),D3
02:00002B5C 7400            	  5968:     moveq   #0,D2
02:00002B5E 700E            	  5969:     moveq   #14,D0
02:00002B60 61000BF2        	  5970:     bsr     DoObjectsCollide
02:00002B64 6744            	  5971:     beq  L1F91D_Exit
                            	  5972:     ; The player and the fire collide.
                            	  5973:     ;
                            	  5974:     ; Make the fire shove the player.
                            	  5975:     ;
02:00002B66 1414            	  5976:     move.b  ($0000,A4),D2
02:00002B68 7600            	  5977:     moveq   #0,D3
02:00002B6A 1883            	  5978:     move.b  D3,($0000,A4)
02:00002B6C 61000BD6        	  5979:     bsr     BeginShove
                            	  5980:     ; Harm the player $80 points.
                            	  5981:     ;
02:00002B70 7000            	  5982:     moveq   #0,D0
02:00002B72 1940000D        	  5983:     move.b  D0,($000D,A4)
02:00002B76 103C0080        	  5984:     move.b  #$80,D0
02:00002B7A 1940000E        	  5985:     move.b  D0,($000E,A4)
02:00002B7E 4EF83768        	  5986:     jmp     Link_BeHarmed
                            	  5987: 
                            	  5988: ; Params:
                            	  5989: ; X: object index
                            	  5990: ; Y: offset from [02] and [03] to store center X and Y
                            	  5991: ;
                            	  5992: ; Returns:
                            	  5993: ; [02 + Y]: center X
                            	  5994: ; [03 + Y]: center Y
                            	  5995: ;
                            	  5996:     even
                            	  5997: GetWideObjectMiddle:
02:00002B82 10342070        	  5998:     move.b  ($70,A4,D2.W),D0
02:00002B86 023C00EE        	  5999:     andi.b  #$EE,CCR  ; CLC: clear C+X
02:00002B8A 123C0008        	  6000:     move.b  #$08,D1
02:00002B8E D101            	  6001:     addx.b  D1,D0   ; ADC #$08 (X flag = 6502 C)
02:00002B90 19803002        	  6002:     move.b  D0,($02,A4,D3.W)
02:00002B94 41EC0084        	  6003:     lea     ($0084,A4),A0
02:00002B98 10302000        	  6004:     move.b  (A0,D2.W),D0
02:00002B9C 023C00EE        	  6005:     andi.b  #$EE,CCR  ; CLC: clear C+X
02:00002BA0 123C0008        	  6006:     move.b  #$08,D1
02:00002BA4 D101            	  6007:     addx.b  D1,D0   ; ADC #$08 (X flag = 6502 C)
02:00002BA6 19803003        	  6008:     move.b  D0,($03,A4,D3.W)
                            	  6009:     even
                            	  6010: L1F91D_Exit:
02:00002BAA 4E75            	  6011:     rts
                            	  6012: 
                            	  6013:     even
                            	  6014: BombTimes:
02:00002BAC 30              	  6015:     dc.b    $30, $18, $0C, $06
02:00002BAD 18
02:00002BAE 0C
02:00002BAF 06
                            	  6016: 
                            	  6017:     even
                            	  6018: BombableWallHotspotsX:
02:00002BB0 78              	  6019:     dc.b    $78, $78, $20, $D0
02:00002BB1 78
02:00002BB2 20
02:00002BB3 D0
                            	  6020: 
                            	  6021:     even
                            	  6022: BombableWallHotspotsY:
02:00002BB4 5D              	  6023:     dc.b    $5D, $BD, $8D, $8D
02:00002BB5 BD
02:00002BB6 8D
02:00002BB7 8D
                            	  6024: 
                            	  6025:     even
                            	  6026: UpdateBombOrFire:
                            	  6027:     ; If the object's not active, return.
                            	  6028:     ;
02:00002BB8 41EC00AC        	  6029:     lea     ($00AC,A4),A0
02:00002BBC 10302000        	  6030:     move.b  (A0,D2.W),D0
02:00002BC0 6764            	  6031:     beq  L1F95F_Exit
                            	  6032:     ; Bomb major state = $10. Fire major state = $20.
                            	  6033:     ;
02:00002BC2 020000F0        	  6034:     andi.b #$F0,D0
02:00002BC6 0C000010        	  6035:     cmpi.b  #$10,D0
02:00002BCA 6704            	  6036:     beq  UpdateBomb
02:00002BCC 4EF82AAA        	  6037:     jmp     UpdateFire
                            	  6038: 
                            	  6039:     even
                            	  6040: UpdateBomb:
                            	  6041:     ; This is a bomb.
                            	  6042:     ;
                            	  6043:     ; If the timer has not expired, then go draw.
                            	  6044:     ;
02:00002BD0 10342028        	  6045:     move.b  ($28,A4,D2.W),D0
02:00002BD4 660000DA        	  6046:     bne  DrawBomb
                            	  6047:     ; The timer has expired. Set another based on the minor state.
                            	  6048:     ; Advance the state.
                            	  6049:     ;
02:00002BD8 41EC00AC        	  6050:     lea     ($00AC,A4),A0
02:00002BDC 10302000        	  6051:     move.b  (A0,D2.W),D0
02:00002BE0 0200000F        	  6052:     andi.b #$0F,D0
02:00002BE4 1600            	  6053:     move.b  D0,D3
02:00002BE6 41F900002BAB    	  6054:     lea     (BombTimes-1).l,A0
02:00002BEC 10303000        	  6055:     move.b  (A0,D3.W),D0
02:00002BF0 19802028        	  6056:     move.b  D0,($28,A4,D2.W)
02:00002BF4 41EC00AC        	  6057:     lea     ($00AC,A4),A0
02:00002BF8 52302000        	  6058:     addq.b  #1,(A0,D2.W)
                            	  6059:     ; If the minor state = 3, play the sound effect.
                            	  6060:     ;
02:00002BFC 41EC00AC        	  6061:     lea     ($00AC,A4),A0
02:00002C00 10302000        	  6062:     move.b  (A0,D2.W),D0
02:00002C04 0200000F        	  6063:     andi.b #$0F,D0
02:00002C08 1B00            	  6064:     move.b  D0,-(A5)  ; PHA
02:00002C0A 0C000003        	  6065:     cmpi.b  #$03,D0
02:00002C0E 6606            	  6066:     bne  _L_z07_UpdateBomb_CheckState5
02:00002C10 7010            	  6067:     moveq   #16,D0
02:00002C12 61000B5E        	  6068:     bsr     PlayEffect
                            	  6069:     even
                            	  6070: _L_z07_UpdateBomb_CheckState5:
02:00002C16 101D            	  6071:     move.b  (A5)+,D0  ; PLA
                            	  6072:     ; If minor state = 5, then deactivate the bomb, and return.
                            	  6073:     ;
02:00002C18 0C000005        	  6074:     cmpi.b  #$05,D0
02:00002C1C 660A            	  6075:     bne  Bomb_CheckState4
02:00002C1E 6100FE3A        	  6076:     bsr     ResetObjState
02:00002C22 19802028        	  6077:     move.b  D0,($28,A4,D2.W)
                            	  6078:     even
                            	  6079: L1F95F_Exit:
02:00002C26 4E75            	  6080:     rts
                            	  6081: 
                            	  6082:     even
                            	  6083: Bomb_CheckState4:
                            	  6084:     ; If minor state <> 4, go draw.
                            	  6085:     ;
02:00002C28 0C000004        	  6086:     cmpi.b  #$04,D0
02:00002C2C 66000082        	  6087:     bne  DrawBomb
                            	  6088:     ; Minor state = 4. Try to break a wall.
                            	  6089:     ;
                            	  6090:     ; If in OW, go draw. Rock walls have a tile object that checks for bombs.
                            	  6091:     ;
02:00002C30 102C0010        	  6092:     move.b  ($0010,A4),D0
02:00002C34 677A            	  6093:     beq  DrawBomb
                            	  6094:     ; Bombs don't blast walls in cellars (mode 9). Go draw.
                            	  6095:     ;
02:00002C36 102C0012        	  6096:     move.b  ($0012,A4),D0
02:00002C3A 0C000009        	  6097:     cmpi.b  #$09,D0
02:00002C3E 6770            	  6098:     beq  DrawBomb
                            	  6099:     ; We're in UW. See if the bomb is near a bombable wall.
                            	  6100:     ;
02:00002C40 7604            	  6101:     moveq   #4,D3
                            	  6102:     even
                            	  6103: _L_z07_Bomb_CheckState4_LoopHotspot:
02:00002C42 5303            	  6104:     subq.b  #1,D3
02:00002C44 6B6A            	  6105:     bmi  DrawBomb
                            	  6106:     ; If the bomb's X is not within $18 pixels of the hotspot, then
                            	  6107:     ; go check the next hotspot.
                            	  6108:     ;
02:00002C46 41F900002BB0    	  6109:     lea     (BombableWallHotspotsX).l,A0
02:00002C4C 10303000        	  6110:     move.b  (A0,D3.W),D0
02:00002C50 003C0011        	  6111:     ori.b   #$11,CCR  ; SEC: set C+X
                            	  6112: ; [SBC unhandled mode=ABS_X] SBC ObjX, X
02:00002C54 61000ADC        	  6113:     bsr     Abs
02:00002C58 0C000018        	  6114:     cmpi.b  #$18,D0
02:00002C5C 64E4            	  6115:     bcc  _L_z07_Bomb_CheckState4_LoopHotspot
                            	  6116:     ; If the bomb's Y is not within $18 pixels of the hotspot, then
                            	  6117:     ; go check the next hotspot.
                            	  6118:     ;
02:00002C5E 41F900002BB4    	  6119:     lea     (BombableWallHotspotsY).l,A0
02:00002C64 10303000        	  6120:     move.b  (A0,D3.W),D0
02:00002C68 003C0011        	  6121:     ori.b   #$11,CCR  ; SEC: set C+X
                            	  6122: ; [SBC unhandled mode=ABS_X] SBC ObjY, X
02:00002C6C 61000AC4        	  6123:     bsr     Abs
02:00002C70 0C000018        	  6124:     cmpi.b  #$18,D0
02:00002C74 64CC            	  6125:     bcc  _L_z07_Bomb_CheckState4_LoopHotspot
                            	  6126:     ; Store in [02] the direction corresponding to the hotspot's index.
                            	  6127:     ;
02:00002C76 41F900003776    	  6128:     lea     (ReverseDirections).l,A0
02:00002C7C 10303000        	  6129:     move.b  (A0,D3.W),D0
02:00002C80 19400002        	  6130:     move.b  D0,($0002,A4)
                            	  6131:     ; If it was already opened or triggered, then go draw.
                            	  6132:     ;
02:00002C84 122C00EE        	  6133:     move.b  ($00EE,A4),D1
02:00002C88 C001            	  6134:     and.b  D1,D0
02:00002C8A 6624            	  6135:     bne  DrawBomb
02:00002C8C 102C0054        	  6136:     move.b  ($0054,A4),D0
02:00002C90 661E            	  6137:     bne  DrawBomb
                            	  6138:     ; If it's not a bombable wall, go draw.
                            	  6139:     ;
02:00002C92 7005            	  6140:     moveq   #5,D0
02:00002C94 61000A36        	  6141:     bsr     SwitchBank
02:00002C98 61000BE0        	  6142:     bsr     FindDoorAttrByDoorBit
02:00002C9C 0C000004        	  6143:     cmpi.b  #$04,D0
02:00002CA0 660E            	  6144:     bne  DrawBomb
                            	  6145:     ; Trigger this bombable wall to open.
                            	  6146:     ;
02:00002CA2 7006            	  6147:     moveq   #6,D0
02:00002CA4 19400054        	  6148:     move.b  D0,($0054,A4)
02:00002CA8 102C0002        	  6149:     move.b  ($0002,A4),D0
02:00002CAC 19400055        	  6150:     move.b  D0,($0055,A4)
                            	  6151:     even
                            	  6152: DrawBomb:
                            	  6153:     ; Draw the bomb or dust cloud.
                            	  6154:     ;
02:00002CB0 61000196        	  6155:     bsr     Anim_FetchObjPosForSpriteDescriptor
02:00002CB4 6118            	  6156:     bsr     DrawBombOrCloudAt
                            	  6157:     ; If minor state = 2, we drew a bomb. So, return.
                            	  6158:     ;
02:00002CB6 41EC00AC        	  6159:     lea     ($00AC,A4),A0
02:00002CBA 10302000        	  6160:     move.b  (A0,D2.W),D0
02:00002CBE 0200000F        	  6161:     andi.b #$0F,D0
02:00002CC2 0C000002        	  6162:     cmpi.b  #$02,D0
02:00002CC6 6700FF5E        	  6163:     beq  L1F95F_Exit
                            	  6164:     ; Otherwise, we drew one dust cloud. Go draw the others.
                            	  6165:     ;
02:00002CCA 4EF82D12        	  6166:     jmp     DrawOtherBombClouds
                            	  6167: 
                            	  6168: ; Params:
                            	  6169: ; X: object index
                            	  6170: ; [00]: X
                            	  6171: ; [01]: Y
                            	  6172: ;
                            	  6173:     even
                            	  6174: DrawBombOrCloudAt:
02:00002CCE 61000AB0        	  6175:     bsr     UpdateBombFlashEffect
                            	  6176: ; Params:
                            	  6177: ; X: object index
                            	  6178: ; [00]: X
                            	  6179: ; [01]: Y
                            	  6180: ;
                            	  6181: ;
                            	  6182: ; Set frame image = minor state - 2.
                            	  6183: ;
                            	  6184:     even
                            	  6185: DrawBombOrCloudNoFlashing:
02:00002CD2 41EC00AC        	  6186:     lea     ($00AC,A4),A0
02:00002CD6 10302000        	  6187:     move.b  (A0,D2.W),D0
02:00002CDA 0200000F        	  6188:     andi.b #$0F,D0
02:00002CDE 003C0011        	  6189:     ori.b   #$11,CCR  ; SEC: set C+X
02:00002CE2 123C0002        	  6190:     move.b  #$02,D1
02:00002CE6 9101            	  6191:     subx.b  D1,D0   ; SBC #$02
                            	  6192: ; Params:
                            	  6193: ; A: frame image (1 to 3)
                            	  6194: ; X: object index
                            	  6195: ; [00]: X
                            	  6196: ; [01]: Y
                            	  6197: ;
                            	  6198: ;
                            	  6199: ; [0C] frame image
                            	  6200:     even
                            	  6201: DrawCloud:
02:00002CE8 1940000C        	  6202:     move.b  D0,($000C,A4)
02:00002CEC 7600            	  6203:     moveq   #0,D3
02:00002CEE 1943000F        	  6204:     move.b  D3,($000F,A4)
                            	  6205:     ; Write sprites with blue sprite palette row and bomb item slot.
                            	  6206:     ;
02:00002CF2 5203            	  6207:     addq.b  #1,D3
02:00002CF4 19430004        	  6208:     move.b  D3,($0004,A4)
02:00002CF8 19430005        	  6209:     move.b  D3,($0005,A4)
02:00002CFC 7601            	  6210:     moveq   #1,D3
02:00002CFE 4EF8373C        	  6211:     jmp     Anim_WriteItemSprites
                            	  6212: 
                            	  6213:     even
                            	  6214: BombCloudOffsetsY1:
02:00002D02 F3              	  6215:     dc.b    $F3, $00, $0E
02:00002D03 00
02:00002D04 0E
                            	  6216: 
                            	  6217:     even
                            	  6218: BombCloudOffsetsX1:
02:00002D06 F9              	  6219:     dc.b    $F9, $0E, $07
02:00002D07 0E
02:00002D08 07
                            	  6220: 
                            	  6221:     even
                            	  6222: BombCloudOffsetsY2:
02:00002D0A F3              	  6223:     dc.b    $F3, $00, $0E
02:00002D0B 00
02:00002D0C 0E
                            	  6224: 
                            	  6225:     even
                            	  6226: BombCloudOffsetsX2:
02:00002D0E 07              	  6227:     dc.b    $07, $F3, $F9
02:00002D0F F3
02:00002D10 F9
                            	  6228: 
                            	  6229:     even
                            	  6230: DrawOtherBombClouds:
                            	  6231:     ; For each of 3 clouds, indexed by Y register:
                            	  6232:     ;
02:00002D12 7602            	  6233:     moveq   #2,D3
                            	  6234:     even
                            	  6235: _L_z07_DrawOtherBombClouds_LoopCloud:
02:00002D14 1003            	  6236:     move.b  D3,D0
02:00002D16 1B00            	  6237:     move.b  D0,-(A5)  ; PHA
                            	  6238:     ; Every other screen frame, add 6 to the index to point inside
                            	  6239:     ; the second set of coordinates.
                            	  6240:     ;
02:00002D18 102C0015        	  6241:     move.b  ($0015,A4),D0
02:00002D1C E208            	  6242:     lsr.b  #1,D0   ; LSR A
02:00002D1E 640E            	  6243:     bcc  _L_z07_DrawOtherBombClouds_Draw
02:00002D20 1003            	  6244:     move.b  D3,D0
02:00002D22 023C00EE        	  6245:     andi.b  #$EE,CCR  ; CLC: clear C+X
02:00002D26 123C0006        	  6246:     move.b  #$06,D1
02:00002D2A D101            	  6247:     addx.b  D1,D0   ; ADC #$06 (X flag = 6502 C)
02:00002D2C 1600            	  6248:     move.b  D0,D3
                            	  6249:     even
                            	  6250: _L_z07_DrawOtherBombClouds_Draw:
                            	  6251:     ; Set [01] to cloud position (object Y + Y offset).
                            	  6252:     ;
02:00002D2E 41EC0084        	  6253:     lea     ($0084,A4),A0
02:00002D32 10302000        	  6254:     move.b  (A0,D2.W),D0
02:00002D36 023C00EE        	  6255:     andi.b  #$EE,CCR  ; CLC: clear C+X
02:00002D3A 41F900002D02    	  6256:     lea     (BombCloudOffsetsY1).l,A0
02:00002D40 12303000        	  6257:     move.b  (A0,D3.W),D1
02:00002D44 D101            	  6258:     addx.b  D1,D0   ; ADC BombCloudOffsetsY1,Y
02:00002D46 19400001        	  6259:     move.b  D0,($0001,A4)
                            	  6260:     ; Set [00] to cloud position (object X + X offset).
                            	  6261:     ;
02:00002D4A 10342070        	  6262:     move.b  ($70,A4,D2.W),D0
02:00002D4E 023C00EE        	  6263:     andi.b  #$EE,CCR  ; CLC: clear C+X
02:00002D52 41F900002D06    	  6264:     lea     (BombCloudOffsetsX1).l,A0
02:00002D58 12303000        	  6265:     move.b  (A0,D3.W),D1
02:00002D5C D101            	  6266:     addx.b  D1,D0   ; ADC BombCloudOffsetsX1,Y
02:00002D5E 1880            	  6267:     move.b  D0,($0000,A4)
                            	  6268:     ; Draw the cloud at this position.
                            	  6269:     ;
02:00002D60 6100FF70        	  6270:     bsr     DrawBombOrCloudNoFlashing
02:00002D64 101D            	  6271:     move.b  (A5)+,D0  ; PLA
02:00002D66 1600            	  6272:     move.b  D0,D3
                            	  6273:     ; Loop while >= 0.
                            	  6274:     ;
02:00002D68 5303            	  6275:     subq.b  #1,D3
02:00002D6A 6AA8            	  6276:     bpl  _L_z07_DrawOtherBombClouds_LoopCloud
02:00002D6C 4E75            	  6277:     rts
                            	  6278: 
                            	  6279:     even
                            	  6280: AnimateAndDrawMetaObject:
02:00002D6E 610000D8        	  6281:     bsr     Anim_FetchObjPosForSpriteDescriptor
                            	  6282:     ; If the metastate >= $10, go animate and draw the death sparkle.
                            	  6283:     ;
02:00002D72 41EC0405        	  6284:     lea     ($0405,A4),A0
02:00002D76 10302000        	  6285:     move.b  (A0,D2.W),D0
02:00002D7A 0C000010        	  6286:     cmpi.b  #$10,D0
02:00002D7E 641E            	  6287:     bcc  _L_z07_AnimateAndDrawMetaObject_AnimateSpark
                            	  6288:     ; Animate and draw the spawning cloud.
                            	  6289:     ;
02:00002D80 0200000F        	  6290:     andi.b #$0F,D0
02:00002D84 6100FF62        	  6291:     bsr     DrawCloud
                            	  6292:     even
                            	  6293: _L_z07_AnimateAndDrawMetaObject_CheckMetaObjTimer:
                            	  6294:     ; If the object's timer has expire, then go to the next metastate
                            	  6295:     ; and last 6 frames.
                            	  6296:     ;
02:00002D88 10342028        	  6297:     move.b  ($28,A4,D2.W),D0
02:00002D8C 660E            	  6298:     bne  _L_z07_AnimateAndDrawMetaObject_Exit
                            	  6299:     even
                            	  6300: _L_z07_AnimateAndDrawMetaObject_IncMetastate:
02:00002D8E 7006            	  6301:     moveq   #6,D0
02:00002D90 19802028        	  6302:     move.b  D0,($28,A4,D2.W)
02:00002D94 41EC0405        	  6303:     lea     ($0405,A4),A0
02:00002D98 52302000        	  6304:     addq.b  #1,(A0,D2.W)
                            	  6305:     even
                            	  6306: _L_z07_AnimateAndDrawMetaObject_Exit:
02:00002D9C 4E75            	  6307:     rts
                            	  6308: 
                            	  6309:     even
                            	  6310: _L_z07_AnimateAndDrawMetaObject_AnimateSpark:
                            	  6311:     ; If metastate = $10, then go increment metastate and set
                            	  6312:     ; object timer without drawing.
                            	  6313:     ;
02:00002D9E 0200000F        	  6314:     andi.b #$0F,D0
02:00002DA2 67EA            	  6315:     beq  _L_z07_AnimateAndDrawMetaObject_IncMetastate
                            	  6316:     ; Set the frame image in [0C] (1, 0, 1) for the metastate.
                            	  6317:     ;
02:00002DA4 02000001        	  6318:     andi.b #$01,D0
02:00002DA8 1940000C        	  6319:     move.b  D0,($000C,A4)
02:00002DAC 7001            	  6320:     moveq   #1,D0
02:00002DAE 61000988        	  6321:     bsr     Anim_SetSpriteDescriptorAttributes
02:00002DB2 7624            	  6322:     moveq   #36,D3
02:00002DB4 61000986        	  6323:     bsr     Anim_WriteItemSprites
02:00002DB8 4EF82D88        	  6324:     jmp     _L_z07_AnimateAndDrawMetaObject_CheckMetaObjTimer
                            	  6325: 
                            	  6326: ; Returns:
                            	  6327: ; Y: animation frame
                            	  6328: ; [00]: object X
                            	  6329: ; [01]: object Y
                            	  6330: ; [0F]: flip horizontally
                            	  6331: ;
                            	  6332:     even
                            	  6333: AnimateLinkBase:
02:00002DBC 102C00AC        	  6334:     move.b  ($00AC,A4),D0
02:00002DC0 6616            	  6335:     bne  AnimateObjectWalking
02:00002DC2 102C0012        	  6336:     move.b  ($0012,A4),D0
02:00002DC6 0C000004        	  6337:     cmpi.b  #$04,D0
02:00002DCA 670C            	  6338:     beq  AnimateObjectWalking
02:00002DCC 0C000010        	  6339:     cmpi.b  #$10,D0
02:00002DD0 6706            	  6340:     beq  AnimateObjectWalking
02:00002DD2 102C03F8        	  6341:     move.b  ($03F8,A4),D0
02:00002DD6 6718            	  6342:     beq  SetUpWalkingSprites
                            	  6343: ; Params:
                            	  6344: ; X: object index
                            	  6345: ;
                            	  6346: ; Returns:
                            	  6347: ; Y: animation frame
                            	  6348: ; [00]: object X
                            	  6349: ; [01]: object Y
                            	  6350: ; [0F]: flip horizontal
                            	  6351: ;
                            	  6352: ; As the object walks, the animation counter rolls down.
                            	  6353: ;
                            	  6354:     even
                            	  6355: AnimateObjectWalking:
02:00002DD8 41EC03D0        	  6356:     lea     ($03D0,A4),A0
02:00002DDC 53302000        	  6357:     subq.b  #1,(A0,D2.W)
02:00002DE0 660E            	  6358:     bne  SetUpWalkingSprites
                            	  6359:     ; Once the counter reaches 0, and if object is the player,
                            	  6360:     ; animate Link's object state.
                            	  6361:     ;
02:00002DE2 4A02            	  6362:     cmpi.b  #$00,D2
02:00002DE4 6604            	  6363:     bne  _anon_z07_36
02:00002DE6 6100009A        	  6364:     bsr     AnimateLinkObjState
                            	  6365: _anon_z07_36:
                            	  6366:     ; Roll over the counter (6 frames).
                            	  6367:     ;
02:00002DEA 7006            	  6368:     moveq   #6,D0
02:00002DEC 1880            	  6369:     move.b  D0,($0000,A4)
02:00002DEE 6172            	  6370:     bsr     RollOverAnimCounter
                            	  6371:     even
                            	  6372: SetUpWalkingSprites:
                            	  6373:     ; Set up sprite position in the descriptors.
                            	  6374:     ;
02:00002DF0 6156            	  6375:     bsr     Anim_FetchObjPosForSpriteDescriptor
                            	  6376:     ; Set up horizontal flipping.
                            	  6377:     ;
02:00002DF2 41EC0098        	  6378:     lea     ($0098,A4),A0
02:00002DF6 10302000        	  6379:     move.b  (A0,D2.W),D0
02:00002DFA 0200000C        	  6380:     andi.b #$0C,D0
02:00002DFE 6718            	  6381:     beq  SetUpHorizontalWalkingSprites
                            	  6382:     ; Facing up or down.
                            	  6383:     ;
                            	  6384:     ;
                            	  6385:     ; Assume animation frame 3 (up).
02:00002E00 7603            	  6386:     moveq   #3,D3
02:00002E02 02000008        	  6387:     andi.b #$08,D0
02:00002E06 6602            	  6388:     bne  Anim_SetObjHFlipForSpriteDescriptor
02:00002E08 5303            	  6389:     subq.b  #1,D3
                            	  6390: ; Use the movement frame as the value for horizontal flipping.
                            	  6391: ;
                            	  6392: ; Params:
                            	  6393: ; X: object index
                            	  6394: ;
                            	  6395: ; Returns:
                            	  6396: ; [0F]: flip horizontal, based on ObjMovementFrame
                            	  6397: ;
                            	  6398:     even
                            	  6399: Anim_SetObjHFlipForSpriteDescriptor:
02:00002E0A 41EC03E4        	  6400:     lea     ($03E4,A4),A0
02:00002E0E 10302000        	  6401:     move.b  (A0,D2.W),D0
02:00002E12 1940000F        	  6402:     move.b  D0,($000F,A4)
02:00002E16 4E75            	  6403:     rts
                            	  6404: 
                            	  6405:     even
                            	  6406: SetUpHorizontalWalkingSprites:
                            	  6407:     ; Facing left or right.
                            	  6408:     ;
                            	  6409:     ;
                            	  6410:     ; Assume animation frame 0 (legs apart).
02:00002E18 7600            	  6411:     moveq   #0,D3
02:00002E1A 41EC03E4        	  6412:     lea     ($03E4,A4),A0
02:00002E1E 10302000        	  6413:     move.b  (A0,D2.W),D0
02:00002E22 6702            	  6414:     beq  _anon_z07_37
02:00002E24 5203            	  6415:     addq.b  #1,D3
                            	  6416: _anon_z07_37:
02:00002E26 41EC0098        	  6417:     lea     ($0098,A4),A0
02:00002E2A 10302000        	  6418:     move.b  (A0,D2.W),D0
02:00002E2E 02000001        	  6419:     andi.b #$01,D0
02:00002E32 6604            	  6420:     bne  _anon_z07_38
02:00002E34 522C000F        	  6421:     addq.b  #1,($000F,A4)
                            	  6422: _anon_z07_38:
02:00002E38 4E75            	  6423:     rts
                            	  6424: 
                            	  6425: ; Params:
                            	  6426: ; A: new value for animation counter, in case it rolls over
                            	  6427: ; X: object index
                            	  6428: ;
                            	  6429: ; Returns:
                            	  6430: ; A: 0
                            	  6431: ; [00]: X
                            	  6432: ; [01]: Y
                            	  6433: ; [0F]: 0 for no horizontal flipping
                            	  6434: ;
                            	  6435:     even
                            	  6436: Anim_AdvanceAnimCounterAndSetObjPosForSpriteDescriptor:
02:00002E3A 1880            	  6437:     move.b  D0,($0000,A4)
02:00002E3C 41EC03D0        	  6438:     lea     ($03D0,A4),A0
02:00002E40 53302000        	  6439:     subq.b  #1,(A0,D2.W)
02:00002E44 6602            	  6440:     bne  Anim_FetchObjPosForSpriteDescriptor
02:00002E46 611A            	  6441:     bsr     RollOverAnimCounter
                            	  6442: ; Params:
                            	  6443: ; X: object index
                            	  6444: ;
                            	  6445: ; Returns:
                            	  6446: ; A: 0
                            	  6447: ; [00]: X
                            	  6448: ; [01]: Y
                            	  6449: ; [0F]: 0 for no horizontal flipping
                            	  6450: ;
                            	  6451:     even
                            	  6452: Anim_FetchObjPosForSpriteDescriptor:
02:00002E48 10342070        	  6453:     move.b  ($70,A4,D2.W),D0
02:00002E4C 1880            	  6454:     move.b  D0,($0000,A4)
02:00002E4E 41EC0084        	  6455:     lea     ($0084,A4),A0
02:00002E52 10302000        	  6456:     move.b  (A0,D2.W),D0
02:00002E56 19400001        	  6457:     move.b  D0,($0001,A4)
02:00002E5A 7000            	  6458:     moveq   #0,D0
02:00002E5C 1940000F        	  6459:     move.b  D0,($000F,A4)
02:00002E60 4E75            	  6460:     rts
                            	  6461: 
                            	  6462: ; Roll over the animation counter, and switch the movement frame.
                            	  6463: ;
                            	  6464: ; Params:
                            	  6465: ; [00]: new counter value
                            	  6466: ;
                            	  6467:     even
                            	  6468: RollOverAnimCounter:
02:00002E62 1014            	  6469:     move.b  ($0000,A4),D0
02:00002E64 41EC03D0        	  6470:     lea     ($03D0,A4),A0
02:00002E68 11802000        	  6471:     move.b  D0,(A0,D2.W)
02:00002E6C 41EC03E4        	  6472:     lea     ($03E4,A4),A0
02:00002E70 10302000        	  6473:     move.b  (A0,D2.W),D0
02:00002E74 0A000001        	  6474:     eori.b #$01,D0
02:00002E78 41EC03E4        	  6475:     lea     ($03E4,A4),A0
02:00002E7C 11802000        	  6476:     move.b  D0,(A0,D2.W)
02:00002E80 4E75            	  6477:     rts
                            	  6478: 
                            	  6479:     even
                            	  6480: AnimateLinkObjState:
                            	  6481:     ; If major state = $10
                            	  6482:     ;   if minor state = 0, make it 1
                            	  6483:     ;   else OR state with $30
                            	  6484:     ;   go set movement frame to 1
                            	  6485:     ;
02:00002E82 102C00AC        	  6486:     move.b  ($00AC,A4),D0
02:00002E86 02000030        	  6487:     andi.b #$30,D0
02:00002E8A 0C000010        	  6488:     cmpi.b  #$10,D0
02:00002E8E 660C            	  6489:     bne  _L_z07_AnimateLinkObjState_CheckState20
02:00002E90 102C00AC        	  6490:     move.b  ($00AC,A4),D0
02:00002E94 0200000F        	  6491:     andi.b #$0F,D0
02:00002E98 661A            	  6492:     bne  _L_z07_AnimateLinkObjState_CombineStateWith30
02:00002E9A 6710            	  6493:     beq  _L_z07_AnimateLinkObjState_IncState
                            	  6494:     even
                            	  6495: _L_z07_AnimateLinkObjState_CheckState20:
                            	  6496:     ; If major state = $20
                            	  6497:     ;   if minor state = 0, make it 1
                            	  6498:     ;   else OR state with $30
                            	  6499:     ;   go set movement frame to 1
                            	  6500:     ;
02:00002E9C 0C000020        	  6501:     cmpi.b  #$20,D0
02:00002EA0 6626            	  6502:     bne  _L_z07_AnimateLinkObjState_CheckState30
02:00002EA2 102C00AC        	  6503:     move.b  ($00AC,A4),D0
02:00002EA6 0200000F        	  6504:     andi.b #$0F,D0
02:00002EAA 6608            	  6505:     bne  _L_z07_AnimateLinkObjState_CombineStateWith30
                            	  6506:     even
                            	  6507: _L_z07_AnimateLinkObjState_IncState:
02:00002EAC 522C00AC        	  6508:     addq.b  #1,($00AC,A4)
02:00002EB0 4EF82EC0        	  6509:     jmp     _L_z07_AnimateLinkObjState_SetMovementFrame1
                            	  6510: 
                            	  6511:     even
                            	  6512: _L_z07_AnimateLinkObjState_CombineStateWith30:
02:00002EB4 102C00AC        	  6513:     move.b  ($00AC,A4),D0
02:00002EB8 00000030        	  6514:     ori.b #$30,D0
02:00002EBC 194000AC        	  6515:     move.b  D0,($00AC,A4)
                            	  6516:     even
                            	  6517: _L_z07_AnimateLinkObjState_SetMovementFrame1:
                            	  6518:     ; To animate the state, the animation counter had to have
                            	  6519:     ; reached 0. Right after this routine, the counter will be
                            	  6520:     ; rolled over, and the movement frame will be switched.
                            	  6521:     ;
                            	  6522:     ; So, set movement frame to 1 (legs together) at the end of
                            	  6523:     ; the animation here, in order to immediately change it to
                            	  6524:     ; 0 (legs apart) after this.
                            	  6525:     ;
02:00002EC0 7001            	  6526:     moveq   #1,D0
02:00002EC2 194003E4        	  6527:     move.b  D0,($03E4,A4)
02:00002EC6 4E75            	  6528:     rts
                            	  6529: 
                            	  6530:     even
                            	  6531: _L_z07_AnimateLinkObjState_CheckState30:
                            	  6532:     ; If in state $30, then make Link idle, except for halting.
                            	  6533:     ;
02:00002EC8 0C000030        	  6534:     cmpi.b  #$30,D0
02:00002ECC 660C            	  6535:     bne  _anon_z07_39
02:00002ECE 102C00AC        	  6536:     move.b  ($00AC,A4),D0
02:00002ED2 020000C0        	  6537:     andi.b #$C0,D0
02:00002ED6 194000AC        	  6538:     move.b  D0,($00AC,A4)
                            	  6539: _anon_z07_39:
02:00002EDA 4E75            	  6540:     rts
                            	  6541: 
                            	  6542: ; Unknown block
02:00002EDC FF              	  6543:     dc.b    $FF, $FF, $FF, $FF, $FF, $FF, $FF, $FF
02:00002EDD FF
02:00002EDE FF
02:00002EDF FF
02:00002EE0 FF
02:00002EE1 FF
02:00002EE2 FF
02:00002EE3 FF
02:00002EE4 FF              	  6544:     dc.b    $FF, $FF, $FF
02:00002EE5 FF
02:00002EE6 FF
                            	  6545: 
                            	  6546:     even
                            	  6547: ObjectTypeToAttributes:
02:00002EE8 FF              	  6548:     dc.b    $FF, $00, $00, $00, $00, $00, $00, $05
02:00002EE9 00
02:00002EEA 00
02:00002EEB 00
02:00002EEC 00
02:00002EED 00
02:00002EEE 00
02:00002EEF 05
02:00002EF0 05              	  6549:     dc.b    $05, $05, $05, $81, $81, $81, $81, $01
02:00002EF1 05
02:00002EF2 05
02:00002EF3 81
02:00002EF4 81
02:00002EF5 81
02:00002EF6 81
02:00002EF7 01
02:00002EF8 01              	  6550:     dc.b    $01, $81, $01, $01, $43, $43, $81, $81
02:00002EF9 81
02:00002EFA 01
02:00002EFB 01
02:00002EFC 43
02:00002EFD 43
02:00002EFE 81
02:00002EFF 81
02:00002F00 81              	  6551:     dc.b    $81, $81, $01, $81, $81, $81, $01, $81
02:00002F01 81
02:00002F02 01
02:00002F03 81
02:00002F04 81
02:00002F05 81
02:00002F06 01
02:00002F07 81
02:00002F08 81              	  6552:     dc.b    $81, $81, $81, $81, $81, $C3, $C3, $89
02:00002F09 81
02:00002F0A 81
02:00002F0B 81
02:00002F0C 81
02:00002F0D C3
02:00002F0E C3
02:00002F0F 89
02:00002F10 89              	  6553:     dc.b    $89, $81, $81, $89, $89, $89, $89, $83
02:00002F11 81
02:00002F12 81
02:00002F13 89
02:00002F14 89
02:00002F15 89
02:00002F16 89
02:00002F17 83
02:00002F18 81              	  6554:     dc.b    $81, $89, $89, $C9, $C9, $81, $81, $81
02:00002F19 89
02:00002F1A 89
02:00002F1B C9
02:00002F1C C9
02:00002F1D 81
02:00002F1E 81
02:00002F1F 81
02:00002F20 A9              	  6555:     dc.b    $A9, $A9, $41, $41, $89, $89, $81, $81
02:00002F21 A9
02:00002F22 41
02:00002F23 41
02:00002F24 89
02:00002F25 89
02:00002F26 81
02:00002F27 81
02:00002F28 81              	  6556:     dc.b    $81, $C1, $C1, $C1, $C1, $C1, $81, $81
02:00002F29 C1
02:00002F2A C1
02:00002F2B C1
02:00002F2C C1
02:00002F2D C1
02:00002F2E 81
02:00002F2F 81
02:00002F30 81              	  6557:     dc.b    $81, $A1, $A1, $81, $81, $81, $81, $81
02:00002F31 A1
02:00002F32 A1
02:00002F33 81
02:00002F34 81
02:00002F35 81
02:00002F36 81
02:00002F37 81
02:00002F38 81              	  6558:     dc.b    $81, $81, $81, $E3, $E3, $E3, $E3, $E3
02:00002F39 81
02:00002F3A 81
02:00002F3B E3
02:00002F3C E3
02:00002F3D E3
02:00002F3E E3
02:00002F3F E3
02:00002F40 E1              	  6559:     dc.b    $E1, $E1, $E1, $E1, $E1, $81, $81
02:00002F41 E1
02:00002F42 E1
02:00002F43 E1
02:00002F44 E1
02:00002F45 81
02:00002F46 81
                            	  6560: 
                            	  6561:     even
                            	  6562: ObjectTypeToHpPairs:
02:00002F48 06              	  6563:     dc.b    $06, $43, $25, $31, $12, $24, $81, $14
02:00002F49 43
02:00002F4A 25
02:00002F4B 31
02:00002F4C 12
02:00002F4D 24
02:00002F4E 81
02:00002F4F 14
02:00002F50 22              	  6564:     dc.b    $22, $42, $00, $A9, $8F, $20, $00, $3F
02:00002F51 42
02:00002F52 00
02:00002F53 A9
02:00002F54 8F
02:00002F55 20
02:00002F56 00
02:00002F57 3F
02:00002F58 F9              	  6565:     dc.b    $F9, $FA, $46, $62, $11, $2F, $FF, $FF
02:00002F59 FA
02:00002F5A 46
02:00002F5B 62
02:00002F5C 11
02:00002F5D 2F
02:00002F5E FF
02:00002F5F FF
02:00002F60 7F              	  6566:     dc.b    $7F, $F6, $2F, $FF, $FF, $22, $46, $F1
02:00002F61 F6
02:00002F62 2F
02:00002F63 FF
02:00002F64 FF
02:00002F65 22
02:00002F66 46
02:00002F67 F1
02:00002F68 F2              	  6567:     dc.b    $F2, $AA, $AA, $FB, $BF, $F0
02:00002F69 AA
02:00002F6A AA
02:00002F6B FB
02:00002F6C BF
02:00002F6D F0
                            	  6568: 
                            	  6569: ; Params:
                            	  6570: ; A: object type
                            	  6571: ;
                            	  6572:     even
                            	  6573: UpdateObject:
02:00002F6E 1B00            	  6574:     move.b  D0,-(A5)  ; PHA
02:00002F70 7004            	  6575:     moveq   #4,D0
02:00002F72 61000758        	  6576:     bsr     SwitchBank
02:00002F76 101D            	  6577:     move.b  (A5)+,D0  ; PLA
                            	  6578:     ; If the object was initialized, go update it.
                            	  6579:     ;
02:00002F78 41EC0492        	  6580:     lea     ($0492,A4),A0
02:00002F7C 16302000        	  6581:     move.b  (A0,D2.W),D3
02:00002F80 1943000F        	  6582:     move.b  D3,($000F,A4)
02:00002F84 672E            	  6583:     beq  _L_z07_UpdateObject_Update
                            	  6584:     ; If the object type starts with a spawning cloud
                            	  6585:     ; (type < $53, except armos and flying ghini),
                            	  6586:     ; then set object timer to 7.
                            	  6587:     ;
                            	  6588:     ; But this will be overridden during initialization.
                            	  6589:     ;
02:00002F86 41EC034F        	  6590:     lea     ($034F,A4),A0
02:00002F8A 10302000        	  6591:     move.b  (A0,D2.W),D0
02:00002F8E 0C00001E        	  6592:     cmpi.b  #$1E,D0
02:00002F92 6712            	  6593:     beq  _L_z07_UpdateObject_Init
02:00002F94 0C000022        	  6594:     cmpi.b  #$22,D0
02:00002F98 670C            	  6595:     beq  _L_z07_UpdateObject_Init
02:00002F9A 0C000053        	  6596:     cmpi.b  #$53,D0
02:00002F9E 6406            	  6597:     bcc  _L_z07_UpdateObject_Init
02:00002FA0 7007            	  6598:     moveq   #7,D0
02:00002FA2 19802028        	  6599:     move.b  D0,($28,A4,D2.W)
                            	  6600:     even
                            	  6601: _L_z07_UpdateObject_Init:
                            	  6602:     ; Flag the object initialized, and go initialize it.
                            	  6603:     ;
02:00002FA6 7000            	  6604:     moveq   #0,D0
02:00002FA8 41EC0492        	  6605:     lea     ($0492,A4),A0
02:00002FAC 11802000        	  6606:     move.b  D0,(A0,D2.W)
02:00002FB0 4EF83218        	  6607:     jmp     InitObject
                            	  6608: 
                            	  6609:     even
                            	  6610: _L_z07_UpdateObject_Update:
                            	  6611:     ; The object was already initialized.
                            	  6612:     ;
                            	  6613:     ; If meta-state <> 0, go update the meta-object
                            	  6614:     ; (spawning cloud or dying sparkle).
                            	  6615:     ;
02:00002FB4 41EC0405        	  6616:     lea     ($0405,A4),A0
02:00002FB8 16302000        	  6617:     move.b  (A0,D2.W),D3
02:00002FBC 6704            	  6618:     beq  _anon_z07_40
02:00002FBE 4EF8317E        	  6619:     jmp     UpdateMetaObject
                            	  6620: 
                            	  6621: _anon_z07_40:
                            	  6622:     ; This is a normal update.
                            	  6623:     ;
                            	  6624:     ; If object type >= $6A, then switch to bank 1,
                            	  6625:     ; and go update a cave.
                            	  6626:     ;
02:00002FC2 0C00006A        	  6627:     cmpi.b  #$6A,D0
02:00002FC6 650A            	  6628:     bcs  _L_z07_UpdateObject_NormalObject
02:00002FC8 7001            	  6629:     moveq   #1,D0
02:00002FCA 61000700        	  6630:     bsr     SwitchBank
02:00002FCE 4EF83722        	  6631:     jmp     UpdateCavePerson
                            	  6632: 
                            	  6633:     even
                            	  6634: _L_z07_UpdateObject_NormalObject:
                            	  6635:     ; Else call the object update routine.
                            	  6636:     ;
02:00002FD2 6100D688        	  6637:     bsr     _m68k_tablejump  ; M68K-native table dispatch (replaces JSR TableJump)
                            	  6638:     even
                            	  6639: UpdateObject_JumpTable:
02:00002FD6 00003194        	  6640:     dc.l    DoNothing   ; NES addr vector (32-bit for M68K)
02:00002FDA 00003824        	  6641:     dc.l    UpdateLynel   ; NES addr vector (32-bit for M68K)
02:00002FDE 00003824        	  6642:     dc.l    UpdateLynel   ; NES addr vector (32-bit for M68K)
02:00002FE2 00003828        	  6643:     dc.l    UpdateMoblin   ; NES addr vector (32-bit for M68K)
02:00002FE6 00003828        	  6644:     dc.l    UpdateMoblin   ; NES addr vector (32-bit for M68K)
02:00002FEA 00003818        	  6645:     dc.l    UpdateGoriya   ; NES addr vector (32-bit for M68K)
02:00002FEE 00003818        	  6646:     dc.l    UpdateGoriya   ; NES addr vector (32-bit for M68K)
02:00002FF2 00003830        	  6647:     dc.l    UpdateOctorock   ; NES addr vector (32-bit for M68K)
02:00002FF6 00003830        	  6648:     dc.l    UpdateOctorock   ; NES addr vector (32-bit for M68K)
02:00002FFA 00003830        	  6649:     dc.l    UpdateOctorock   ; NES addr vector (32-bit for M68K)
02:00002FFE 00003830        	  6650:     dc.l    UpdateOctorock   ; NES addr vector (32-bit for M68K)
02:00003002 000037FE        	  6651:     dc.l    UpdateDarknut   ; NES addr vector (32-bit for M68K)
02:00003006 000037FE        	  6652:     dc.l    UpdateDarknut   ; NES addr vector (32-bit for M68K)
02:0000300A 0000384C        	  6653:     dc.l    UpdateTektiteOrBoulder   ; NES addr vector (32-bit for M68K)
02:0000300E 0000384C        	  6654:     dc.l    UpdateTektiteOrBoulder   ; NES addr vector (32-bit for M68K)
02:00003012 000037F4        	  6655:     dc.l    UpdateBlueLeever   ; NES addr vector (32-bit for M68K)
02:00003016 0000383C        	  6656:     dc.l    UpdateRedLeever   ; NES addr vector (32-bit for M68K)
02:0000301A 00003858        	  6657:     dc.l    UpdateZora   ; NES addr vector (32-bit for M68K)
02:0000301E 00003850        	  6658:     dc.l    UpdateVire   ; NES addr vector (32-bit for M68K)
02:00003022 00003856        	  6659:     dc.l    UpdateZol   ; NES addr vector (32-bit for M68K)
02:00003026 0000380C        	  6660:     dc.l    UpdateGel   ; NES addr vector (32-bit for M68K)
02:0000302A 0000380C        	  6661:     dc.l    UpdateGel   ; NES addr vector (32-bit for M68K)
02:0000302E 00003838        	  6662:     dc.l    UpdatePolsVoice   ; NES addr vector (32-bit for M68K)
02:00003032 00003822        	  6663:     dc.l    UpdateLikeLike   ; NES addr vector (32-bit for M68K)
02:00003036 00003800        	  6664:     dc.l    UpdateDigdogger   ; NES addr vector (32-bit for M68K)
02:0000303A 00003194        	  6665:     dc.l    DoNothing   ; NES addr vector (32-bit for M68K)
02:0000303E 00003836        	  6666:     dc.l    UpdatePeahat   ; NES addr vector (32-bit for M68K)
02:00003042 0000381E        	  6667:     dc.l    UpdateKeese   ; NES addr vector (32-bit for M68K)
02:00003046 0000381E        	  6668:     dc.l    UpdateKeese   ; NES addr vector (32-bit for M68K)
02:0000304A 0000381E        	  6669:     dc.l    UpdateKeese   ; NES addr vector (32-bit for M68K)
02:0000304E 000037F0        	  6670:     dc.l    UpdateArmos   ; NES addr vector (32-bit for M68K)
02:00003052 000037F8        	  6671:     dc.l    UpdateBoulderSet   ; NES addr vector (32-bit for M68K)
02:00003056 0000384C        	  6672:     dc.l    UpdateTektiteOrBoulder   ; NES addr vector (32-bit for M68K)
02:0000305A 0000380E        	  6673:     dc.l    UpdateGhini   ; NES addr vector (32-bit for M68K)
02:0000305E 00003808        	  6674:     dc.l    UpdateFlyingGhini   ; NES addr vector (32-bit for M68K)
02:00003062 000037F6        	  6675:     dc.l    UpdateBlueWizzrobe   ; NES addr vector (32-bit for M68K)
02:00003066 0000383E        	  6676:     dc.l    UpdateRedWizzrobe   ; NES addr vector (32-bit for M68K)
02:0000306A 00003834        	  6677:     dc.l    UpdatePatraChild   ; NES addr vector (32-bit for M68K)
02:0000306E 00003834        	  6678:     dc.l    UpdatePatraChild   ; NES addr vector (32-bit for M68K)
02:00003072 00003852        	  6679:     dc.l    UpdateWallmaster   ; NES addr vector (32-bit for M68K)
02:00003076 00003844        	  6680:     dc.l    UpdateRope   ; NES addr vector (32-bit for M68K)
02:0000307A 00003194        	  6681:     dc.l    DoNothing   ; NES addr vector (32-bit for M68K)
02:0000307E 00003846        	  6682:     dc.l    UpdateStalfos   ; NES addr vector (32-bit for M68K)
02:00003082 000037FA        	  6683:     dc.l    UpdateBubble   ; NES addr vector (32-bit for M68K)
02:00003086 000037FA        	  6684:     dc.l    UpdateBubble   ; NES addr vector (32-bit for M68K)
02:0000308A 000037FA        	  6685:     dc.l    UpdateBubble   ; NES addr vector (32-bit for M68K)
02:0000308E 000034C6        	  6686:     dc.l    UpdateWhirlwind   ; NES addr vector (32-bit for M68K)
02:00003092 0000383A        	  6687:     dc.l    UpdatePondFairy   ; NES addr vector (32-bit for M68K)
02:00003096 00003810        	  6688:     dc.l    UpdateGibdo   ; NES addr vector (32-bit for M68K)
02:0000309A 00003804        	  6689:     dc.l    UpdateDodongo   ; NES addr vector (32-bit for M68K)
02:0000309E 00003804        	  6690:     dc.l    UpdateDodongo   ; NES addr vector (32-bit for M68K)
02:000030A2 00003816        	  6691:     dc.l    UpdateGohma   ; NES addr vector (32-bit for M68K)
02:000030A6 00003816        	  6692:     dc.l    UpdateGohma   ; NES addr vector (32-bit for M68K)
02:000030AA 000034DA        	  6693:     dc.l    UpdateRupeeStash   ; NES addr vector (32-bit for M68K)
02:000030AE 0000352A        	  6694:     dc.l    UpdateGrumble   ; NES addr vector (32-bit for M68K)
02:000030B2 00003854        	  6695:     dc.l    UpdateZelda   ; NES addr vector (32-bit for M68K)
02:000030B6 00003800        	  6696:     dc.l    UpdateDigdogger   ; NES addr vector (32-bit for M68K)
02:000030BA 00003800        	  6697:     dc.l    UpdateDigdogger   ; NES addr vector (32-bit for M68K)
02:000030BE 00003820        	  6698:     dc.l    UpdateLamnola   ; NES addr vector (32-bit for M68K)
02:000030C2 00003820        	  6699:     dc.l    UpdateLamnola   ; NES addr vector (32-bit for M68K)
02:000030C6 00003826        	  6700:     dc.l    UpdateManhandla   ; NES addr vector (32-bit for M68K)
02:000030CA 000037EE        	  6701:     dc.l    UpdateAquamentus   ; NES addr vector (32-bit for M68K)
02:000030CE 0000380A        	  6702:     dc.l    UpdateGanon   ; NES addr vector (32-bit for M68K)
02:000030D2 0000381A        	  6703:     dc.l    UpdateGuardFire   ; NES addr vector (32-bit for M68K)
02:000030D6 00003848        	  6704:     dc.l    UpdateStandingFire   ; NES addr vector (32-bit for M68K)
02:000030DA 0000382A        	  6705:     dc.l    UpdateMoldorm   ; NES addr vector (32-bit for M68K)
02:000030DE 00003812        	  6706:     dc.l    UpdateGleeok   ; NES addr vector (32-bit for M68K)
02:000030E2 00003812        	  6707:     dc.l    UpdateGleeok   ; NES addr vector (32-bit for M68K)
02:000030E6 00003812        	  6708:     dc.l    UpdateGleeok   ; NES addr vector (32-bit for M68K)
02:000030EA 00003812        	  6709:     dc.l    UpdateGleeok   ; NES addr vector (32-bit for M68K)
02:000030EE 00003814        	  6710:     dc.l    UpdateGleeokHead   ; NES addr vector (32-bit for M68K)
02:000030F2 00003832        	  6711:     dc.l    UpdatePatra   ; NES addr vector (32-bit for M68K)
02:000030F6 00003832        	  6712:     dc.l    UpdatePatra   ; NES addr vector (32-bit for M68K)
02:000030FA 000034EE        	  6713:     dc.l    UpdateTrap   ; NES addr vector (32-bit for M68K)
02:000030FE 000034EE        	  6714:     dc.l    UpdateTrap   ; NES addr vector (32-bit for M68K)
02:00003102 00003516        	  6715:     dc.l    UpdateUnderworldPerson   ; NES addr vector (32-bit for M68K)
02:00003106 00003516        	  6716:     dc.l    UpdateUnderworldPerson   ; NES addr vector (32-bit for M68K)
02:0000310A 00003516        	  6717:     dc.l    UpdateUnderworldPerson   ; NES addr vector (32-bit for M68K)
02:0000310E 00003516        	  6718:     dc.l    UpdateUnderworldPerson   ; NES addr vector (32-bit for M68K)
02:00003112 00003516        	  6719:     dc.l    UpdateUnderworldPerson   ; NES addr vector (32-bit for M68K)
02:00003116 00003516        	  6720:     dc.l    UpdateUnderworldPerson   ; NES addr vector (32-bit for M68K)
02:0000311A 00003520        	  6721:     dc.l    UpdateUnderworldPersonLifeOrMoney   ; NES addr vector (32-bit for M68K)
02:0000311E 00003516        	  6722:     dc.l    UpdateUnderworldPerson   ; NES addr vector (32-bit for M68K)
02:00003122 0000382E        	  6723:     dc.l    UpdateMonsterShot   ; NES addr vector (32-bit for M68K)
02:00003126 0000382E        	  6724:     dc.l    UpdateMonsterShot   ; NES addr vector (32-bit for M68K)
02:0000312A 00003806        	  6725:     dc.l    UpdateFireball   ; NES addr vector (32-bit for M68K)
02:0000312E 00003806        	  6726:     dc.l    UpdateFireball   ; NES addr vector (32-bit for M68K)
02:00003132 0000382E        	  6727:     dc.l    UpdateMonsterShot   ; NES addr vector (32-bit for M68K)
02:00003136 0000382E        	  6728:     dc.l    UpdateMonsterShot   ; NES addr vector (32-bit for M68K)
02:0000313A 0000382E        	  6729:     dc.l    UpdateMonsterShot   ; NES addr vector (32-bit for M68K)
02:0000313E 0000382E        	  6730:     dc.l    UpdateMonsterShot   ; NES addr vector (32-bit for M68K)
02:00003142 0000382C        	  6731:     dc.l    UpdateMonsterArrow   ; NES addr vector (32-bit for M68K)
02:00003146 000023FE        	  6732:     dc.l    UpdateArrowOrBoomerang   ; NES addr vector (32-bit for M68K)
02:0000314A 00003550        	  6733:     dc.l    UpdateDeadDummy   ; NES addr vector (32-bit for M68K)
02:0000314E 000035C4        	  6734:     dc.l    UpdateFluteSecret   ; NES addr vector (32-bit for M68K)
02:00003152 00003194        	  6735:     dc.l    DoNothing   ; NES addr vector (32-bit for M68K)
02:00003156 0000381C        	  6736:     dc.l    UpdateItem   ; NES addr vector (32-bit for M68K)
02:0000315A 00003802        	  6737:     dc.l    UpdateDock   ; NES addr vector (32-bit for M68K)
02:0000315E 00003840        	  6738:     dc.l    UpdateRockOrGravestone   ; NES addr vector (32-bit for M68K)
02:00003162 00003842        	  6739:     dc.l    UpdateRockWall   ; NES addr vector (32-bit for M68K)
02:00003166 0000384E        	  6740:     dc.l    UpdateTree   ; NES addr vector (32-bit for M68K)
02:0000316A 00003840        	  6741:     dc.l    UpdateRockOrGravestone   ; NES addr vector (32-bit for M68K)
02:0000316E 00003840        	  6742:     dc.l    UpdateRockOrGravestone   ; NES addr vector (32-bit for M68K)
02:00003172 00003842        	  6743:     dc.l    UpdateRockWall   ; NES addr vector (32-bit for M68K)
02:00003176 000037F2        	  6744:     dc.l    UpdateBlock   ; NES addr vector (32-bit for M68K)
02:0000317A 00003194        	  6745:     dc.l    DoNothing   ; NES addr vector (32-bit for M68K)
                            	  6746: 
                            	  6747:     even
                            	  6748: UpdateMetaObject:
02:0000317E 6100FBEE        	  6749:     bsr     AnimateAndDrawMetaObject
                            	  6750:     ; Go handle end metastates (4 and $14) specially.
                            	  6751:     ;
02:00003182 41EC0405        	  6752:     lea     ($0405,A4),A0
02:00003186 10302000        	  6753:     move.b  (A0,D2.W),D0
02:0000318A 0200000F        	  6754:     andi.b #$0F,D0
02:0000318E 0C000004        	  6755:     cmpi.b  #$04,D0
02:00003192 6402            	  6756:     bcc  UpdateMetaObjectEnd
                            	  6757:     even
                            	  6758: DoNothing:
02:00003194 4E75            	  6759:     rts
                            	  6760: 
                            	  6761:     even
                            	  6762: UpdateMetaObjectEnd:
                            	  6763:     ; Metastate = 4 or $14.
                            	  6764:     ;
                            	  6765:     ; If it's 4, go reset the metastate. The object is ready to update
                            	  6766:     ; on its own.
                            	  6767:     ;
02:00003196 41EC0405        	  6768:     lea     ($0405,A4),A0
02:0000319A 10302000        	  6769:     move.b  (A0,D2.W),D0
02:0000319E 02000010        	  6770:     andi.b #$10,D0
02:000031A2 6770            	  6771:     beq  _L_z07_UpdateMetaObjectEnd_Reset
                            	  6772:     ; Metastate = $14
                            	  6773:     ;
                            	  6774:     ; Copy the object type, so that it can be used in setting up
                            	  6775:     ; a dropped item.
                            	  6776:     ;
02:000031A4 41EC034F        	  6777:     lea     ($034F,A4),A0
02:000031A8 10302000        	  6778:     move.b  (A0,D2.W),D0
02:000031AC 41EC0412        	  6779:     lea     ($0412,A4),A0
02:000031B0 11802000        	  6780:     move.b  D0,(A0,D2.W)
                            	  6781:     ; Certain objects don't advance the world kill cycle.
                            	  6782:     ;
02:000031B4 0C00005D        	  6783:     cmpi.b  #$5D,D0
02:000031B8 6738            	  6784:     beq  _L_z07_UpdateMetaObjectEnd_DropItem
02:000031BA 0C000014        	  6785:     cmpi.b  #$14,D0
02:000031BE 6732            	  6786:     beq  _L_z07_UpdateMetaObjectEnd_DropItem
02:000031C0 0C00001C        	  6787:     cmpi.b  #$1C,D0
02:000031C4 672C            	  6788:     beq  _L_z07_UpdateMetaObjectEnd_DropItem
                            	  6789:     ; Advance the world kill cycle (0 to 9).
                            	  6790:     ;
02:000031C6 102C052A        	  6791:     move.b  ($052A,A4),D0
02:000031CA 023C00EE        	  6792:     andi.b  #$EE,CCR  ; CLC: clear C+X
02:000031CE 123C0001        	  6793:     move.b  #$01,D1
02:000031D2 D101            	  6794:     addx.b  D1,D0   ; ADC #$01 (X flag = 6502 C)
02:000031D4 0C00000A        	  6795:     cmpi.b  #$0A,D0
02:000031D8 6602            	  6796:     bne  _anon_z07_41
02:000031DA 7000            	  6797:     moveq   #0,D0
                            	  6798: _anon_z07_41:
02:000031DC 1940052A        	  6799:     move.b  D0,($052A,A4)
                            	  6800:     ; If the object is not a zora, then increase room kill count.
                            	  6801:     ;
02:000031E0 41EC034F        	  6802:     lea     ($034F,A4),A0
02:000031E4 10302000        	  6803:     move.b  (A0,D2.W),D0
02:000031E8 0C000011        	  6804:     cmpi.b  #$11,D0
02:000031EC 6704            	  6805:     beq  _L_z07_UpdateMetaObjectEnd_DropItem
02:000031EE 522C034F        	  6806:     addq.b  #1,($034F,A4)
                            	  6807:     even
                            	  6808: _L_z07_UpdateMetaObjectEnd_DropItem:
                            	  6809:     ; Turn this object into a dropped item.
                            	  6810:     ;
02:000031F2 7060            	  6811:     moveq   #96,D0
02:000031F4 41EC034F        	  6812:     lea     ($034F,A4),A0
02:000031F8 11802000        	  6813:     move.b  D0,(A0,D2.W)
02:000031FC 41EC0492        	  6814:     lea     ($0492,A4),A0
02:00003200 11802000        	  6815:     move.b  D0,(A0,D2.W)
02:00003204 103C0081        	  6816:     move.b  #$81,D0
02:00003208 41EC04BF        	  6817:     lea     ($04BF,A4),A0
02:0000320C 11802000        	  6818:     move.b  D0,(A0,D2.W)
02:00003210 610005DA        	  6819:     bsr     SetUpDroppedItem
                            	  6820:     even
                            	  6821: _L_z07_UpdateMetaObjectEnd_Reset:
02:00003214 4EF835A4        	  6822:     jmp     ResetObjMetastate
                            	  6823: 
                            	  6824:     even
                            	  6825: InitObject:
02:00003218 142C0340        	  6826:     move.b  ($0340,A4),D2
                            	  6827:     ; We want to handle "enemies from the edges of the screen".
                            	  6828:     ;
                            	  6829:     ; So, if not in UW, or "enemies from edges" attribute is clear,
                            	  6830:     ; or the object is (zora, fire, armos, whirlwind), or any object
                            	  6831:     ; that does not spawn with a cloud (type >= $53);
                            	  6832:     ; 
                            	  6833:     ; then go initialize the object.
                            	  6834:     ;
02:0000321C 102C0010        	  6835:     move.b  ($0010,A4),D0
02:00003220 660000AE        	  6836:     bne  _L_z07_InitObject_NormalSpawn
02:00003224 102C04CD        	  6837:     move.b  ($04CD,A4),D0
02:00003228 02000008        	  6838:     andi.b #$08,D0
02:0000322C 670000A2        	  6839:     beq  _L_z07_InitObject_NormalSpawn
02:00003230 41EC034F        	  6840:     lea     ($034F,A4),A0
02:00003234 10302000        	  6841:     move.b  (A0,D2.W),D0
02:00003238 0C000011        	  6842:     cmpi.b  #$11,D0
02:0000323C 67000092        	  6843:     beq  _L_z07_InitObject_NormalSpawn
02:00003240 0C000040        	  6844:     cmpi.b  #$40,D0
02:00003244 6700008A        	  6845:     beq  _L_z07_InitObject_NormalSpawn
02:00003248 0C00001E        	  6846:     cmpi.b  #$1E,D0
02:0000324C 67000082        	  6847:     beq  _L_z07_InitObject_NormalSpawn
02:00003250 0C00002E        	  6848:     cmpi.b  #$2E,D0
02:00003254 677A            	  6849:     beq  _L_z07_InitObject_NormalSpawn
02:00003256 0C000053        	  6850:     cmpi.b  #$53,D0
02:0000325A 6474            	  6851:     bcc  _L_z07_InitObject_NormalSpawn
                            	  6852:     even
                            	  6853: _L_z07_InitObject_UninitMonsterFromEdge:
                            	  6854:     ; If the "monsters from edges" long timer expired, then
                            	  6855:     ; go bring the monster in.
                            	  6856:     ; Else revert the flag, so this monster becomes uninitialized.
                            	  6857:     ;
02:0000325C 102C004B        	  6858:     move.b  ($004B,A4),D0
02:00003260 670A            	  6859:     beq  _L_z07_InitObject_InitMonsterFromEdge
02:00003262 41EC0492        	  6860:     lea     ($0492,A4),A0
02:00003266 11802000        	  6861:     move.b  D0,(A0,D2.W)
02:0000326A 4E75            	  6862:     rts
                            	  6863: 
                            	  6864:     even
                            	  6865: _L_z07_InitObject_InitMonsterFromEdge:
02:0000326C 142C0340        	  6866:     move.b  ($0340,A4),D2
02:00003270 7005            	  6867:     moveq   #5,D0
02:00003272 61000458        	  6868:     bsr     SwitchBank
02:00003276 61000604        	  6869:     bsr     FindNextEdgeSpawnCell
                            	  6870:     ; Extract and set the monster's location.
                            	  6871:     ;
02:0000327A 102C0525        	  6872:     move.b  ($0525,A4),D0
                            	  6873:     ; Square column in low nibble. Multiply by 16 to get X.
                            	  6874:     ;
02:0000327E 1B00            	  6875:     move.b  D0,-(A5)  ; PHA
02:00003280 E308            	  6876:     lsl.b  #1,D0   ; ASL A
02:00003282 E308            	  6877:     lsl.b  #1,D0   ; ASL A
02:00003284 E308            	  6878:     lsl.b  #1,D0   ; ASL A
02:00003286 E308            	  6879:     lsl.b  #1,D0   ; ASL A
02:00003288 19802070        	  6880:     move.b  D0,($70,A4,D2.W)
                            	  6881:     ; Square row in high nibble. Subtract 3, for the usual offset, to get Y.
                            	  6882:     ;
02:0000328C 101D            	  6883:     move.b  (A5)+,D0  ; PLA
02:0000328E 020000F0        	  6884:     andi.b #$F0,D0
02:00003292 003C0011        	  6885:     ori.b   #$11,CCR  ; SEC: set C+X
02:00003296 123C0003        	  6886:     move.b  #$03,D1
02:0000329A 9101            	  6887:     subx.b  D1,D0   ; SBC #$03
02:0000329C 41EC0084        	  6888:     lea     ($0084,A4),A0
02:000032A0 11802000        	  6889:     move.b  D0,(A0,D2.W)
                            	  6890:     ; Set the monsters-from-edges long timer to a random value
                            	  6891:     ; between 2 and 5. So, it will last 20 to 50 frames.
                            	  6892:     ;
02:000032A4 10342019        	  6893:     move.b  ($19,A4,D2.W),D0
02:000032A8 02000003        	  6894:     andi.b #$03,D0
02:000032AC 023C00EE        	  6895:     andi.b  #$EE,CCR  ; CLC: clear C+X
02:000032B0 123C0002        	  6896:     move.b  #$02,D1
02:000032B4 D101            	  6897:     addx.b  D1,D0   ; ADC #$02 (X flag = 6502 C)
02:000032B6 1940004B        	  6898:     move.b  D0,($004B,A4)
                            	  6899:     ; If the distance to Link is too close to Link, then
                            	  6900:     ; go flag the monster uninitialized again, so we can
                            	  6901:     ; try to spawn it again next time.
                            	  6902:     ;
02:000032BA 7005            	  6903:     moveq   #5,D0
02:000032BC 6100040E        	  6904:     bsr     SwitchBank
02:000032C0 610005E6        	  6905:     bsr     IsDistanceSafeToSpawn
02:000032C4 6596            	  6906:     bcs  _L_z07_InitObject_UninitMonsterFromEdge
                            	  6907:     ; OK to spawn.
                            	  6908:     ; In this situation, monsters don't spawn from a cloud.
                            	  6909:     ;
02:000032C6 7000            	  6910:     moveq   #0,D0
02:000032C8 41EC0405        	  6911:     lea     ($0405,A4),A0
02:000032CC 11802000        	  6912:     move.b  D0,(A0,D2.W)
                            	  6913:     even
                            	  6914: _L_z07_InitObject_NormalSpawn:
02:000032D0 7004            	  6915:     moveq   #4,D0
02:000032D2 610003F8        	  6916:     bsr     SwitchBank
                            	  6917:     ; For monsters that spawn in a cloud, set their start time to
                            	  6918:     ; the same value as the object slot; so that they all start
                            	  6919:     ; moving at different times.
                            	  6920:     ;
02:000032D6 142C0340        	  6921:     move.b  ($0340,A4),D2
02:000032DA 41EC034F        	  6922:     lea     ($034F,A4),A0
02:000032DE 16302000        	  6923:     move.b  (A0,D2.W),D3
02:000032E2 0C03001E        	  6924:     cmpi.b  #$1E,D3
02:000032E6 6712            	  6925:     beq  _L_z07_InitObject_FetchAttrs
02:000032E8 0C030022        	  6926:     cmpi.b  #$22,D3
02:000032EC 670C            	  6927:     beq  _L_z07_InitObject_FetchAttrs
02:000032EE 0C030053        	  6928:     cmpi.b  #$53,D3
02:000032F2 6406            	  6929:     bcc  _L_z07_InitObject_FetchAttrs
02:000032F4 1002            	  6930:     move.b  D2,D0
02:000032F6 19802028        	  6931:     move.b  D0,($28,A4,D2.W)
                            	  6932:     even
                            	  6933: _L_z07_InitObject_FetchAttrs:
                            	  6934:     ; Store the object attributes for fast access.
                            	  6935:     ;
02:000032FA 41F900002EE8    	  6936:     lea     (ObjectTypeToAttributes).l,A0
02:00003300 10303000        	  6937:     move.b  (A0,D3.W),D0
02:00003304 41EC04BF        	  6938:     lea     ($04BF,A4),A0
02:00003308 11802000        	  6939:     move.b  D0,(A0,D2.W)
02:0000330C 1003            	  6940:     move.b  D3,D0
02:0000330E 1880            	  6941:     move.b  D0,($0000,A4)
                            	  6942:     ; Hit points are packed two values to a byte.
                            	  6943:     ; Divide the object type in half in order to index
                            	  6944:     ; into the hit points table.
                            	  6945:     ;
02:00003310 E208            	  6946:     lsr.b  #1,D0   ; LSR A
02:00003312 1600            	  6947:     move.b  D0,D3
02:00003314 41F900002F48    	  6948:     lea     (ObjectTypeToHpPairs).l,A0
02:0000331A 10303000        	  6949:     move.b  (A0,D3.W),D0
02:0000331E 6100048C        	  6950:     bsr     ExtractHitPointValue
02:00003322 41EC0485        	  6951:     lea     ($0485,A4),A0
02:00003326 11802000        	  6952:     move.b  D0,(A0,D2.W)
                            	  6953:     ; If the object is a cave, go initialize it.
                            	  6954:     ;
02:0000332A 1014            	  6955:     move.b  ($0000,A4),D0
02:0000332C 0C00006A        	  6956:     cmpi.b  #$6A,D0
02:00003330 650A            	  6957:     bcs  _L_z07_InitObject_CheckTileObj
02:00003332 7001            	  6958:     moveq   #1,D0
02:00003334 61000396        	  6959:     bsr     SwitchBank
02:00003338 4EF83712        	  6960:     jmp     InitCave
                            	  6961: 
                            	  6962:     even
                            	  6963: _L_z07_InitObject_CheckTileObj:
                            	  6964:     ; If object is a cave or tile object (type >= $5F),
                            	  6965:     ; go assign object attribute $81, and get
                            	  6966:     ; it ready to behave autonomously and updating.
                            	  6967:     ;
02:0000333C 0C00005F        	  6968:     cmpi.b  #$5F,D0
02:00003340 6504            	  6969:     bcs  _anon_z07_42
02:00003342 4EF8358A        	  6970:     jmp     InitTileObjOrItem
                            	  6971: 
                            	  6972: _anon_z07_42:
                            	  6973:     ; Else run the object initialization routine.
                            	  6974:     ;
02:00003346 6100D314        	  6975:     bsr     _m68k_tablejump  ; M68K-native table dispatch (replaces JSR TableJump)
                            	  6976:     even
                            	  6977: InitObject_JumpTable:
02:0000334A 00003194        	  6978:     dc.l    DoNothing   ; NES addr vector (32-bit for M68K)
02:0000334E 000037E6        	  6979:     dc.l    InitWalker   ; NES addr vector (32-bit for M68K)
02:00003352 000037E6        	  6980:     dc.l    InitWalker   ; NES addr vector (32-bit for M68K)
02:00003356 000037E6        	  6981:     dc.l    InitWalker   ; NES addr vector (32-bit for M68K)
02:0000335A 000037E6        	  6982:     dc.l    InitWalker   ; NES addr vector (32-bit for M68K)
02:0000335E 000037E6        	  6983:     dc.l    InitWalker   ; NES addr vector (32-bit for M68K)
02:00003362 000037E6        	  6984:     dc.l    InitWalker   ; NES addr vector (32-bit for M68K)
02:00003366 000037E2        	  6985:     dc.l    InitSlowOctorockOrGhini   ; NES addr vector (32-bit for M68K)
02:0000336A 000037C2        	  6986:     dc.l    InitFastOctorock   ; NES addr vector (32-bit for M68K)
02:0000336E 000037E2        	  6987:     dc.l    InitSlowOctorockOrGhini   ; NES addr vector (32-bit for M68K)
02:00003372 000037C2        	  6988:     dc.l    InitFastOctorock   ; NES addr vector (32-bit for M68K)
02:00003376 000037BA        	  6989:     dc.l    InitDarknut   ; NES addr vector (32-bit for M68K)
02:0000337A 000037BA        	  6990:     dc.l    InitDarknut   ; NES addr vector (32-bit for M68K)
02:0000337E 000037E4        	  6991:     dc.l    InitTektite   ; NES addr vector (32-bit for M68K)
02:00003382 000037E4        	  6992:     dc.l    InitTektite   ; NES addr vector (32-bit for M68K)
02:00003386 000037D0        	  6993:     dc.l    InitLeever   ; NES addr vector (32-bit for M68K)
02:0000338A 000037D0        	  6994:     dc.l    InitLeever   ; NES addr vector (32-bit for M68K)
02:0000338E 0000359E        	  6995:     dc.l    ResetObjMetastateAndTimer   ; NES addr vector (32-bit for M68K)
02:00003392 000037E6        	  6996:     dc.l    InitWalker   ; NES addr vector (32-bit for M68K)
02:00003396 000037E6        	  6997:     dc.l    InitWalker   ; NES addr vector (32-bit for M68K)
02:0000339A 000037E6        	  6998:     dc.l    InitWalker   ; NES addr vector (32-bit for M68K)
02:0000339E 000037C6        	  6999:     dc.l    InitGel   ; NES addr vector (32-bit for M68K)
02:000033A2 000037E6        	  7000:     dc.l    InitWalker   ; NES addr vector (32-bit for M68K)
02:000033A6 000037E6        	  7001:     dc.l    InitWalker   ; NES addr vector (32-bit for M68K)
02:000033AA 00003194        	  7002:     dc.l    DoNothing   ; NES addr vector (32-bit for M68K)
02:000033AE 00003194        	  7003:     dc.l    DoNothing   ; NES addr vector (32-bit for M68K)
02:000033B2 000037DA        	  7004:     dc.l    InitPeahat   ; NES addr vector (32-bit for M68K)
02:000033B6 000037B2        	  7005:     dc.l    InitBlueKeese   ; NES addr vector (32-bit for M68K)
02:000033BA 000037DE        	  7006:     dc.l    InitRedOrBlackKeese   ; NES addr vector (32-bit for M68K)
02:000033BE 000037DE        	  7007:     dc.l    InitRedOrBlackKeese   ; NES addr vector (32-bit for M68K)
02:000033C2 000037B0        	  7008:     dc.l    InitArmosOrFlyingGhini   ; NES addr vector (32-bit for M68K)
02:000033C6 000037B6        	  7009:     dc.l    InitBoulderSet   ; NES addr vector (32-bit for M68K)
02:000033CA 000037B4        	  7010:     dc.l    InitBoulder   ; NES addr vector (32-bit for M68K)
02:000033CE 000037E2        	  7011:     dc.l    InitSlowOctorockOrGhini   ; NES addr vector (32-bit for M68K)
02:000033D2 000037B0        	  7012:     dc.l    InitArmosOrFlyingGhini   ; NES addr vector (32-bit for M68K)
02:000033D6 0000359E        	  7013:     dc.l    ResetObjMetastateAndTimer   ; NES addr vector (32-bit for M68K)
02:000033DA 0000359E        	  7014:     dc.l    ResetObjMetastateAndTimer   ; NES addr vector (32-bit for M68K)
02:000033DE 0000359E        	  7015:     dc.l    ResetObjMetastateAndTimer   ; NES addr vector (32-bit for M68K)
02:000033E2 0000359E        	  7016:     dc.l    ResetObjMetastateAndTimer   ; NES addr vector (32-bit for M68K)
02:000033E6 0000359E        	  7017:     dc.l    ResetObjMetastateAndTimer   ; NES addr vector (32-bit for M68K)
02:000033EA 000037E0        	  7018:     dc.l    InitRope   ; NES addr vector (32-bit for M68K)
02:000033EE 00003194        	  7019:     dc.l    DoNothing   ; NES addr vector (32-bit for M68K)
02:000033F2 000037E6        	  7020:     dc.l    InitWalker   ; NES addr vector (32-bit for M68K)
02:000033F6 000037B8        	  7021:     dc.l    InitBubble   ; NES addr vector (32-bit for M68K)
02:000033FA 000037B8        	  7022:     dc.l    InitBubble   ; NES addr vector (32-bit for M68K)
02:000033FE 000037B8        	  7023:     dc.l    InitBubble   ; NES addr vector (32-bit for M68K)
02:00003402 00003194        	  7024:     dc.l    DoNothing   ; NES addr vector (32-bit for M68K)
02:00003406 000037DC        	  7025:     dc.l    InitPondFairy   ; NES addr vector (32-bit for M68K)
02:0000340A 000037E6        	  7026:     dc.l    InitWalker   ; NES addr vector (32-bit for M68K)
02:0000340E 000037C0        	  7027:     dc.l    InitDodongo   ; NES addr vector (32-bit for M68K)
02:00003412 000037C0        	  7028:     dc.l    InitDodongo   ; NES addr vector (32-bit for M68K)
02:00003416 000037CC        	  7029:     dc.l    InitGohma   ; NES addr vector (32-bit for M68K)
02:0000341A 000037CC        	  7030:     dc.l    InitGohma   ; NES addr vector (32-bit for M68K)
02:0000341E 000034D0        	  7031:     dc.l    InitRupeeStash   ; NES addr vector (32-bit for M68K)
02:00003422 0000350C        	  7032:     dc.l    InitGrumble   ; NES addr vector (32-bit for M68K)
02:00003426 000037E8        	  7033:     dc.l    InitZelda   ; NES addr vector (32-bit for M68K)
02:0000342A 000037BC        	  7034:     dc.l    InitDigdogger1   ; NES addr vector (32-bit for M68K)
02:0000342E 000037BE        	  7035:     dc.l    InitDigdogger2   ; NES addr vector (32-bit for M68K)
02:00003432 000037CE        	  7036:     dc.l    InitLamnola   ; NES addr vector (32-bit for M68K)
02:00003436 000037CE        	  7037:     dc.l    InitLamnola   ; NES addr vector (32-bit for M68K)
02:0000343A 000037D2        	  7038:     dc.l    InitManhandla   ; NES addr vector (32-bit for M68K)
02:0000343E 000037AE        	  7039:     dc.l    InitAquamentus   ; NES addr vector (32-bit for M68K)
02:00003442 000037C4        	  7040:     dc.l    InitGanon   ; NES addr vector (32-bit for M68K)
02:00003446 00003194        	  7041:     dc.l    DoNothing   ; NES addr vector (32-bit for M68K)
02:0000344A 00003194        	  7042:     dc.l    DoNothing   ; NES addr vector (32-bit for M68K)
02:0000344E 000037D4        	  7043:     dc.l    InitMoldorm   ; NES addr vector (32-bit for M68K)
02:00003452 000037C8        	  7044:     dc.l    InitGleeok   ; NES addr vector (32-bit for M68K)
02:00003456 000037C8        	  7045:     dc.l    InitGleeok   ; NES addr vector (32-bit for M68K)
02:0000345A 000037C8        	  7046:     dc.l    InitGleeok   ; NES addr vector (32-bit for M68K)
02:0000345E 000037C8        	  7047:     dc.l    InitGleeok   ; NES addr vector (32-bit for M68K)
02:00003462 000037CA        	  7048:     dc.l    InitGleeokHead   ; NES addr vector (32-bit for M68K)
02:00003466 000037D8        	  7049:     dc.l    InitPatra   ; NES addr vector (32-bit for M68K)
02:0000346A 000037D8        	  7050:     dc.l    InitPatra   ; NES addr vector (32-bit for M68K)
02:0000346E 000034E4        	  7051:     dc.l    InitTrap   ; NES addr vector (32-bit for M68K)
02:00003472 000034E4        	  7052:     dc.l    InitTrap   ; NES addr vector (32-bit for M68K)
02:00003476 000034F8        	  7053:     dc.l    InitUnderworldPerson   ; NES addr vector (32-bit for M68K)
02:0000347A 000034F8        	  7054:     dc.l    InitUnderworldPerson   ; NES addr vector (32-bit for M68K)
02:0000347E 000034F8        	  7055:     dc.l    InitUnderworldPerson   ; NES addr vector (32-bit for M68K)
02:00003482 000034F8        	  7056:     dc.l    InitUnderworldPerson   ; NES addr vector (32-bit for M68K)
02:00003486 000034F8        	  7057:     dc.l    InitUnderworldPerson   ; NES addr vector (32-bit for M68K)
02:0000348A 000034F8        	  7058:     dc.l    InitUnderworldPerson   ; NES addr vector (32-bit for M68K)
02:0000348E 00003502        	  7059:     dc.l    InitUnderworldPersonLifeOrMoney   ; NES addr vector (32-bit for M68K)
02:00003492 000034F8        	  7060:     dc.l    InitUnderworldPerson   ; NES addr vector (32-bit for M68K)
02:00003496 000037D6        	  7061:     dc.l    InitMonsterShot   ; NES addr vector (32-bit for M68K)
02:0000349A 000037A6        	  7062:     dc.l    _InitMonsterShot_Unknown54   ; NES addr vector (32-bit for M68K)
02:0000349E 000037D6        	  7063:     dc.l    InitMonsterShot   ; NES addr vector (32-bit for M68K)
02:000034A2 000037D6        	  7064:     dc.l    InitMonsterShot   ; NES addr vector (32-bit for M68K)
02:000034A6 000037D6        	  7065:     dc.l    InitMonsterShot   ; NES addr vector (32-bit for M68K)
02:000034AA 000037D6        	  7066:     dc.l    InitMonsterShot   ; NES addr vector (32-bit for M68K)
02:000034AE 000037D6        	  7067:     dc.l    InitMonsterShot   ; NES addr vector (32-bit for M68K)
02:000034B2 000037D6        	  7068:     dc.l    InitMonsterShot   ; NES addr vector (32-bit for M68K)
02:000034B6 000035A4        	  7069:     dc.l    ResetObjMetastate   ; NES addr vector (32-bit for M68K)
02:000034BA 000035A4        	  7070:     dc.l    ResetObjMetastate   ; NES addr vector (32-bit for M68K)
02:000034BE 00003550        	  7071:     dc.l    UpdateDeadDummy   ; NES addr vector (32-bit for M68K)
02:000034C2 00003598        	  7072:     dc.l    InitFluteSecret   ; NES addr vector (32-bit for M68K)
                            	  7073: 
                            	  7074:     even
                            	  7075: UpdateWhirlwind:
02:000034C6 7001            	  7076:     moveq   #1,D0
02:000034C8 61000202        	  7077:     bsr     SwitchBank
02:000034CC 4EF8372E        	  7078:     jmp     UpdateWhirlwind_Full
                            	  7079: 
                            	  7080:     even
                            	  7081: InitRupeeStash:
02:000034D0 7001            	  7082:     moveq   #1,D0
02:000034D2 610001F8        	  7083:     bsr     SwitchBank
02:000034D6 4EF83716        	  7084:     jmp     InitRupeeStash_Full
                            	  7085: 
                            	  7086:     even
                            	  7087: UpdateRupeeStash:
02:000034DA 7001            	  7088:     moveq   #1,D0
02:000034DC 610001EE        	  7089:     bsr     SwitchBank
02:000034E0 4EF83726        	  7090:     jmp     UpdateRupeeStash_Full
                            	  7091: 
                            	  7092:     even
                            	  7093: InitTrap:
02:000034E4 7001            	  7094:     moveq   #1,D0
02:000034E6 610001E4        	  7095:     bsr     SwitchBank
02:000034EA 4EF83718        	  7096:     jmp     InitTrap_Full
                            	  7097: 
                            	  7098:     even
                            	  7099: UpdateTrap:
02:000034EE 7001            	  7100:     moveq   #1,D0
02:000034F0 610001DA        	  7101:     bsr     SwitchBank
02:000034F4 4EF83728        	  7102:     jmp     UpdateTrap_Full
                            	  7103: 
                            	  7104:     even
                            	  7105: InitUnderworldPerson:
02:000034F8 7001            	  7106:     moveq   #1,D0
02:000034FA 610001D0        	  7107:     bsr     SwitchBank
02:000034FE 4EF8371A        	  7108:     jmp     InitUnderworldPerson_Full
                            	  7109: 
                            	  7110:     even
                            	  7111: InitUnderworldPersonLifeOrMoney:
02:00003502 7001            	  7112:     moveq   #1,D0
02:00003504 610001C6        	  7113:     bsr     SwitchBank
02:00003508 4EF8371C        	  7114:     jmp     InitUnderworldPersonLifeOrMoney_Full
                            	  7115: 
                            	  7116:     even
                            	  7117: InitGrumble:
02:0000350C 7001            	  7118:     moveq   #1,D0
02:0000350E 610001BC        	  7119:     bsr     SwitchBank
02:00003512 4EF83714        	  7120:     jmp     InitGrumble_Full
                            	  7121: 
                            	  7122:     even
                            	  7123: UpdateUnderworldPerson:
02:00003516 7001            	  7124:     moveq   #1,D0
02:00003518 610001B2        	  7125:     bsr     SwitchBank
02:0000351C 4EF8372A        	  7126:     jmp     UpdateUnderworldPerson_Full
                            	  7127: 
                            	  7128:     even
                            	  7129: UpdateUnderworldPersonLifeOrMoney:
02:00003520 7001            	  7130:     moveq   #1,D0
02:00003522 610001A8        	  7131:     bsr     SwitchBank
02:00003526 4EF8372C        	  7132:     jmp     UpdateUnderworldPersonLifeOrMoney_Full
                            	  7133: 
                            	  7134:     even
                            	  7135: UpdateGrumble:
02:0000352A 7001            	  7136:     moveq   #1,D0
02:0000352C 6100019E        	  7137:     bsr     SwitchBank
02:00003530 4EF83724        	  7138:     jmp     UpdateGrumble_Full
                            	  7139: 
                            	  7140: ; Params:
                            	  7141: ; X: object index
                            	  7142: ;
                            	  7143:     even
                            	  7144: DecrementInvincibilityTimer:
02:00003534 41EC04F0        	  7145:     lea     ($04F0,A4),A0
02:00003538 10302000        	  7146:     move.b  (A0,D2.W),D0
02:0000353C 6710            	  7147:     beq  _L_z07_DecrementInvincibilityTimer_Exit
02:0000353E 102C0015        	  7148:     move.b  ($0015,A4),D0
02:00003542 E208            	  7149:     lsr.b  #1,D0   ; LSR A
02:00003544 6508            	  7150:     bcs  _L_z07_DecrementInvincibilityTimer_Exit
02:00003546 41EC04F0        	  7151:     lea     ($04F0,A4),A0
02:0000354A 53302000        	  7152:     subq.b  #1,(A0,D2.W)
                            	  7153:     even
                            	  7154: _L_z07_DecrementInvincibilityTimer_Exit:
02:0000354E 4E75            	  7155:     rts
                            	  7156: 
                            	  7157:     even
                            	  7158: UpdateDeadDummy:
02:00003550 7020            	  7159:     moveq   #32,D0
02:00003552 19400602        	  7160:     move.b  D0,($0602,A4)
02:00003556 7010            	  7161:     moveq   #16,D0
02:00003558 41EC0405        	  7162:     lea     ($0405,A4),A0
02:0000355C 11802000        	  7163:     move.b  D0,(A0,D2.W)
02:00003560 4E75            	  7164:     rts
                            	  7165: 
                            	  7166: ; Params:
                            	  7167: ; X: object index
                            	  7168: ;
                            	  7169:     even
                            	  7170: DestroyMonster:
02:00003562 7000            	  7171:     moveq   #0,D0
                            	  7172: ; Params:
                            	  7173: ; A: object type
                            	  7174: ; X: object index
                            	  7175: ;
                            	  7176:     even
                            	  7177: SetTypeAndClearObject:
02:00003564 41EC034F        	  7178:     lea     ($034F,A4),A0
02:00003568 11802000        	  7179:     move.b  D0,(A0,D2.W)
02:0000356C 7000            	  7180:     moveq   #0,D0
02:0000356E 4EF83752        	  7181:     jmp     DestroyObject_WRAM
                            	  7182: 
                            	  7183: ; Look for an empty object slot for a monster from $B to 1.
                            	  7184: ;
                            	  7185: ; Returns:
                            	  7186: ; A: 0 if found an empty slot
                            	  7187: ; Y: an empty slot, if found
                            	  7188: ; Z: 0 if found an empty slot
                            	  7189: ; [59]: an empty slot, if found
                            	  7190: ;
                            	  7191:     even
                            	  7192: FindEmptyMonsterSlot:
02:00003572 760C            	  7193:     moveq   #12,D3
                            	  7194:     even
                            	  7195: _L_z07_FindEmptyMonsterSlot_Loop:
02:00003574 5303            	  7196:     subq.b  #1,D3
02:00003576 670E            	  7197:     beq  _L_z07_FindEmptyMonsterSlot_End
02:00003578 41EC034F        	  7198:     lea     ($034F,A4),A0
02:0000357C 10303000        	  7199:     move.b  (A0,D3.W),D0
02:00003580 66F2            	  7200:     bne  _L_z07_FindEmptyMonsterSlot_Loop
02:00003582 19430059        	  7201:     move.b  D3,($0059,A4)
                            	  7202:     even
                            	  7203: _L_z07_FindEmptyMonsterSlot_End:
02:00003586 4A03            	  7204:     cmpi.b  #$00,D3
02:00003588 4E75            	  7205:     rts
                            	  7206: 
                            	  7207:     even
                            	  7208: InitTileObjOrItem:
                            	  7209:     ; Set object attribute to $81, and go reset metastate and timer;
                            	  7210:     ; so that the object is ready to start updating itself.
                            	  7211:     ;
                            	  7212:     ; Obj attr $81 = "Custom check collision and drawing"
                            	  7213:     ;              + "Reverse after hitting Link"
                            	  7214:     ;
02:0000358A 103C0081        	  7215:     move.b  #$81,D0
02:0000358E 41EC04BF        	  7216:     lea     ($04BF,A4),A0
02:00003592 11802000        	  7217:     move.b  D0,(A0,D2.W)
02:00003596 6606            	  7218:     bne  ResetObjMetastateAndTimer
                            	  7219:     even
                            	  7220: InitFluteSecret:
                            	  7221:     ; Summary:
                            	  7222:     ; The flute secret object manages the secret color cycle.
                            	  7223:     ;
                            	  7224:     ; The flute secret object is initialized in the same frame that
                            	  7225:     ; the flute was wielded. But this object won't update until
                            	  7226:     ; the flute timer expires.
                            	  7227:     ;
02:00003598 7001            	  7228:     moveq   #1,D0
02:0000359A 1940051A        	  7229:     move.b  D0,($051A,A4)
                            	  7230:     even
                            	  7231: ResetObjMetastateAndTimer:
02:0000359E 7000            	  7232:     moveq   #0,D0
02:000035A0 19802028        	  7233:     move.b  D0,($28,A4,D2.W)
                            	  7234:     even
                            	  7235: ResetObjMetastate:
                            	  7236:     ; Reset the object metastate so that it's ready to start
                            	  7237:     ; behaving autonomously (updating on its own).
                            	  7238:     ; This is the normal state outside of the spawning cloud and
                            	  7239:     ; the death sparkle.
                            	  7240:     ;
02:000035A4 7000            	  7241:     moveq   #0,D0
02:000035A6 41EC0405        	  7242:     lea     ($0405,A4),A0
02:000035AA 11802000        	  7243:     move.b  D0,(A0,D2.W)
02:000035AE 4E75            	  7244:     rts
                            	  7245: 
                            	  7246:     even
                            	  7247: WaterPaletteTransferBufTemplate:
02:000035B0 3F              	  7248:     dc.b    $3F, $0C, $04, $0F, $17, $37, $12, $FF
02:000035B1 0C
02:000035B2 04
02:000035B3 0F
02:000035B4 17
02:000035B5 37
02:000035B6 12
02:000035B7 FF
                            	  7249: 
                            	  7250:     even
                            	  7251: PondCycleColors:
02:000035B8 12              	  7252:     dc.b    $12, $11, $22, $21, $31, $32, $33, $35
02:000035B9 11
02:000035BA 22
02:000035BB 21
02:000035BC 31
02:000035BD 32
02:000035BE 33
02:000035BF 35
02:000035C0 34              	  7253:     dc.b    $34, $36, $37, $37
02:000035C1 36
02:000035C2 37
02:000035C3 37
                            	  7254: 
                            	  7255:     even
                            	  7256: UpdateFluteSecret:
                            	  7257:     ; If secret color cycle >= $C, return.
                            	  7258:     ;
02:000035C4 162C051A        	  7259:     move.b  ($051A,A4),D3
02:000035C8 0C03000C        	  7260:     cmpi.b  #$0C,D3
02:000035CC 6454            	  7261:     bcc  L1FF28_Exit
                            	  7262:     ; 7 of every 8 frames, return.
                            	  7263:     ;
02:000035CE 102C0015        	  7264:     move.b  ($0015,A4),D0
02:000035D2 02000007        	  7265:     andi.b #$07,D0
02:000035D6 0C000004        	  7266:     cmpi.b  #$04,D0
02:000035DA 6646            	  7267:     bne  L1FF28_Exit
                            	  7268:     ; So, every 8 frames:
                            	  7269:     ; 1. Increment the secret color cycle count.
                            	  7270:     ; 2. Change the water palette.
                            	  7271:     ;
                            	  7272:     ; But when the count = $B, go reveal the stairs.
                            	  7273:     ;
02:000035DC 522C051A        	  7274:     addq.b  #1,($051A,A4)
02:000035E0 0C03000B        	  7275:     cmpi.b  #$0B,D3
02:000035E4 673E            	  7276:     beq  RevealPondStairs
                            	  7277: ; Params:
                            	  7278: ; Y: a point in the cycle (0 to $B)
                            	  7279: ;
                            	  7280: ;
                            	  7281: ; Copy water palette (palette row 3) transfer buf to dynamic
                            	  7282: ; transfer buf.
                            	  7283:     even
                            	  7284: CueTransferPondPaletteRow:
02:000035E6 1003            	  7285:     move.b  D3,D0
02:000035E8 1B00            	  7286:     move.b  D0,-(A5)  ; PHA
02:000035EA 7607            	  7287:     moveq   #7,D3
                            	  7288:     even
                            	  7289: _L_z07_CueTransferPondPaletteRow_CopyBytes:
02:000035EC 41F9000035B0    	  7290:     lea     (WaterPaletteTransferBufTemplate).l,A0
02:000035F2 10303000        	  7291:     move.b  (A0,D3.W),D0
02:000035F6 41EC0302        	  7292:     lea     ($0302,A4),A0
02:000035FA 11803000        	  7293:     move.b  D0,(A0,D3.W)
02:000035FE 5303            	  7294:     subq.b  #1,D3
02:00003600 6AEA            	  7295:     bpl  _L_z07_CueTransferPondPaletteRow_CopyBytes
02:00003602 101D            	  7296:     move.b  (A5)+,D0  ; PLA
02:00003604 1600            	  7297:     move.b  D0,D3
02:00003606 41F9000035B8    	  7298:     lea     (PondCycleColors).l,A0
02:0000360C 10303000        	  7299:     move.b  (A0,D3.W),D0
02:00003610 19400308        	  7300:     move.b  D0,($0308,A4)
02:00003614 0C03000A        	  7301:     cmpi.b  #$0A,D3
02:00003618 6608            	  7302:     bne  L1FF28_Exit
02:0000361A 103C0099        	  7303:     move.b  #$99,D0
02:0000361E 1940034A        	  7304:     move.b  D0,($034A,A4)
                            	  7305:     even
                            	  7306: L1FF28_Exit:
02:00003622 4E75            	  7307:     rts
                            	  7308: 
                            	  7309:     even
                            	  7310: RevealPondStairs:
                            	  7311:     ; Set X and Y in this slot for the stairs in the pond.
                            	  7312:     ; Go reveal the stairs as a secret.
                            	  7313:     ;
02:00003624 7060            	  7314:     moveq   #96,D0
02:00003626 19802070        	  7315:     move.b  D0,($70,A4,D2.W)
02:0000362A 103C0090        	  7316:     move.b  #$90,D0
02:0000362E 41EC0084        	  7317:     lea     ($0084,A4),A0
02:00003632 11802000        	  7318:     move.b  D0,(A0,D2.W)
02:00003636 4EF837EA        	  7319:     jmp     RevealAndFlagSecretStairsObj
                            	  7320: 
                            	  7321:     even
                            	  7322: AnimatePond:
                            	  7323:     ; Take turns between:
                            	  7324:     ; * 4 frames stepping the cycle
                            	  7325:     ; * 4 frames delaying
02:0000363A 102C0015        	  7326:     move.b  ($0015,A4),D0
02:0000363E 02000004        	  7327:     andi.b #$04,D0
02:00003642 67DE            	  7328:     beq  L1FF28_Exit
02:00003644 532C051A        	  7329:     subq.b  #1,($051A,A4)
02:00003648 162C051A        	  7330:     move.b  ($051A,A4),D3
02:0000364C 4EF835E6        	  7331:     jmp     CueTransferPondPaletteRow
                            	  7332: 
                            	  7333: 
                            	  7334: ; === .SEGMENT "BANK_07_ISR" ===
                            	  7335: 
                            	  7336: 
                            	  7337: ; .EXPORT IsrReset
                            	  7338: 
                            	  7339:     even
                            	  7340: IsrReset:
                            	  7341:     ; SEI: NES IRQ disable — NOP on Genesis (VBlank=NMI fires regardless of IRQ mask)
                            	  7342:     ; CLD: decimal mode ignored (68000 has no decimal mode)
02:00003650 7000            	  7343:     moveq   #0,D0
02:00003652 6100CD8E        	  7344:     bsr     _ppu_write_0  ; PPU $2000 write, D0=val
02:00003656 143C00FF        	  7345:     move.b  #$FF,D2
02:0000365A 1E02            	  7346:     move.b  D2,D7   ; TXS: fake SP update (D7=NES SP shadow)
                            	  7347: _anon_z07_43:
02:0000365C 6100CD70        	  7348:     bsr     _ppu_read_2  ; PPU $2002 read → D0
02:00003660 02000080        	  7349:     andi.b #$80,D0
02:00003664 67F6            	  7350:     beq  _anon_z07_43
                            	  7351: _anon_z07_44:
02:00003666 6100CD66        	  7352:     bsr     _ppu_read_2  ; PPU $2002 read → D0
02:0000366A 02000080        	  7353:     andi.b #$80,D0
02:0000366E 67F6            	  7354:     beq  _anon_z07_44
02:00003670 000000FF        	  7355:     ori.b #$FF,D0
02:00003674 6100CF62        	  7356:     bsr     _mmc1_write_8000  ; MMC1 reg write, D0=val
02:00003678 6100CF66        	  7357:     bsr     _mmc1_write_a000  ; MMC1 reg write, D0=val
02:0000367C 6100CF6A        	  7358:     bsr     _mmc1_write_c000  ; MMC1 reg write, D0=val
02:00003680 6100CF6E        	  7359:     bsr     _mmc1_write_e000  ; MMC1 reg write, D0=val
02:00003684 700F            	  7360:     moveq   #15,D0
02:00003686 6126            	  7361:     bsr     SetMMC1Control
02:00003688 7000            	  7362:     moveq   #0,D0
02:0000368A 6100CF54        	  7363:     bsr     _mmc1_write_a000  ; MMC1 reg write, D0=val
02:0000368E E208            	  7364:     lsr.b  #1,D0   ; LSR A
02:00003690 6100CF4E        	  7365:     bsr     _mmc1_write_a000  ; MMC1 reg write, D0=val
02:00003694 E208            	  7366:     lsr.b  #1,D0   ; LSR A
02:00003696 6100CF48        	  7367:     bsr     _mmc1_write_a000  ; MMC1 reg write, D0=val
02:0000369A E208            	  7368:     lsr.b  #1,D0   ; LSR A
02:0000369C 6100CF42        	  7369:     bsr     _mmc1_write_a000  ; MMC1 reg write, D0=val
02:000036A0 E208            	  7370:     lsr.b  #1,D0   ; LSR A
02:000036A2 6100CF3C        	  7371:     bsr     _mmc1_write_a000  ; MMC1 reg write, D0=val
02:000036A6 7007            	  7372:     moveq   #7,D0
02:000036A8 6122            	  7373:     bsr     SwitchBank
02:000036AA 4EF8072A        	  7374:     jmp     RunGame
                            	  7375: 
                            	  7376:     even
                            	  7377: SetMMC1Control:
02:000036AE 6100CF28        	  7378:     bsr     _mmc1_write_8000  ; MMC1 reg write, D0=val
02:000036B2 E208            	  7379:     lsr.b  #1,D0   ; LSR A
02:000036B4 6100CF22        	  7380:     bsr     _mmc1_write_8000  ; MMC1 reg write, D0=val
02:000036B8 E208            	  7381:     lsr.b  #1,D0   ; LSR A
02:000036BA 6100CF1C        	  7382:     bsr     _mmc1_write_8000  ; MMC1 reg write, D0=val
02:000036BE E208            	  7383:     lsr.b  #1,D0   ; LSR A
02:000036C0 6100CF16        	  7384:     bsr     _mmc1_write_8000  ; MMC1 reg write, D0=val
02:000036C4 E208            	  7385:     lsr.b  #1,D0   ; LSR A
02:000036C6 6100CF10        	  7386:     bsr     _mmc1_write_8000  ; MMC1 reg write, D0=val
02:000036CA 4E75            	  7387:     rts
                            	  7388: 
                            	  7389:     even
                            	  7390: SwitchBank:
02:000036CC 6100CF22        	  7391:     bsr     _mmc1_write_e000  ; MMC1 reg write, D0=val
02:000036D0 E208            	  7392:     lsr.b  #1,D0   ; LSR A
02:000036D2 6100CF1C        	  7393:     bsr     _mmc1_write_e000  ; MMC1 reg write, D0=val
02:000036D6 E208            	  7394:     lsr.b  #1,D0   ; LSR A
02:000036D8 6100CF16        	  7395:     bsr     _mmc1_write_e000  ; MMC1 reg write, D0=val
02:000036DC E208            	  7396:     lsr.b  #1,D0   ; LSR A
02:000036DE 6100CF10        	  7397:     bsr     _mmc1_write_e000  ; MMC1 reg write, D0=val
02:000036E2 E208            	  7398:     lsr.b  #1,D0   ; LSR A
02:000036E4 6100CF0A        	  7399:     bsr     _mmc1_write_e000  ; MMC1 reg write, D0=val
02:000036E8 4E75            	  7400:     rts
                            	  7401: 
                            	  7402: 
                            	  7403: ; === .SEGMENT "BANK_07_VEC" ===
                            	  7404: 
                            	  7405: 
                            	  7406: 
                            	  7407: ; Unknown block
02:000036EA 5A              	  7408:     dc.b    $5A, $45, $4C, $44, $41, $D7, $C8, $00
02:000036EB 45
02:000036EC 4C
02:000036ED 44
02:000036EE 41
02:000036EF D7
02:000036F0 C8
02:000036F1 00
02:000036F2 00              	  7409:     dc.b    $00, $38, $04, $01, $04, $01, $BE
02:000036F3 38
02:000036F4 04
02:000036F5 01
02:000036F6 04
02:000036F7 01
02:000036F8 BE
                            	  7410: 
                            	  7411:     even
                            	  7412: IsrVector:
02:000036FA 00000780        	  7413:     dc.l    IsrNmi   ; NES addr vector (32-bit for M68K)
02:000036FE 00003650        	  7414:     dc.l    IsrReset   ; NES addr vector (32-bit for M68K)
02:00003702 0000FFF0        	  7415:     dc.l    $FFF0   ; NES addr vector (32-bit for M68K)
                            	  7416: 
                            	  7417: 
                            	  7418: ;==============================================================================
                            	  7419: ; Import stubs (T2: defined locally so the file assembles standalone)
                            	  7420: ;==============================================================================
                            	  7421:     even
                            	  7422: DriveAudio:
02:00003706 4E75            	  7423:     rts
                            	  7424: 
                            	  7425:     even
                            	  7426: CheckInitWhirlwindAndBeginUpdate:
02:00003708 4E75            	  7427:     rts
                            	  7428: 
                            	  7429:     even
                            	  7430: CheckPassiveTileObjects:
02:0000370A 4E75            	  7431:     rts
                            	  7432: 
                            	  7433:     even
                            	  7434: CheckPowerTriforceFanfare:
02:0000370C 4E75            	  7435:     rts
                            	  7436: 
                            	  7437:     even
                            	  7438: CheckTileObjectsBlocking:
02:0000370E 4E75            	  7439:     rts
                            	  7440: 
                            	  7441:     even
                            	  7442: CopyCommonCodeToRam:
02:00003710 4E75            	  7443:     rts
                            	  7444: 
                            	  7445:     even
                            	  7446: InitCave:
02:00003712 4E75            	  7447:     rts
                            	  7448: 
                            	  7449:     even
                            	  7450: InitGrumble_Full:
02:00003714 4E75            	  7451:     rts
                            	  7452: 
                            	  7453:     even
                            	  7454: InitRupeeStash_Full:
02:00003716 4E75            	  7455:     rts
                            	  7456: 
                            	  7457:     even
                            	  7458: InitTrap_Full:
02:00003718 4E75            	  7459:     rts
                            	  7460: 
                            	  7461:     even
                            	  7462: InitUnderworldPerson_Full:
02:0000371A 4E75            	  7463:     rts
                            	  7464: 
                            	  7465:     even
                            	  7466: InitUnderworldPersonLifeOrMoney_Full:
02:0000371C 4E75            	  7467:     rts
                            	  7468: 
                            	  7469:     even
                            	  7470: SummonWhirlwind:
02:0000371E 4E75            	  7471:     rts
                            	  7472: 
                            	  7473:     even
                            	  7474: TransferDemoPatterns:
02:00003720 4E75            	  7475:     rts
                            	  7476: 
                            	  7477:     even
                            	  7478: UpdateCavePerson:
02:00003722 4E75            	  7479:     rts
                            	  7480: 
                            	  7481:     even
                            	  7482: UpdateGrumble_Full:
02:00003724 4E75            	  7483:     rts
                            	  7484: 
                            	  7485:     even
                            	  7486: UpdateRupeeStash_Full:
02:00003726 4E75            	  7487:     rts
                            	  7488: 
                            	  7489:     even
                            	  7490: UpdateTrap_Full:
02:00003728 4E75            	  7491:     rts
                            	  7492: 
                            	  7493:     even
                            	  7494: UpdateUnderworldPerson_Full:
02:0000372A 4E75            	  7495:     rts
                            	  7496: 
                            	  7497:     even
                            	  7498: UpdateUnderworldPersonLifeOrMoney_Full:
02:0000372C 4E75            	  7499:     rts
                            	  7500: 
                            	  7501:     even
                            	  7502: UpdateWhirlwind_Full:
02:0000372E 4E75            	  7503:     rts
                            	  7504: 
                            	  7505:     even
                            	  7506: _CalcDiagonalSpeedIndex:
02:00003730 4E75            	  7507:     rts
                            	  7508: 
                            	  7509:     even
                            	  7510: Abs:
02:00003732 4E75            	  7511:     rts
                            	  7512: 
                            	  7513:     even
                            	  7514: Add1ToInt16At0:
02:00003734 4E75            	  7515:     rts
                            	  7516: 
                            	  7517:     even
                            	  7518: AddQSpeedToPositionFraction:
02:00003736 4E75            	  7519:     rts
                            	  7520: 
                            	  7521:     even
                            	  7522: Anim_SetSpriteDescriptorAttributes:
02:00003738 4E75            	  7523:     rts
                            	  7524: 
                            	  7525:     even
                            	  7526: Anim_SetSpriteDescriptorRedPaletteRow:
02:0000373A 4E75            	  7527:     rts
                            	  7528: 
                            	  7529:     even
                            	  7530: Anim_WriteItemSprites:
02:0000373C 4E75            	  7531:     rts
                            	  7532: 
                            	  7533:     even
                            	  7534: Anim_WriteSpecificItemSprites:
02:0000373E 4E75            	  7535:     rts
                            	  7536: 
                            	  7537:     even
                            	  7538: Anim_WriteStaticItemSpritesWithAttributes:
02:00003740 4E75            	  7539:     rts
                            	  7540: 
                            	  7541:     even
                            	  7542: AnimateAndDrawObjectWalking:
02:00003742 4E75            	  7543:     rts
                            	  7544: 
                            	  7545:     even
                            	  7546: BeginShove:
02:00003744 4E75            	  7547:     rts
                            	  7548: 
                            	  7549:     even
                            	  7550: BeginUpdateMode:
02:00003746 4E75            	  7551:     rts
                            	  7552: 
                            	  7553:     even
                            	  7554: BoundByRoom:
02:00003748 4E75            	  7555:     rts
                            	  7556: 
                            	  7557:     even
                            	  7558: BoundByRoomWithA:
02:0000374A 4E75            	  7559:     rts
                            	  7560: 
                            	  7561:     even
                            	  7562: CheckLinkCollision:
02:0000374C 4E75            	  7563:     rts
                            	  7564: 
                            	  7565:     even
                            	  7566: CheckMonsterCollisions:
02:0000374E 4E75            	  7567:     rts
                            	  7568: 
                            	  7569:     even
                            	  7570: CheckPersonBlocking:
02:00003750 4E75            	  7571:     rts
                            	  7572: 
                            	  7573:     even
                            	  7574: DestroyObject_WRAM:
02:00003752 4E75            	  7575:     rts
                            	  7576: 
                            	  7577:     even
                            	  7578: DoObjectsCollide:
02:00003754 4E75            	  7579:     rts
                            	  7580: 
                            	  7581:     even
                            	  7582: DrawObjectWithAnim:
02:00003756 4E75            	  7583:     rts
                            	  7584: 
                            	  7585:     even
                            	  7586: DrawObjectWithType:
02:00003758 4E75            	  7587:     rts
                            	  7588: 
                            	  7589:     even
                            	  7590: GetDirectionsAndDistancesToTarget:
02:0000375A 4E75            	  7591:     rts
                            	  7592: 
                            	  7593:     even
                            	  7594: GetOppositeDir:
02:0000375C 4E75            	  7595:     rts
                            	  7596: 
                            	  7597:     even
                            	  7598: GetRoomFlagUWItemState:
02:0000375E 4E75            	  7599:     rts
                            	  7600: 
                            	  7601:     even
                            	  7602: HideObjectSprites:
02:00003760 4E75            	  7603:     rts
                            	  7604: 
                            	  7605:     even
                            	  7606: ItemIdToDescriptor:
02:00003762 4E75            	  7607:     rts
                            	  7608: 
                            	  7609:     even
                            	  7610: ItemIdToSlot:
02:00003764 4E75            	  7611:     rts
                            	  7612: 
                            	  7613:     even
                            	  7614: ItemSlotToPaletteOffsetsOrValues:
02:00003766 4E75            	  7615:     rts
                            	  7616: 
                            	  7617:     even
                            	  7618: Link_BeHarmed:
02:00003768 4E75            	  7619:     rts
                            	  7620: 
                            	  7621:     even
                            	  7622: MapScreenPosToPpuAddr:
02:0000376A 4E75            	  7623:     rts
                            	  7624: 
                            	  7625:     even
                            	  7626: MoveShot:
02:0000376C 4E75            	  7627:     rts
                            	  7628: 
                            	  7629:     even
                            	  7630: PlaceWeapon:
02:0000376E 4E75            	  7631:     rts
                            	  7632: 
                            	  7633:     even
                            	  7634: PlayBoomerangSfx:
02:00003770 4E75            	  7635:     rts
                            	  7636: 
                            	  7637:     even
                            	  7638: PlayEffect:
02:00003772 4E75            	  7639:     rts
                            	  7640: 
                            	  7641:     even
                            	  7642: PlaySample:
02:00003774 4E75            	  7643:     rts
                            	  7644: 
                            	  7645:     even
                            	  7646: ReverseDirections:
02:00003776 4E75            	  7647:     rts
                            	  7648: 
                            	  7649:     even
                            	  7650: SetBoomerangSpeed:
02:00003778 4E75            	  7651:     rts
                            	  7652: 
                            	  7653:     even
                            	  7654: ShowLinkSpritesBehindHorizontalDoors:
02:0000377A 4E75            	  7655:     rts
                            	  7656: 
                            	  7657:     even
                            	  7658: SubQSpeedFromPositionFraction:
02:0000377C 4E75            	  7659:     rts
                            	  7660: 
                            	  7661:     even
                            	  7662: TryTakeRoomItem:
02:0000377E 4E75            	  7663:     rts
                            	  7664: 
                            	  7665:     even
                            	  7666: UpdateBombFlashEffect:
02:00003780 4E75            	  7667:     rts
                            	  7668: 
                            	  7669:     even
                            	  7670: UpdatePlayerPositionMarker:
02:00003782 4E75            	  7671:     rts
                            	  7672: 
                            	  7673:     even
                            	  7674: UpdatePositionMarker:
02:00003784 4E75            	  7675:     rts
                            	  7676: 
                            	  7677:     even
                            	  7678: UpdateWorldCurtainEffect:
02:00003786 4E75            	  7679:     rts
                            	  7680: 
                            	  7681:     even
                            	  7682: WieldCandle:
02:00003788 4E75            	  7683:     rts
                            	  7684: 
                            	  7685:     even
                            	  7686: World_ChangeRupees:
02:0000378A 4E75            	  7687:     rts
                            	  7688: 
                            	  7689:     even
                            	  7690: WriteBlankPrioritySprites:
02:0000378C 4E75            	  7691:     rts
                            	  7692: 
                            	  7693:     even
                            	  7694: InitDemo_RunTasks:
02:0000378E 4E75            	  7695:     rts
                            	  7696: 
                            	  7697:     even
                            	  7698: InitMode1_Full:
02:00003790 4E75            	  7699:     rts
                            	  7700: 
                            	  7701:     even
                            	  7702: InitMode13_Full:
02:00003792 4E75            	  7703:     rts
                            	  7704: 
                            	  7705:     even
                            	  7706: InitModeEandF_Full:
02:00003794 4E75            	  7707:     rts
                            	  7708: 
                            	  7709:     even
                            	  7710: TransferCommonPatterns:
02:00003796 4E75            	  7711:     rts
                            	  7712: 
                            	  7713:     even
                            	  7714: UpdateMode0Demo:
02:00003798 4E75            	  7715:     rts
                            	  7716: 
                            	  7717:     even
                            	  7718: UpdateMode13WinGame:
02:0000379A 4E75            	  7719:     rts
                            	  7720: 
                            	  7721:     even
                            	  7722: UpdateMode1Menu:
02:0000379C 4E75            	  7723:     rts
                            	  7724: 
                            	  7725:     even
                            	  7726: UpdateModeDSave:
02:0000379E 4E75            	  7727:     rts
                            	  7728: 
                            	  7729:     even
                            	  7730: UpdateModeERegister:
02:000037A0 4E75            	  7731:     rts
                            	  7732: 
                            	  7733:     even
                            	  7734: UpdateModeFElimination:
02:000037A2 4E75            	  7735:     rts
                            	  7736: 
                            	  7737:     even
                            	  7738: TransferLevelPatternBlocks:
02:000037A4 4E75            	  7739:     rts
                            	  7740: 
                            	  7741:     even
                            	  7742: _InitMonsterShot_Unknown54:
02:000037A6 4E75            	  7743:     rts
                            	  7744: 
                            	  7745:     even
                            	  7746: CheckZora:
02:000037A8 4E75            	  7747:     rts
                            	  7748: 
                            	  7749:     even
                            	  7750: DestroyCountedMonsterShot:
02:000037AA 4E75            	  7751:     rts
                            	  7752: 
                            	  7753:     even
                            	  7754: ExtractHitPointValue:
02:000037AC 4E75            	  7755:     rts
                            	  7756: 
                            	  7757:     even
                            	  7758: InitAquamentus:
02:000037AE 4E75            	  7759:     rts
                            	  7760: 
                            	  7761:     even
                            	  7762: InitArmosOrFlyingGhini:
02:000037B0 4E75            	  7763:     rts
                            	  7764: 
                            	  7765:     even
                            	  7766: InitBlueKeese:
02:000037B2 4E75            	  7767:     rts
                            	  7768: 
                            	  7769:     even
                            	  7770: InitBoulder:
02:000037B4 4E75            	  7771:     rts
                            	  7772: 
                            	  7773:     even
                            	  7774: InitBoulderSet:
02:000037B6 4E75            	  7775:     rts
                            	  7776: 
                            	  7777:     even
                            	  7778: InitBubble:
02:000037B8 4E75            	  7779:     rts
                            	  7780: 
                            	  7781:     even
                            	  7782: InitDarknut:
02:000037BA 4E75            	  7783:     rts
                            	  7784: 
                            	  7785:     even
                            	  7786: InitDigdogger1:
02:000037BC 4E75            	  7787:     rts
                            	  7788: 
                            	  7789:     even
                            	  7790: InitDigdogger2:
02:000037BE 4E75            	  7791:     rts
                            	  7792: 
                            	  7793:     even
                            	  7794: InitDodongo:
02:000037C0 4E75            	  7795:     rts
                            	  7796: 
                            	  7797:     even
                            	  7798: InitFastOctorock:
02:000037C2 4E75            	  7799:     rts
                            	  7800: 
                            	  7801:     even
                            	  7802: InitGanon:
02:000037C4 4E75            	  7803:     rts
                            	  7804: 
                            	  7805:     even
                            	  7806: InitGel:
02:000037C6 4E75            	  7807:     rts
                            	  7808: 
                            	  7809:     even
                            	  7810: InitGleeok:
02:000037C8 4E75            	  7811:     rts
                            	  7812: 
                            	  7813:     even
                            	  7814: InitGleeokHead:
02:000037CA 4E75            	  7815:     rts
                            	  7816: 
                            	  7817:     even
                            	  7818: InitGohma:
02:000037CC 4E75            	  7819:     rts
                            	  7820: 
                            	  7821:     even
                            	  7822: InitLamnola:
02:000037CE 4E75            	  7823:     rts
                            	  7824: 
                            	  7825:     even
                            	  7826: InitLeever:
02:000037D0 4E75            	  7827:     rts
                            	  7828: 
                            	  7829:     even
                            	  7830: InitManhandla:
02:000037D2 4E75            	  7831:     rts
                            	  7832: 
                            	  7833:     even
                            	  7834: InitMoldorm:
02:000037D4 4E75            	  7835:     rts
                            	  7836: 
                            	  7837:     even
                            	  7838: InitMonsterShot:
02:000037D6 4E75            	  7839:     rts
                            	  7840: 
                            	  7841:     even
                            	  7842: InitPatra:
02:000037D8 4E75            	  7843:     rts
                            	  7844: 
                            	  7845:     even
                            	  7846: InitPeahat:
02:000037DA 4E75            	  7847:     rts
                            	  7848: 
                            	  7849:     even
                            	  7850: InitPondFairy:
02:000037DC 4E75            	  7851:     rts
                            	  7852: 
                            	  7853:     even
                            	  7854: InitRedOrBlackKeese:
02:000037DE 4E75            	  7855:     rts
                            	  7856: 
                            	  7857:     even
                            	  7858: InitRope:
02:000037E0 4E75            	  7859:     rts
                            	  7860: 
                            	  7861:     even
                            	  7862: InitSlowOctorockOrGhini:
02:000037E2 4E75            	  7863:     rts
                            	  7864: 
                            	  7865:     even
                            	  7866: InitTektite:
02:000037E4 4E75            	  7867:     rts
                            	  7868: 
                            	  7869:     even
                            	  7870: InitWalker:
02:000037E6 4E75            	  7871:     rts
                            	  7872: 
                            	  7873:     even
                            	  7874: InitZelda:
02:000037E8 4E75            	  7875:     rts
                            	  7876: 
                            	  7877:     even
                            	  7878: RevealAndFlagSecretStairsObj:
02:000037EA 4E75            	  7879:     rts
                            	  7880: 
                            	  7881:     even
                            	  7882: SetUpDroppedItem:
02:000037EC 4E75            	  7883:     rts
                            	  7884: 
                            	  7885:     even
                            	  7886: UpdateAquamentus:
02:000037EE 4E75            	  7887:     rts
                            	  7888: 
                            	  7889:     even
                            	  7890: UpdateArmos:
02:000037F0 4E75            	  7891:     rts
                            	  7892: 
                            	  7893:     even
                            	  7894: UpdateBlock:
02:000037F2 4E75            	  7895:     rts
                            	  7896: 
                            	  7897:     even
                            	  7898: UpdateBlueLeever:
02:000037F4 4E75            	  7899:     rts
                            	  7900: 
                            	  7901:     even
                            	  7902: UpdateBlueWizzrobe:
02:000037F6 4E75            	  7903:     rts
                            	  7904: 
                            	  7905:     even
                            	  7906: UpdateBoulderSet:
02:000037F8 4E75            	  7907:     rts
                            	  7908: 
                            	  7909:     even
                            	  7910: UpdateBubble:
02:000037FA 4E75            	  7911:     rts
                            	  7912: 
                            	  7913:     even
                            	  7914: UpdateCandle:
02:000037FC 4E75            	  7915:     rts
                            	  7916: 
                            	  7917:     even
                            	  7918: UpdateDarknut:
02:000037FE 4E75            	  7919:     rts
                            	  7920: 
                            	  7921:     even
                            	  7922: UpdateDigdogger:
02:00003800 4E75            	  7923:     rts
                            	  7924: 
                            	  7925:     even
                            	  7926: UpdateDock:
02:00003802 4E75            	  7927:     rts
                            	  7928: 
                            	  7929:     even
                            	  7930: UpdateDodongo:
02:00003804 4E75            	  7931:     rts
                            	  7932: 
                            	  7933:     even
                            	  7934: UpdateFireball:
02:00003806 4E75            	  7935:     rts
                            	  7936: 
                            	  7937:     even
                            	  7938: UpdateFlyingGhini:
02:00003808 4E75            	  7939:     rts
                            	  7940: 
                            	  7941:     even
                            	  7942: UpdateGanon:
02:0000380A 4E75            	  7943:     rts
                            	  7944: 
                            	  7945:     even
                            	  7946: UpdateGel:
02:0000380C 4E75            	  7947:     rts
                            	  7948: 
                            	  7949:     even
                            	  7950: UpdateGhini:
02:0000380E 4E75            	  7951:     rts
                            	  7952: 
                            	  7953:     even
                            	  7954: UpdateGibdo:
02:00003810 4E75            	  7955:     rts
                            	  7956: 
                            	  7957:     even
                            	  7958: UpdateGleeok:
02:00003812 4E75            	  7959:     rts
                            	  7960: 
                            	  7961:     even
                            	  7962: UpdateGleeokHead:
02:00003814 4E75            	  7963:     rts
                            	  7964: 
                            	  7965:     even
                            	  7966: UpdateGohma:
02:00003816 4E75            	  7967:     rts
                            	  7968: 
                            	  7969:     even
                            	  7970: UpdateGoriya:
02:00003818 4E75            	  7971:     rts
                            	  7972: 
                            	  7973:     even
                            	  7974: UpdateGuardFire:
02:0000381A 4E75            	  7975:     rts
                            	  7976: 
                            	  7977:     even
                            	  7978: UpdateItem:
02:0000381C 4E75            	  7979:     rts
                            	  7980: 
                            	  7981:     even
                            	  7982: UpdateKeese:
02:0000381E 4E75            	  7983:     rts
                            	  7984: 
                            	  7985:     even
                            	  7986: UpdateLamnola:
02:00003820 4E75            	  7987:     rts
                            	  7988: 
                            	  7989:     even
                            	  7990: UpdateLikeLike:
02:00003822 4E75            	  7991:     rts
                            	  7992: 
                            	  7993:     even
                            	  7994: UpdateLynel:
02:00003824 4E75            	  7995:     rts
                            	  7996: 
                            	  7997:     even
                            	  7998: UpdateManhandla:
02:00003826 4E75            	  7999:     rts
                            	  8000: 
                            	  8001:     even
                            	  8002: UpdateMoblin:
02:00003828 4E75            	  8003:     rts
                            	  8004: 
                            	  8005:     even
                            	  8006: UpdateMoldorm:
02:0000382A 4E75            	  8007:     rts
                            	  8008: 
                            	  8009:     even
                            	  8010: UpdateMonsterArrow:
02:0000382C 4E75            	  8011:     rts
                            	  8012: 
                            	  8013:     even
                            	  8014: UpdateMonsterShot:
02:0000382E 4E75            	  8015:     rts
                            	  8016: 
                            	  8017:     even
                            	  8018: UpdateOctorock:
02:00003830 4E75            	  8019:     rts
                            	  8020: 
                            	  8021:     even
                            	  8022: UpdatePatra:
02:00003832 4E75            	  8023:     rts
                            	  8024: 
                            	  8025:     even
                            	  8026: UpdatePatraChild:
02:00003834 4E75            	  8027:     rts
                            	  8028: 
                            	  8029:     even
                            	  8030: UpdatePeahat:
02:00003836 4E75            	  8031:     rts
                            	  8032: 
                            	  8033:     even
                            	  8034: UpdatePolsVoice:
02:00003838 4E75            	  8035:     rts
                            	  8036: 
                            	  8037:     even
                            	  8038: UpdatePondFairy:
02:0000383A 4E75            	  8039:     rts
                            	  8040: 
                            	  8041:     even
                            	  8042: UpdateRedLeever:
02:0000383C 4E75            	  8043:     rts
                            	  8044: 
                            	  8045:     even
                            	  8046: UpdateRedWizzrobe:
02:0000383E 4E75            	  8047:     rts
                            	  8048: 
                            	  8049:     even
                            	  8050: UpdateRockOrGravestone:
02:00003840 4E75            	  8051:     rts
                            	  8052: 
                            	  8053:     even
                            	  8054: UpdateRockWall:
02:00003842 4E75            	  8055:     rts
                            	  8056: 
                            	  8057:     even
                            	  8058: UpdateRope:
02:00003844 4E75            	  8059:     rts
                            	  8060: 
                            	  8061:     even
                            	  8062: UpdateStalfos:
02:00003846 4E75            	  8063:     rts
                            	  8064: 
                            	  8065:     even
                            	  8066: UpdateStandingFire:
02:00003848 4E75            	  8067:     rts
                            	  8068: 
                            	  8069:     even
                            	  8070: UpdateStatues:
02:0000384A 4E75            	  8071:     rts
                            	  8072: 
                            	  8073:     even
                            	  8074: UpdateTektiteOrBoulder:
02:0000384C 4E75            	  8075:     rts
                            	  8076: 
                            	  8077:     even
                            	  8078: UpdateTree:
02:0000384E 4E75            	  8079:     rts
                            	  8080: 
                            	  8081:     even
                            	  8082: UpdateVire:
02:00003850 4E75            	  8083:     rts
                            	  8084: 
                            	  8085:     even
                            	  8086: UpdateWallmaster:
02:00003852 4E75            	  8087:     rts
                            	  8088: 
                            	  8089:     even
                            	  8090: UpdateZelda:
02:00003854 4E75            	  8091:     rts
                            	  8092: 
                            	  8093:     even
                            	  8094: UpdateZol:
02:00003856 4E75            	  8095:     rts
                            	  8096: 
                            	  8097:     even
                            	  8098: UpdateZora:
02:00003858 4E75            	  8099:     rts
                            	  8100: 
                            	  8101:     even
                            	  8102: AnimateAndDrawLinkBehindBackground:
02:0000385A 4E75            	  8103:     rts
                            	  8104: 
                            	  8105:     even
                            	  8106: CalculateNextRoomForDoor:
02:0000385C 4E75            	  8107:     rts
                            	  8108: 
                            	  8109:     even
                            	  8110: ChangePlayMapSquareOW:
02:0000385E 4E75            	  8111:     rts
                            	  8112: 
                            	  8113:     even
                            	  8114: CheckBossSoundEffectUW:
02:00003860 4E75            	  8115:     rts
                            	  8116: 
                            	  8117:     even
                            	  8118: CheckDoorway:
02:00003862 4E75            	  8119:     rts
                            	  8120: 
                            	  8121:     even
                            	  8122: CheckLadder:
02:00003864 4E75            	  8123:     rts
                            	  8124: 
                            	  8125:     even
                            	  8126: CheckShutters:
02:00003866 4E75            	  8127:     rts
                            	  8128: 
                            	  8129:     even
                            	  8130: CheckSubroom:
02:00003868 4E75            	  8131:     rts
                            	  8132: 
                            	  8133:     even
                            	  8134: CheckUnderworldSecrets:
02:0000386A 4E75            	  8135:     rts
                            	  8136: 
                            	  8137:     even
                            	  8138: CheckWarps:
02:0000386C 4E75            	  8139:     rts
                            	  8140: 
                            	  8141:     even
                            	  8142: ClearRam:
02:0000386E 4E75            	  8143:     rts
                            	  8144: 
                            	  8145:     even
                            	  8146: CreateRoomObjects:
02:00003870 4E75            	  8147:     rts
                            	  8148: 
                            	  8149:     even
                            	  8150: DrawItemInInventoryWithX:
02:00003872 4E75            	  8151:     rts
                            	  8152: 
                            	  8153:     even
                            	  8154: DrawLinkBetweenRooms:
02:00003874 4E75            	  8155:     rts
                            	  8156: 
                            	  8157:     even
                            	  8158: FetchTileMapAddr:
02:00003876 4E75            	  8159:     rts
                            	  8160: 
                            	  8161:     even
                            	  8162: FindAndSelectOccupiedItemSlot:
02:00003878 4E75            	  8163:     rts
                            	  8164: 
                            	  8165:     even
                            	  8166: FindDoorAttrByDoorBit:
02:0000387A 4E75            	  8167:     rts
                            	  8168: 
                            	  8169:     even
                            	  8170: FindNextEdgeSpawnCell:
02:0000387C 4E75            	  8171:     rts
                            	  8172: 
                            	  8173:     even
                            	  8174: HasCompass:
02:0000387E 4E75            	  8175:     rts
                            	  8176: 
                            	  8177:     even
                            	  8178: InitMode10:
02:00003880 4E75            	  8179:     rts
                            	  8180: 
                            	  8181:     even
                            	  8182: InitMode11:
02:00003882 4E75            	  8183:     rts
                            	  8184: 
                            	  8185:     even
                            	  8186: InitMode12:
02:00003884 4E75            	  8187:     rts
                            	  8188: 
                            	  8189:     even
                            	  8190: InitMode3_Sub2:
02:00003886 4E75            	  8191:     rts
                            	  8192: 
                            	  8193:     even
                            	  8194: InitMode3_Sub3_TransferTopHalfAttrs:
02:00003888 4E75            	  8195:     rts
                            	  8196: 
                            	  8197:     even
                            	  8198: InitMode3_Sub4_TransferBottomHalfAttrs:
02:0000388A 4E75            	  8199:     rts
                            	  8200: 
                            	  8201:     even
                            	  8202: InitMode3_Sub5:
02:0000388C 4E75            	  8203:     rts
                            	  8204: 
                            	  8205:     even
                            	  8206: InitMode3_Sub6:
02:0000388E 4E75            	  8207:     rts
                            	  8208: 
                            	  8209:     even
                            	  8210: InitMode3_Sub7:
02:00003890 4E75            	  8211:     rts
                            	  8212: 
                            	  8213:     even
                            	  8214: InitMode3_Sub8:
02:00003892 4E75            	  8215:     rts
                            	  8216: 
                            	  8217:     even
                            	  8218: InitMode4:
02:00003894 4E75            	  8219:     rts
                            	  8220: 
                            	  8221:     even
                            	  8222: InitMode6:
02:00003896 4E75            	  8223:     rts
                            	  8224: 
                            	  8225:     even
                            	  8226: InitMode7Submodes:
02:00003898 4E75            	  8227:     rts
                            	  8228: 
                            	  8229:     even
                            	  8230: InitMode8:
02:0000389A 4E75            	  8231:     rts
                            	  8232: 
                            	  8233:     even
                            	  8234: InitMode9:
02:0000389C 4E75            	  8235:     rts
                            	  8236: 
                            	  8237:     even
                            	  8238: InitModeA:
02:0000389E 4E75            	  8239:     rts
                            	  8240: 
                            	  8241:     even
                            	  8242: InitModeB:
02:000038A0 4E75            	  8243:     rts
                            	  8244: 
                            	  8245:     even
                            	  8246: InitModeC:
02:000038A2 4E75            	  8247:     rts
                            	  8248: 
                            	  8249:     even
                            	  8250: InitModeD:
02:000038A4 4E75            	  8251:     rts
                            	  8252: 
                            	  8253:     even
                            	  8254: InitSaveRam:
02:000038A6 4E75            	  8255:     rts
                            	  8256: 
                            	  8257:     even
                            	  8258: IsDistanceSafeToSpawn:
02:000038A8 4E75            	  8259:     rts
                            	  8260: 
                            	  8261:     even
                            	  8262: Link_HandleInput:
02:000038AA 4E75            	  8263:     rts
                            	  8264: 
                            	  8265:     even
                            	  8266: MaskCurPpuMaskGrayscale:
02:000038AC 4E75            	  8267:     rts
                            	  8268: 
                            	  8269:     even
                            	  8270: SetupObjRoomBounds:
02:000038AE 4E75            	  8271:     rts
                            	  8272: 
                            	  8273:     even
                            	  8274: UpdateDoors:
02:000038B0 4E75            	  8275:     rts
                            	  8276: 
                            	  8277:     even
                            	  8278: UpdateMenuAndMeters:
02:000038B2 4E75            	  8279:     rts
                            	  8280: 
                            	  8281:     even
                            	  8282: UpdateMode10Stairs_Full:
02:000038B4 4E75            	  8283:     rts
                            	  8284: 
                            	  8285:     even
                            	  8286: UpdateMode11Death_Full:
02:000038B6 4E75            	  8287:     rts
                            	  8288: 
                            	  8289:     even
                            	  8290: UpdateMode12EndLevel_Full:
02:000038B8 4E75            	  8291:     rts
                            	  8292: 
                            	  8293:     even
                            	  8294: UpdateMode7SubmodeAndDrawLink:
02:000038BA 4E75            	  8295:     rts
                            	  8296: 
                            	  8297:     even
                            	  8298: UpdateMode8ContinueQuestion_Full:
02:000038BC 4E75            	  8299:     rts
                            	  8300: 
                            	  8301:     even
                            	  8302: WaitAndScrollToSplitBottom:
02:000038BE 4E75            	  8303:     rts
                            	  8304: 
                            	  8305:     even
                            	  8306: World_FillHearts:
02:000038C0 4E75            	  8307:     rts
                            	  8308: 
                            	  8309:     even
                            	  8310: CopyCommonDataToRam:
02:000038C2 4E75            	  8311:     rts
                            	  8312: 
                            	  8313:     even
                            	  8314: InitMode2_Submodes:
02:000038C4 4E75            	  8315:     rts
                            	  8316: 
                            	  8317:     even
                            	  8318: TransferCurTileBuf:
02:000038C6 4E75            	  8319:     rts
                            	  8320: 
                            	  8321:     even
                            	  8322: UpdateMode2Load_Full:
02:000038C8 4E75            	  8323:     rts
                            	  8324: 
                            	  8325:     even
                            	  8326: LevelPaletteRow7TransferBuf:
02:000038CA 4E75            	  8327:     rts
                            	  8328: 
                            	  8329:     even
                            	  8330: MenuPalettesTransferBuf:
02:000038CC 4E75            	  8331:     rts
                            	  8332: 
                            	  8333: 

Source: "genesis_shell.asm"
                            	   351: 
                            	   352: ;==============================================================================
                            	   353: ; End-of-ROM marker — used by ROM header dc.l RomEnd-1
                            	   354: ;==============================================================================
                            	   355: RomEnd:
                            	   356: 


Symbols by name:
Abs                              A:00003732
Add1ToInt16At0                   A:00003734
AddQSpeedToPositionFraction      A:00003736
Anim_AdvanceAnimCounterAndSetObjPosForSpriteDescriptor  A:00002E3A
Anim_FetchObjPosForSpriteDescriptor  A:00002E48
Anim_SetObjHFlipForSpriteDescriptor  A:00002E0A
Anim_SetSpriteDescriptorAttributes  A:00003738
Anim_SetSpriteDescriptorRedPaletteRow  A:0000373A
Anim_WriteItemSprites            A:0000373C
Anim_WriteSpecificItemSprites    A:0000373E
Anim_WriteStaticItemSpritesWithAttributes  A:00003740
AnimateAndDrawLinkBehindBackground  A:0000385A
AnimateAndDrawMetaObject         A:00002D6E
AnimateAndDrawObjectWalking      A:00003742
AnimateBoomerangAndCheckCollision  A:0000271E
AnimateItemObject                A:00000C26
AnimateLinkBase                  A:00002DBC
AnimateLinkObjState              A:00002E82
AnimateObjectWalking             A:00002DD8
AnimatePond                      A:0000363A
AnimateRoomItemObject            A:00000C22
AnimateRoomItemOnMonster         A:00000BDA
BeginShove                       A:00003744
BeginUpdateMode                  A:00003746
BeginUpdateWorld                 A:000014E6
BombCloudOffsetsX1               A:00002D06
BombCloudOffsetsX2               A:00002D0E
BombCloudOffsetsY1               A:00002D02
BombCloudOffsetsY2               A:00002D0A
BombTimes                        A:00002BAC
Bomb_CheckState4                 A:00002C28
BombableWallHotspotsX            A:00002BB0
BombableWallHotspotsY            A:00002BB4
BoomerangBaseSpriteAttrCycle     A:000023D0
BoomerangFrameCycle              A:000023C6
BoomerangQSpeedFracsX            A:000023E4
BoomerangQSpeedFracsY            A:000023DA
BoundByRoom                      A:00003748
BoundByRoomWithA                 A:0000374A
CHR_BUF_CNT                      E:00FF0830
CHR_BUF_VADDR                    E:00FF0831
CHR_STATE_BASE                   E:00FF0820
CHR_TILE_BUF                     E:00FF0820
COLOR_GREEN                      E:000000E0
CRAM_WRITE_0000                  E:C0000000
CalcBoomerangFrame               A:0000277E
CalculateNextRoom                A:00000B32
CalculateNextRoomForDoor         A:0000385C
CalculateNextRoomOW              A:00000B7A
CalculateNextRoom_JumpTable      A:00000B56
CalculateNextRoom_TableJump      A:00000B4E
ChangePlayMapSquareOW            A:0000385E
ChangeTileObjTiles               A:00000E4C
CheckBossSoundEffectUW           A:00003860
CheckBoundary                    A:00001DB0
CheckDoorway                     A:00003862
CheckInitWhirlwindAndBeginUpdate  A:00003708
CheckLadder                      A:00003864
CheckLiftItem                    A:00000DAA
CheckLinkCollision               A:0000374C
CheckMissingItem                 A:00000D96
CheckMonsterCollisions           A:0000374E
CheckObjAttr10AndAltDir          A:00001CEA
CheckPassiveTileObjects          A:0000370A
CheckPersonBlocking              A:00003750
CheckPowerTriforceFanfare        A:0000370C
CheckScreenEdge                  A:00001D48
CheckShutters                    A:00003866
CheckState20                     A:0000253A
CheckState30                     A:000025EA
CheckSubroom                     A:00003868
CheckTileObjectsBlocking         A:0000370E
CheckTiles                       A:00001CDA
CheckUnderworldSecrets           A:0000386A
CheckWarps                       A:0000386C
CheckZora                        A:000037A8
ClearAllAudioAndVideo            A:00000754
ClearNameTable                   A:00000920
ClearNameTableWithHiAddr         A:00000778
ClearRam                         A:0000386E
ClearRam0300UpTo                 A:00000A1A
ClearRoomHistory                 A:00001120
CopyCommonCodeToRam              A:00003710
CopyCommonDataToRam              A:000038C2
CreateRoomObjects                A:00003870
CueTransferPondPaletteRow        A:000035E6
DeactivateLinkShot               A:0000222C
DeactivateShot                   A:0000222E
DecrementInvincibilityTimer      A:00003534
DefaultException                 A:000003A6
DestroyCountedMonsterShot        A:000037AA
DestroyMonster                   A:00003562
DestroyObject_WRAM               A:00003752
DoNothing                        A:00003194
DoObjectsCollide                 A:00003754
DrawArrow                        A:000024BA
DrawArrowOrBoomerangAndCheckCollisions  A:000025AE
DrawBomb                         A:00002CB0
DrawBombOrCloudAt                A:00002CCE
DrawBombOrCloudNoFlashing        A:00002CD2
DrawBoomerangAndCheckCollision   A:0000275A
DrawCloud                        A:00002CE8
DrawItemBySlot                   A:00000C7E
DrawItemInInventory              A:00000C72
DrawItemInInventoryWithX         A:00003872
DrawLinkBetweenRooms             A:00003874
DrawLinkLiftingItem              A:00000DD8
DrawObjectWithAnim               A:00003756
DrawObjectWithType               A:00003758
DrawOtherBombClouds              A:00002D12
DrawSpritesBetweenRooms          A:0000118E
DrawStatusBarBoomerang           A:00000D3E
DrawStatusBarItemB               A:00000D22
DrawStatusBarItemsAndEnsureItemSelected  A:00000CFE
DrawStatusBarPotion              A:00000CF6
DrawStatusBarSword               A:00000D72
DrawSwordShotOrMagicShot         A:0000212C
DriveAudio                       A:00003706
EndGameMode                      A:000013A8
EndLinkLiftingItem               A:00000E18
EnsureObjectAligned              A:000016EC
EnsureSelectedItem               A:00000D62
EntryPoint                       A:00000200
ExcAddrError                     A:00000384
ExcBusError                      A:00000362
Exit                             A:00000BA8
ExitX0                           A:00001DAC
ExtractHitPointValue             A:000037AC
FetchTileMapAddr                 A:00003876
FillTileMap                      A:00000F4A
FindAndSelectOccupiedItemSlot    A:00003878
FindDoorAttrByDoorBit            A:0000387A
FindEmptyMonsterSlot             A:00003572
FindItemOrDrawSword              A:00000D58
FindNextEdgeSpawnCell            A:0000387C
FluteRoomSecretsOW               A:00001A34
GetCollidableTile                A:0000174E
GetCollidableTileStill           A:00001726
GetCollidingTileMoving           A:0000172E
GetDirectionsAndDistancesToTarget  A:0000375A
GetOppositeDir                   A:0000375C
GetRoomFlagUWItemState           A:0000375E
GetRoomFlags                     A:00000BAA
GetUniqueRoomId                  A:00000E38
GetWideObjectMiddle              A:00002B82
GoToNextMode                     A:000013A4
GoToNextModeFromPlay             A:00001D8A
GoToNextModePlayLevelSong        A:0000140A
GoToNextModeResetGridOffset      A:0000141C
GoWalkableDir                    A:00001D2E
HaltForever                      A:0000034C
HandleArrowOrBoomerangBlocked    A:0000258A
HandleShotBlocked                A:000021B2
HasCompass                       A:0000387E
HideAllSprites                   A:000009FC
HideObjectSprites                A:00003760
InitAquamentus                   A:000037AE
InitArmosOrFlyingGhini           A:000037B0
InitBlueKeese                    A:000037B2
InitBoulder                      A:000037B4
InitBoulderSet                   A:000037B6
InitBubble                       A:000037B8
InitCave                         A:00003712
InitDarknut                      A:000037BA
InitDemo_RunTasks                A:0000378E
InitDigdogger1                   A:000037BC
InitDigdogger2                   A:000037BE
InitDodongo                      A:000037C0
InitFastOctorock                 A:000037C2
InitFluteSecret                  A:00003598
InitGanon                        A:000037C4
InitGel                          A:000037C6
InitGleeok                       A:000037C8
InitGleeokHead                   A:000037CA
InitGohma                        A:000037CC
InitGrumble                      A:0000350C
InitGrumble_Full                 A:00003714
InitLamnola                      A:000037CE
InitLeever                       A:000037D0
InitManhandla                    A:000037D2
InitMode                         A:00000FBE
InitMode0                        A:0000101C
InitMode1                        A:0000104E
InitMode10                       A:00003880
InitMode11                       A:00003882
InitMode12                       A:00003884
InitMode13                       A:000010CC
InitMode13_Full                  A:00003792
InitMode1_Full                   A:00003790
InitMode2                        A:00001058
InitMode2_Submodes               A:000038C4
InitMode3                        A:000010DC
InitMode3_JumpTable              A:000010EE
InitMode3_Sub0                   A:00001112
InitMode3_Sub1                   A:0000113A
InitMode3_Sub2                   A:00003886
InitMode3_Sub3_TransferTopHalfAttrs  A:00003888
InitMode3_Sub4_TransferBottomHalfAttrs  A:0000388A
InitMode3_Sub5                   A:0000388C
InitMode3_Sub6                   A:0000388E
InitMode3_Sub7                   A:00003890
InitMode3_Sub8                   A:00003892
InitMode4                        A:00003894
InitMode5Play                    A:000011C8
InitMode6                        A:00003896
InitMode7                        A:00001092
InitMode7Submodes                A:00003898
InitMode8                        A:0000389A
InitMode9                        A:0000389C
InitModeA                        A:0000389E
InitModeB                        A:000038A0
InitModeC                        A:000038A2
InitModeD                        A:000038A4
InitModeEandF                    A:000010C2
InitModeEandF_Full               A:00003794
InitMode_JumpTable               A:00000FCC
InitMoldorm                      A:000037D4
InitMonsterShot                  A:000037D6
InitObject                       A:00003218
InitObject_JumpTable             A:0000334A
InitPatra                        A:000037D8
InitPeahat                       A:000037DA
InitPondFairy                    A:000037DC
InitRedOrBlackKeese              A:000037DE
InitRope                         A:000037E0
InitRupeeStash                   A:000034D0
InitRupeeStash_Full              A:00003716
InitSaveRam                      A:000038A6
InitSlowOctorockOrGhini          A:000037E2
InitTektite                      A:000037E4
InitTileObjOrItem                A:0000358A
InitTrap                         A:000034E4
InitTrap_Full                    A:00003718
InitUnderworldPerson             A:000034F8
InitUnderworldPersonLifeOrMoney  A:00003502
InitUnderworldPersonLifeOrMoney_Full  A:0000371C
InitUnderworldPerson_Full        A:0000371A
InitWalker                       A:000037E6
InitZelda                        A:000037E8
InitializeGameOrMode             A:00000F8C
IsDistanceSafeToSpawn            A:000038A8
IsrNmi                           A:00000780
IsrReset                         A:00003650
IsrVector                        A:000036FA
ItemIdToDescriptor               A:00003762
ItemIdToSlot                     A:00003764
ItemSlotToPaletteOffsetsOrValues  A:00003766
L1E847_Exit                      A:00000E16
L1E859_Exit                      A:00000E36
L1EBF8_Exit                      A:00001422
L1EDEA_Exit                      A:0000171A
L1EFCF_Exit                      A:00001AD2
L1F148_Exit                      A:00001D24
L1F1FC_Exit                      A:00001E74
L1F36A_Exit                      A:000020E2
L1F49F_Exit                      A:00002346
L1F854_Exit                      A:00002A58
L1F91D_Exit                      A:00002BAA
L1F95F_Exit                      A:00002C26
L1FF28_Exit                      A:00003622
L_DrawArrowOrBoomerang           A:000027F2
LadderRoomsOW                    A:00001E86
LevelMasks                       A:00000B82
LevelPaletteRow7TransferBuf      A:000038CA
LevelSongIds                     A:00001400
LinkHeadMagicShieldTiles         A:00001E82
LinkHeadTiles                    A:00001E7E
LinkToLadderOffsetsX             A:00001E76
LinkToLadderOffsetsY             A:00001E7A
Link_BeHarmed                    A:00003768
Link_EndMoveAndAnimate           A:00001EB8
Link_EndMoveAndAnimateBetweenRooms  A:00001EB2
Link_EndMoveAndAnimateInRoom     A:000016D2
Link_EndMoveAndAnimate_Bank1     A:00001E9C
Link_EndMoveAndAnimate_Bank4     A:00001E8C
Link_EndMoveAndDraw              A:00001EAA
Link_EndMoveAndDraw_Bank1        A:00001E94
Link_EndMoveAndDraw_Bank4        A:00001EA2
Link_HandleInput                 A:000038AA
LoopForever                      A:00000750
MMC1_COUNT                       E:00FF0811
MMC1_CTRL                        E:00FF0812
MMC1_SHIFT                       E:00FF0810
MMC1_STATE_BASE                  E:00FF0810
MakeSwordShot                    A:00002A66
MapScreenPosToPpuAddr            A:0000376A
MarkRoomVisited                  A:00000B8A
MaskCurPpuMaskGrayscale          A:000038AC
MenuPalettesTransferBuf          A:000038CC
MoveAndDrawRoomItem              A:00000BF2
MoveObject                       A:00001BEC
MoveShot                         A:0000376C
NES_RAM                          E:00FF0000
NES_RAM_BASE                     E:00FF0000
NES_RAM_SIZE                     E:00000800
NES_SRAM                         E:00FF6000
NES_STACK_INIT                   E:00FF0200
Obj_Shove                        A:000018CC
ObjectTypeToAttributes           A:00002EE8
ObjectTypeToHpPairs              A:00002F48
OffsetAndDrawArrow               A:000027D6
PPU_CTRL                         E:00FF0804
PPU_DBUF                         E:00FF0808
PPU_DHALF                        E:00FF0809
PPU_LATCH                        E:00FF0800
PPU_MASK                         E:00FF0805
PPU_SCRL_X                       E:00FF0806
PPU_SCRL_Y                       E:00FF0807
PPU_STATE_BASE                   E:00FF0800
PPU_STATE_SIZE                   E:00000040
PPU_VADDR                        E:00FF0802
PatchAndCueLevelPalettesTransferAndAdvanceSubmode  A:00001164
PcmSamples                       A:0000066A
PlaceWeapon                      A:0000376E
PlayAreaColumnAddrs              A:000006EA
PlayBoomerangSfx                 A:00003770
PlayEffect                       A:00003772
PlaySample                       A:00003774
PlayerScreenEdgeBounds           A:00001C82
PlayerToWeaponOffsetsX           A:00002848
PlayerToWeaponOffsetsY           A:00002858
PlayerUnwalkable                 A:00001D08
PondCycleColors                  A:000035B8
PopAndExit                       A:00000BEE
RDirectionToOffsetsX             A:000023F6
RDirectionToOffsetsY             A:000023FA
RDirectionToWeaponBaseAttribute  A:000023F2
RDirectionToWeaponFrame          A:000023EE
ReadInputs                       A:00000A68
ReadOneController                A:00000A82
ResetMovingDir                   A:00001D26
ResetObjMetastate                A:000035A4
ResetObjMetastateAndTimer        A:0000359E
ResetObjState                    A:00002A5A
ResetPlayerState                 A:000011A8
ResetPpuRegisters                A:00000902
ResetShoveInfo                   A:00001924
RevealAndFlagSecretStairsObj     A:000037EA
RevealPondStairs                 A:00003624
Reverse                          A:00001CD2
ReverseDirections                A:00003776
ReverseObjDir                    A:00001E20
RollOverAnimCounter              A:00002E62
RomEnd                           A:000038CE
RunCrossRoomTasksAndBeginUpdateMode  A:0000127E
RunCrossRoomTasksAndBeginUpdateMode_EnterPlayModes  A:00001270
RunCrossRoomTasksAndBeginUpdateMode_PlayModesNoCellar  A:00001266
RunGame                          A:0000072A
STACK_TOP                        E:00FFFFFE
SaveSlotToPaletteRowOffset       A:00001136
SetAttrAndDrawArrow              A:000024EE
SetBoomerangSpeed                A:00003778
SetMMC1Control                   A:000036AE
SetShotSpreadingState            A:00002232
SetShoveInfoWith0                A:00001926
SetTypeAndClearObject            A:00003564
SetUpAndDrawLinkLiftingItem      A:00000DBE
SetUpDroppedItem                 A:000037EC
SetUpHorizontalWalkingSprites    A:00002E18
SetUpWalkingSprites              A:00002DF0
SetUpWeaponWithState             A:00002A02
SetupObjRoomBounds               A:000038AE
ShoveMoveMin                     A:00001938
ShowLinkSpritesBehindHorizontalDoors  A:0000377A
SpecialBossPaletteObjTypes       A:000011BE
SpecialBossPaletteTransferBufSelectors  A:000011B4
SpreadShot                       A:00002248
StepOutside                      A:00001424
SubQSpeedFromPositionFraction    A:0000377C
SummonWhirlwind                  A:0000371E
SwitchBank                       A:000036CC
SwordShotSpreadBaseAttr          A:000020E4
TMSS_PORT                        E:00A14000
TableJump                        A:000009A2
TransferCommonPatterns           A:00003796
TransferCurTileBuf               A:000038C6
TransferDemoPatterns             A:00003720
TransferLevelPatternBlocks       A:000037A4
TryNextDir                       A:00001CF8
TryTakeRoomItem                  A:0000377E
TurnOffAllVideo                  A:00000A5C
TurnOffVideoAndClearArtifacts    A:00000766
UpdateAquamentus                 A:000037EE
UpdateArmos                      A:000037F0
UpdateArrowOrBoomerang           A:000023FE
UpdateBlock                      A:000037F2
UpdateBlueLeever                 A:000037F4
UpdateBlueWizzrobe               A:000037F6
UpdateBomb                       A:00002BD0
UpdateBombFlashEffect            A:00003780
UpdateBombOrFire                 A:00002BB8
UpdateBoomerangOrFood            A:00002348
UpdateBoulderSet                 A:000037F8
UpdateBubble                     A:000037FA
UpdateCandle                     A:000037FC
UpdateCavePerson                 A:00003722
UpdateDarknut                    A:000037FE
UpdateDeadDummy                  A:00003550
UpdateDigdogger                  A:00003800
UpdateDock                       A:00003802
UpdateDodongo                    A:00003804
UpdateDoors                      A:000038B0
UpdateFire                       A:00002AAA
UpdateFireball                   A:00003806
UpdateFluteSecret                A:000035C4
UpdateFlyingGhini                A:00003808
UpdateGanon                      A:0000380A
UpdateGel                        A:0000380C
UpdateGhini                      A:0000380E
UpdateGibdo                      A:00003810
UpdateGleeok                     A:00003812
UpdateGleeokHead                 A:00003814
UpdateGohma                      A:00003816
UpdateGoriya                     A:00003818
UpdateGrumble                    A:0000352A
UpdateGrumble_Full               A:00003724
UpdateGuardFire                  A:0000381A
UpdateHeartsAndRupees            A:00001684
UpdateItem                       A:0000381C
UpdateKeese                      A:0000381E
UpdateLamnola                    A:00003820
UpdateLikeLike                   A:00003822
UpdateLynel                      A:00003824
UpdateManhandla                  A:00003826
UpdateMenuAndMeters              A:000038B2
UpdateMetaObject                 A:0000317E
UpdateMetaObjectEnd              A:00003196
UpdateMoblin                     A:00003828
UpdateMode                       A:000012F4
UpdateMode0Demo                  A:00003798
UpdateMode10Stairs               A:00001378
UpdateMode10Stairs_Full          A:000038B4
UpdateMode11Death                A:00001382
UpdateMode11Death_Full           A:000038B6
UpdateMode12EndLevel             A:0000138C
UpdateMode12EndLevel_Full        A:000038B8
UpdateMode13WinGame              A:0000379A
UpdateMode1Menu                  A:0000379C
UpdateMode2Load                  A:00001396
UpdateMode2Load_Full             A:000038C8
UpdateMode3Unfurl                A:000013B4
UpdateMode4and6EnterLeave        A:000013D2
UpdateMode5Play                  A:0000145A
UpdateMode7Scroll                A:00001352
UpdateMode7SubmodeAndDrawLink    A:000038BA
UpdateMode8ContinueQuestion      A:0000136E
UpdateMode8ContinueQuestion_Full  A:000038BC
UpdateModeDSave                  A:0000379E
UpdateModeERegister              A:000037A0
UpdateModeFElimination           A:000037A2
UpdateMode_JumpTable             A:00001302
UpdateMoldorm                    A:0000382A
UpdateMonsterArrow               A:0000382C
UpdateMonsterShot                A:0000382E
UpdateObject                     A:00002F6E
UpdateObject_JumpTable           A:00002FD6
UpdateOctorock                   A:00003830
UpdatePatra                      A:00003832
UpdatePatraChild                 A:00003834
UpdatePeahat                     A:00003836
UpdatePlayer                     A:0000169E
UpdatePlayerPositionMarker       A:00003782
UpdatePolsVoice                  A:00003838
UpdatePondFairy                  A:0000383A
UpdatePositionMarker             A:00003784
UpdateRedLeever                  A:0000383C
UpdateRedWizzrobe                A:0000383E
UpdateRockOrGravestone           A:00003840
UpdateRockWall                   A:00003842
UpdateRodOrArrow                 A:00002832
UpdateRope                       A:00003844
UpdateRupeeStash                 A:000034DA
UpdateRupeeStash_Full            A:00003726
UpdateStalfos                    A:00003846
UpdateStandingFire               A:00003848
UpdateStatues                    A:0000384A
UpdateSwordOrRod                 A:00002868
UpdateSwordShotOrMagicShot       A:000020E8
UpdateTektiteOrBoulder           A:0000384C
UpdateTrap                       A:000034EE
UpdateTrap_Full                  A:00003728
UpdateTree                       A:0000384E
UpdateTriforcePositionMarker     A:00000B10
UpdateUnderworldPerson           A:00003516
UpdateUnderworldPersonLifeOrMoney  A:00003520
UpdateUnderworldPersonLifeOrMoney_Full  A:0000372C
UpdateUnderworldPerson_Full      A:0000372A
UpdateVire                       A:00003850
UpdateWallmaster                 A:00003852
UpdateWhirlwind                  A:000034C6
UpdateWhirlwind_Full             A:0000372E
UpdateWorldCurtainEffect         A:00003786
UpdateZelda                      A:00003854
UpdateZol                        A:00003856
UpdateZora                       A:00003858
VBlankISR                        A:00000352
VDP_CTRL                         E:00C00004
VDP_DATA                         E:00C00000
VERSION_PORT                     E:00A10001
VRAM_WRITE_0000                  E:40000000
WaitAndScrollToSplitBottom       A:000038BE
WalkableTiles                    A:0000171C
Walker_AltDir_EndLoop            A:00001E3A
Walker_AltDir_GetMovingOppositeDir  A:00001E08
Walker_AltDir_GetRandomObjPerpendicularDir  A:00001DDE
Walker_CheckTileCollision        A:00001C86
Walker_GetNextAltDir             A:00001DC2
Walker_GetNextAltDir_JumpTable   A:00001DCE
Walker_Move                      A:00001AD4
WaterPaletteTransferBufTemplate  A:000035B0
WieldCandle                      A:00003788
WieldFlute                       A:00001A40
World_ChangeRupees               A:0000378A
World_FillHearts                 A:000038C0
WriteBlankPrioritySprites        A:0000378C
Z80_BUSREQ                       E:00A11100
Z80_RESET                        E:00A11200
_CalcDiagonalSpeedIndex          A:00003730
_FaceUnblockedDir                A:00001E42
_InitMonsterShot_Unknown54       A:000037A6
_L_z07_AnimateAndDrawMetaObject_AnimateSpark  A:00002D9E
_L_z07_AnimateAndDrawMetaObject_CheckMetaObjTimer  A:00002D88
_L_z07_AnimateAndDrawMetaObject_Exit  A:00002D9C
_L_z07_AnimateAndDrawMetaObject_IncMetastate  A:00002D8E
_L_z07_AnimateItemObject_SetItemValue  A:00000C56
_L_z07_AnimateItemObject_SetItemValueFF  A:00000C6C
_L_z07_AnimateLinkObjState_CheckState20  A:00002E9C
_L_z07_AnimateLinkObjState_CheckState30  A:00002EC8
_L_z07_AnimateLinkObjState_CombineStateWith30  A:00002EB4
_L_z07_AnimateLinkObjState_IncState  A:00002EAC
_L_z07_AnimateLinkObjState_SetMovementFrame1  A:00002EC0
_L_z07_BeginUpdateWorld_CheckChaseTarget  A:0000150C
_L_z07_BeginUpdateWorld_CheckOW  A:0000162C
_L_z07_BeginUpdateWorld_CheckUW  A:000015F8
_L_z07_BeginUpdateWorld_CheckZora  A:00001652
_L_z07_BeginUpdateWorld_FinishUpdatePlay  A:00001674
_L_z07_BeginUpdateWorld_LoopObject  A:00001582
_L_z07_BeginUpdateWorld_NextObject  A:000015D6
_L_z07_BeginUpdateWorld_NotInvincible  A:000014FE
_L_z07_BeginUpdateWorld_TransferStatusBarMap  A:0000165C
_L_z07_BeginUpdateWorld_UpdateWeapons  A:00001522
_L_z07_Bomb_CheckState4_LoopHotspot  A:00002C42
_L_z07_ChangeTileObjTiles_SetCountBytes  A:00000EF8
_L_z07_CheckState20_CheckBoomerangBlocked  A:00002574
_L_z07_CheckState20_Deactivate   A:0000257A
_L_z07_CheckState30_AnimateBoomerang  A:00002642
_L_z07_CheckState30_CatchBoomerang  A:0000269A
_L_z07_CheckState30_CheckOtherStates  A:00002646
_L_z07_CheckState30_MoveBoomerang  A:00002620
_L_z07_CheckState30_MoveTowardThrower  A:000026CC
_L_z07_CheckState30_SetState40   A:0000262E
_L_z07_CheckState30_SetThrowerTimer  A:000026B0
_L_z07_ClearNameTable_LoopAttr   A:0000098E
_L_z07_ClearNameTable_LoopTile   A:00000962
_L_z07_ClearNameTable_RestoreX   A:0000099C
_L_z07_ClearRam0300UpTo_Loop     A:00000A22
_L_z07_ClearRoomHistory_Loop     A:00001128
_L_z07_CueTransferPondPaletteRow_CopyBytes  A:000035EC
_L_z07_DecrementInvincibilityTimer_Exit  A:0000354E
_L_z07_DrawArrowOrBoomerangAndCheckCollisions_DrawPlayerWeapon  A:000025C2
_L_z07_DrawArrowOrBoomerangAndCheckCollisions_PrepareArrow  A:000025CC
_L_z07_DrawItemBySlot_AddItemAndTableValue  A:00000CDC
_L_z07_DrawItemBySlot_Flash      A:00000CA0
_L_z07_DrawItemBySlot_VariesByColor  A:00000CB4
_L_z07_DrawItemBySlot_WriteSprites  A:00000CD0
_L_z07_DrawOtherBombClouds_Draw  A:00002D2E
_L_z07_DrawOtherBombClouds_LoopCloud  A:00002D14
_L_z07_DrawStatusBarBoomerang_LoopBoomerang  A:00000D40
_L_z07_DrawSwordShotOrMagicShot_Flash  A:00002152
_L_z07_DrawSwordShotOrMagicShot_PlayerShot  A:000021A0
_L_z07_DrawSwordShotOrMagicShot_WriteMagicSprites  A:000021AC
_L_z07_DrawSwordShotOrMagicShot_WriteSprites  A:000021AE
_L_z07_FillTileMap_Loop          A:00000F56
_L_z07_FindEmptyMonsterSlot_End  A:00003586
_L_z07_FindEmptyMonsterSlot_Loop  A:00003574
_L_z07_GetCollidableTile_AddHotspotOffset  A:000017B0
_L_z07_GetCollidableTile_AdjustX  A:00001794
_L_z07_GetCollidableTile_AdjustY  A:0000177E
_L_z07_GetCollidableTile_AsIsX   A:0000178C
_L_z07_GetCollidableTile_CheckLeftBoundary  A:000017AA
_L_z07_GetCollidableTile_CheckWalkable  A:0000185C
_L_z07_GetCollidableTile_Exit    A:000018CA
_L_z07_GetCollidableTile_FetchTile  A:000017BE
_L_z07_GetCollidableTile_MatchWalkableTile  A:00001874
_L_z07_GetCollidableTile_ReturnTile  A:000018C2
_L_z07_GetCollidableTile_SetTile  A:00001888
_L_z07_HideAllSprites_Loop       A:00000A00
_L_z07_InitMode2_ClearCounts     A:00001068
_L_z07_InitMode2_InitSubmodes    A:00001088
_L_z07_InitMode3_Sub1_SetRoomId  A:00001150
_L_z07_InitMode3_Sub1_UseStartRoomId  A:0000114A
_L_z07_InitMode5Play_ChooseTileObjPalette  A:00001210
_L_z07_InitMode5Play_FindSpecialBoss  A:000011DA
_L_z07_InitMode5Play_InOW        A:000011FA
_L_z07_InitMode5Play_NextSpecialBoss  A:000011F4
_L_z07_InitMode5Play_PatchColors  A:00001248
_L_z07_InitMode5Play_SelectTransferBufAndFinishInitPlay  A:00001262
_L_z07_InitMode5Play_UseLevelPalette  A:00001246
_L_z07_InitMode5Play_UseRedArmosPalette  A:00001242
_L_z07_InitMode5Play_UseXOrGreenPalette  A:0000122A
_L_z07_InitMode7_Exit            A:000010C0
_L_z07_InitMode7_SetMirroring    A:000010BC
_L_z07_InitMode7_SetVertical     A:000010BA
_L_z07_InitObject_CheckTileObj   A:0000333C
_L_z07_InitObject_FetchAttrs     A:000032FA
_L_z07_InitObject_InitMonsterFromEdge  A:0000326C
_L_z07_InitObject_NormalSpawn    A:000032D0
_L_z07_InitObject_UninitMonsterFromEdge  A:0000325C
_L_z07_IsrNmi_CheckInput         A:0000088E
_L_z07_IsrNmi_CheckScroll        A:00000812
_L_z07_IsrNmi_DecTimers          A:0000087A
_L_z07_IsrNmi_EnableAllVideo     A:000007B4
_L_z07_IsrNmi_EnableNMI          A:000008EC
_L_z07_IsrNmi_LoopRandom         A:000008BC
_L_z07_IsrNmi_LoopTimer          A:0000087C
_L_z07_IsrNmi_ScrambleRandom     A:00000898
_L_z07_IsrNmi_SetPpuMask         A:000007B8
_L_z07_IsrNmi_SetScroll          A:0000083C
_L_z07_IsrNmi_Update             A:000008E8
_L_z07_IsrNmi_UpdateTimers       A:00000858
_L_z07_IsrNmi_WaitVBlankEnd      A:000007F4
_L_z07_L_DrawArrowOrBoomerang_Draw  A:0000282E
_L_z07_Link_EndMoveAndAnimateInRoom_Exit  A:000016EA
_L_z07_Link_EndMoveAndAnimate_Animate  A:00002014
_L_z07_Link_EndMoveAndAnimate_ApplyShieldSprite  A:000020BE
_L_z07_Link_EndMoveAndAnimate_ChangeLookForState  A:00002030
_L_z07_Link_EndMoveAndAnimate_CheckLadder  A:00001F20
_L_z07_Link_EndMoveAndAnimate_CheckLadderRoom  A:00001EF4
_L_z07_Link_EndMoveAndAnimate_CheckWarps  A:00001FF0
_L_z07_Link_EndMoveAndAnimate_CheckWarpsAndAnimate  A:00001EDC
_L_z07_Link_EndMoveAndAnimate_CheckWaterOW  A:00001F66
_L_z07_Link_EndMoveAndAnimate_Draw  A:00002052
_L_z07_Link_EndMoveAndAnimate_FixHFlip  A:000020C6
_L_z07_Link_EndMoveAndAnimate_HandleMagicShield  A:0000208A
_L_z07_Link_EndMoveAndAnimate_LoopHeadTile  A:000020A2
_L_z07_Link_EndMoveAndAnimate_LoopLadderRoom  A:00001F0A
_L_z07_Link_EndMoveAndAnimate_SetUpLadder  A:00001F74
_L_z07_Link_EndMoveAndAnimate_ShiftDown2Pixels  A:00002028
_L_z07_Link_EndMoveAndAnimate_TruncGridOffset  A:00001EE0
_L_z07_Link_EndMoveAndAnimate_WieldingObject  A:00002044
_L_z07_MakeSwordShot_SetUp       A:00002A9E
_L_z07_MoveObject_ApplyQSpeedToPosition  A:00001C12
_L_z07_MoveObject_Down           A:00001C3E
_L_z07_MoveObject_Exit           A:00001C3C
_L_z07_MoveObject_Left           A:00001C6E
_L_z07_MoveObject_Right          A:00001C5A
_L_z07_Obj_Shove_CheckPerpendicularShove  A:000018F6
_L_z07_Obj_Shove_Exit            A:00001910
_L_z07_Obj_Shove_FacingHorizontally  A:00001912
_L_z07_Obj_Shove_MoveIfNotDone   A:0000191A
_L_z07_PlayerUnwalkable_StopMoving  A:00001D18
_L_z07_ReadOneController_Read    A:00000A94
_L_z07_RunCrossRoomTasksAndBeginUpdateMode_BeginUpdate  A:000012E0
_L_z07_RunCrossRoomTasksAndBeginUpdateMode_CheckWhirlwind  A:000012E4
_L_z07_RunCrossRoomTasksAndBeginUpdateMode_LoopHistory  A:00001290
_L_z07_RunCrossRoomTasksAndBeginUpdateMode_RunTasksMode5  A:000012C6
_L_z07_SetAttrAndDrawArrow_PlayerArrow  A:00002516
_L_z07_SetAttrAndDrawArrow_SetAttr  A:0000252A
_L_z07_SetUpWeaponWithState_ChooseSpeed  A:00002A2E
_L_z07_ShoveMoveMin_AddToY       A:00001A10
_L_z07_ShoveMoveMin_ApplySpeed   A:000019EC
_L_z07_ShoveMoveMin_CheckBlocked  A:00001990
_L_z07_ShoveMoveMin_CheckBoundary  A:00001968
_L_z07_ShoveMoveMin_ChooseSpeed  A:0000199A
_L_z07_ShoveMoveMin_LoopShovePixel  A:0000193E
_L_z07_ShoveMoveMin_NextShovePixel  A:00001A2A
_L_z07_ShoveMoveMin_SetGridOffset  A:000019E4
_L_z07_SpreadShot_CheckDistance  A:000022BA
_L_z07_SpreadShot_Draw           A:000022E8
_L_z07_SpreadShot_DrawShotCorner  A:00002260
_L_z07_SpreadShot_NextCorner     A:000022F4
_L_z07_SpreadShot_ReverseSub     A:000022AE
_L_z07_StepOutside_Exit          A:00001458
_L_z07_UpdateArrowOrBoomerang_AnimateBoomerang  A:000024B6
_L_z07_UpdateArrowOrBoomerang_CheckPlayerArrow  A:00002476
_L_z07_UpdateArrowOrBoomerang_CompareLimit  A:00002492
_L_z07_UpdateArrowOrBoomerang_HandleBlocked  A:000024B2
_L_z07_UpdateArrowOrBoomerang_State10  A:00002424
_L_z07_UpdateBomb_CheckState5    A:00002C16
_L_z07_UpdateBoomerangOrFood_AttractMonsters  A:000023A2
_L_z07_UpdateBoomerangOrFood_CheckMonsterType  A:00002380
_L_z07_UpdateBoomerangOrFood_Deactivate  A:000023C2
_L_z07_UpdateBoomerangOrFood_Draw  A:000023B6
_L_z07_UpdateFire_DrawAndCheckCollisions  A:00002B2C
_L_z07_UpdateFire_StandingFie    A:00002B0C
_L_z07_UpdateMetaObjectEnd_DropItem  A:000031F2
_L_z07_UpdateMetaObjectEnd_Reset  A:00003214
_L_z07_UpdateMode5Play_CheckMenu  A:000014B2
_L_z07_UpdateMode5Play_CheckMenuAndPause  A:00001470
_L_z07_UpdateMode5Play_CheckPaused  A:0000149E
_L_z07_UpdateMode5Play_NotInMenu  A:000014D6
_L_z07_UpdateMode7Scroll_Exit    A:0000136C
_L_z07_UpdateObject_Init         A:00002FA6
_L_z07_UpdateObject_NormalObject  A:00002FD2
_L_z07_UpdateObject_Update       A:00002FB4
_L_z07_UpdateSwordOrRod_Add4     A:000028E0
_L_z07_UpdateSwordOrRod_CalcAttrs  A:00002962
_L_z07_UpdateSwordOrRod_CalcSwordAttrs  A:0000298C
_L_z07_UpdateSwordOrRod_DrawSwordOrRod  A:000028C2
_L_z07_UpdateSwordOrRod_Exit     A:000028C0
_L_z07_UpdateSwordOrRod_MakeMagicShot  A:000029F8
_L_z07_UpdateSwordOrRod_SetAttrs  A:000029A0
_L_z07_Walker_AltDir_GetMovingOppositeDir_IncreasingDir  A:00001E1A
_L_z07_Walker_CheckTileCollision_CheckGridOffset  A:00001C9C
_L_z07_Walker_Move_CheckBlocked  A:00001B76
_L_z07_Walker_Move_CheckBoundary  A:00001BB6
_L_z07_Walker_Move_CheckDoorways  A:00001BBA
_L_z07_Walker_Move_CheckStunned  A:00001AF8
_L_z07_Walker_Move_CheckSubroomOrDoorways  A:00001B7A
_L_z07_Walker_Move_CheckTiles    A:00001BDA
_L_z07_Walker_Move_ChooseObjDirOrInputDir  A:00001AE2
_L_z07_Walker_Move_FilterInput   A:00001B08
_L_z07_Walker_Move_InSubroom     A:00001B96
_L_z07_Walker_Move_OnlyLink      A:00001B52
_L_z07_Walker_Move_SetMovingDir  A:00001B24
_L_z07_Walker_Move_SkipSubroom   A:00001BAA
_L_z07_Walker_Move_ZeroMovingDir  A:00001B22
_L_z07_WieldFlute_Exit           A:00001AB4
_L_z07_WieldFlute_FindEmptySlot  A:00001A9C
_L_z07_WieldFlute_FindSecretRoom  A:00001A72
_L_z07_WieldFlute_FlagFluteUsed  A:00001AC8
_L_z07_WieldFlute_FluteSecretNotFound  A:00001AB6
_L_z07_WieldFlute_Found          A:00001A86
_L_z07_WieldFlute_Normal         A:00001A90
_L_z07_WieldFlute_RevealSecret   A:00001A94
_L_z07_WieldFlute_SummonWhirlwind  A:00001AB8
_L_z07__FaceUnblockedDir_LoopSearchStep  A:00001E50
_anon_z07_0                      A:0000078E
_anon_z07_1                      A:00000886
_anon_z07_10                     A:000015CE
_anon_z07_11                     A:000016C4
_anon_z07_12                     A:0000173A
_anon_z07_13                     A:000019AE
_anon_z07_14                     A:00001B4E
_anon_z07_15                     A:00001BFC
_anon_z07_16                     A:00001C94
_anon_z07_17                     A:00001D6A
_anon_z07_18                     A:00001DEA
_anon_z07_19                     A:00001DFC
_anon_z07_2                      A:0000095C
_anon_z07_20                     A:00001E96
_anon_z07_21                     A:00002096
_anon_z07_22                     A:000020FA
_anon_z07_23                     A:00002102
_anon_z07_24                     A:00002188
_anon_z07_25                     A:0000230E
_anon_z07_26                     A:00002440
_anon_z07_27                     A:0000245A
_anon_z07_28                     A:000024D2
_anon_z07_29                     A:00002588
_anon_z07_3                      A:00000BF0
_anon_z07_30                     A:0000265E
_anon_z07_31                     A:000027C0
_anon_z07_32                     A:00002896
_anon_z07_33                     A:000029AE
_anon_z07_34                     A:000029CC
_anon_z07_35                     A:00002A42
_anon_z07_36                     A:00002DEA
_anon_z07_37                     A:00002E26
_anon_z07_38                     A:00002E38
_anon_z07_39                     A:00002EDA
_anon_z07_4                      A:00000C3A
_anon_z07_40                     A:00002FC2
_anon_z07_41                     A:000031DC
_anon_z07_42                     A:00003346
_anon_z07_43                     A:0000365C
_anon_z07_44                     A:00003666
_anon_z07_5                      A:00000F42
_anon_z07_6                      A:00001030
_anon_z07_7                      A:00001044
_anon_z07_8                      A:0000129E
_anon_z07_9                      A:000013CE
_apu_write_4000                  A:00000658
_apu_write_4001                  A:00000658
_apu_write_4002                  A:00000658
_apu_write_4003                  A:00000658
_apu_write_4004                  A:00000658
_apu_write_4005                  A:00000658
_apu_write_4006                  A:00000658
_apu_write_4007                  A:00000658
_apu_write_4008                  A:00000658
_apu_write_400a                  A:00000658
_apu_write_400b                  A:00000658
_apu_write_400c                  A:00000658
_apu_write_400e                  A:00000658
_apu_write_400f                  A:00000658
_apu_write_4010                  A:00000658
_apu_write_4011                  A:00000658
_apu_write_4012                  A:00000658
_apu_write_4013                  A:00000658
_apu_write_4015                  A:00000658
_apu_write_4016                  A:00000658
_apu_write_4017                  A:00000658
_ctrl_read_1                     A:000005CE
_ctrl_read_2                     A:000005D2
_ctrl_strobe                     A:000005CC
_indirect_stub                   A:0000065A
_m68k_tablejump                  A:0000065C
_mmc1_common                     A:000005F6
_mmc1_write_8000                 A:000005D8
_mmc1_write_a000                 A:000005E0
_mmc1_write_c000                 A:000005E8
_mmc1_write_e000                 A:000005F0
_oam_dma                         A:000005D6
_ppu_read_0                      A:000003C6
_ppu_read_1                      A:000003CA
_ppu_read_2                      A:000003CE
_ppu_read_3                      A:000003DA
_ppu_read_4                      A:000003DA
_ppu_read_5                      A:000003DA
_ppu_read_6                      A:000003DA
_ppu_read_7                      A:000003DE
_ppu_write_0                     A:000003E2
_ppu_write_1                     A:000003EA
_ppu_write_2                     A:000003F2
_ppu_write_3                     A:000003F4
_ppu_write_4                     A:000003F6
_ppu_write_5                     A:000003F8
_ppu_write_6                     A:0000042C
_ppu_write_7                     A:0000046A

Symbols by value:
00000040 PPU_STATE_SIZE
000000E0 COLOR_GREEN
00000200 EntryPoint
0000034C HaltForever
00000352 VBlankISR
00000362 ExcBusError
00000384 ExcAddrError
000003A6 DefaultException
000003C6 _ppu_read_0
000003CA _ppu_read_1
000003CE _ppu_read_2
000003DA _ppu_read_3
000003DA _ppu_read_5
000003DA _ppu_read_6
000003DA _ppu_read_4
000003DE _ppu_read_7
000003E2 _ppu_write_0
000003EA _ppu_write_1
000003F2 _ppu_write_2
000003F4 _ppu_write_3
000003F6 _ppu_write_4
000003F8 _ppu_write_5
0000042C _ppu_write_6
0000046A _ppu_write_7
000005CC _ctrl_strobe
000005CE _ctrl_read_1
000005D2 _ctrl_read_2
000005D6 _oam_dma
000005D8 _mmc1_write_8000
000005E0 _mmc1_write_a000
000005E8 _mmc1_write_c000
000005F0 _mmc1_write_e000
000005F6 _mmc1_common
00000658 _apu_write_400b
00000658 _apu_write_400c
00000658 _apu_write_400e
00000658 _apu_write_400f
00000658 _apu_write_4010
00000658 _apu_write_400a
00000658 _apu_write_4002
00000658 _apu_write_4012
00000658 _apu_write_4008
00000658 _apu_write_4007
00000658 _apu_write_4013
00000658 _apu_write_4006
00000658 _apu_write_4015
00000658 _apu_write_4016
00000658 _apu_write_4000
00000658 _apu_write_4017
00000658 _apu_write_4005
00000658 _apu_write_4004
00000658 _apu_write_4003
00000658 _apu_write_4011
00000658 _apu_write_4001
0000065A _indirect_stub
0000065C _m68k_tablejump
0000066A PcmSamples
000006EA PlayAreaColumnAddrs
0000072A RunGame
00000750 LoopForever
00000754 ClearAllAudioAndVideo
00000766 TurnOffVideoAndClearArtifacts
00000778 ClearNameTableWithHiAddr
00000780 IsrNmi
0000078E _anon_z07_0
000007B4 _L_z07_IsrNmi_EnableAllVideo
000007B8 _L_z07_IsrNmi_SetPpuMask
000007F4 _L_z07_IsrNmi_WaitVBlankEnd
00000800 NES_RAM_SIZE
00000812 _L_z07_IsrNmi_CheckScroll
0000083C _L_z07_IsrNmi_SetScroll
00000858 _L_z07_IsrNmi_UpdateTimers
0000087A _L_z07_IsrNmi_DecTimers
0000087C _L_z07_IsrNmi_LoopTimer
00000886 _anon_z07_1
0000088E _L_z07_IsrNmi_CheckInput
00000898 _L_z07_IsrNmi_ScrambleRandom
000008BC _L_z07_IsrNmi_LoopRandom
000008E8 _L_z07_IsrNmi_Update
000008EC _L_z07_IsrNmi_EnableNMI
00000902 ResetPpuRegisters
00000920 ClearNameTable
0000095C _anon_z07_2
00000962 _L_z07_ClearNameTable_LoopTile
0000098E _L_z07_ClearNameTable_LoopAttr
0000099C _L_z07_ClearNameTable_RestoreX
000009A2 TableJump
000009FC HideAllSprites
00000A00 _L_z07_HideAllSprites_Loop
00000A1A ClearRam0300UpTo
00000A22 _L_z07_ClearRam0300UpTo_Loop
00000A5C TurnOffAllVideo
00000A68 ReadInputs
00000A82 ReadOneController
00000A94 _L_z07_ReadOneController_Read
00000B10 UpdateTriforcePositionMarker
00000B32 CalculateNextRoom
00000B4E CalculateNextRoom_TableJump
00000B56 CalculateNextRoom_JumpTable
00000B7A CalculateNextRoomOW
00000B82 LevelMasks
00000B8A MarkRoomVisited
00000BA8 Exit
00000BAA GetRoomFlags
00000BDA AnimateRoomItemOnMonster
00000BEE PopAndExit
00000BF0 _anon_z07_3
00000BF2 MoveAndDrawRoomItem
00000C22 AnimateRoomItemObject
00000C26 AnimateItemObject
00000C3A _anon_z07_4
00000C56 _L_z07_AnimateItemObject_SetItemValue
00000C6C _L_z07_AnimateItemObject_SetItemValueFF
00000C72 DrawItemInInventory
00000C7E DrawItemBySlot
00000CA0 _L_z07_DrawItemBySlot_Flash
00000CB4 _L_z07_DrawItemBySlot_VariesByColor
00000CD0 _L_z07_DrawItemBySlot_WriteSprites
00000CDC _L_z07_DrawItemBySlot_AddItemAndTableValue
00000CF6 DrawStatusBarPotion
00000CFE DrawStatusBarItemsAndEnsureItemSelected
00000D22 DrawStatusBarItemB
00000D3E DrawStatusBarBoomerang
00000D40 _L_z07_DrawStatusBarBoomerang_LoopBoomerang
00000D58 FindItemOrDrawSword
00000D62 EnsureSelectedItem
00000D72 DrawStatusBarSword
00000D96 CheckMissingItem
00000DAA CheckLiftItem
00000DBE SetUpAndDrawLinkLiftingItem
00000DD8 DrawLinkLiftingItem
00000E16 L1E847_Exit
00000E18 EndLinkLiftingItem
00000E36 L1E859_Exit
00000E38 GetUniqueRoomId
00000E4C ChangeTileObjTiles
00000EF8 _L_z07_ChangeTileObjTiles_SetCountBytes
00000F42 _anon_z07_5
00000F4A FillTileMap
00000F56 _L_z07_FillTileMap_Loop
00000F8C InitializeGameOrMode
00000FBE InitMode
00000FCC InitMode_JumpTable
0000101C InitMode0
00001030 _anon_z07_6
00001044 _anon_z07_7
0000104E InitMode1
00001058 InitMode2
00001068 _L_z07_InitMode2_ClearCounts
00001088 _L_z07_InitMode2_InitSubmodes
00001092 InitMode7
000010BA _L_z07_InitMode7_SetVertical
000010BC _L_z07_InitMode7_SetMirroring
000010C0 _L_z07_InitMode7_Exit
000010C2 InitModeEandF
000010CC InitMode13
000010DC InitMode3
000010EE InitMode3_JumpTable
00001112 InitMode3_Sub0
00001120 ClearRoomHistory
00001128 _L_z07_ClearRoomHistory_Loop
00001136 SaveSlotToPaletteRowOffset
0000113A InitMode3_Sub1
0000114A _L_z07_InitMode3_Sub1_UseStartRoomId
00001150 _L_z07_InitMode3_Sub1_SetRoomId
00001164 PatchAndCueLevelPalettesTransferAndAdvanceSubmode
0000118E DrawSpritesBetweenRooms
000011A8 ResetPlayerState
000011B4 SpecialBossPaletteTransferBufSelectors
000011BE SpecialBossPaletteObjTypes
000011C8 InitMode5Play
000011DA _L_z07_InitMode5Play_FindSpecialBoss
000011F4 _L_z07_InitMode5Play_NextSpecialBoss
000011FA _L_z07_InitMode5Play_InOW
00001210 _L_z07_InitMode5Play_ChooseTileObjPalette
0000122A _L_z07_InitMode5Play_UseXOrGreenPalette
00001242 _L_z07_InitMode5Play_UseRedArmosPalette
00001246 _L_z07_InitMode5Play_UseLevelPalette
00001248 _L_z07_InitMode5Play_PatchColors
00001262 _L_z07_InitMode5Play_SelectTransferBufAndFinishInitPlay
00001266 RunCrossRoomTasksAndBeginUpdateMode_PlayModesNoCellar
00001270 RunCrossRoomTasksAndBeginUpdateMode_EnterPlayModes
0000127E RunCrossRoomTasksAndBeginUpdateMode
00001290 _L_z07_RunCrossRoomTasksAndBeginUpdateMode_LoopHistory
0000129E _anon_z07_8
000012C6 _L_z07_RunCrossRoomTasksAndBeginUpdateMode_RunTasksMode5
000012E0 _L_z07_RunCrossRoomTasksAndBeginUpdateMode_BeginUpdate
000012E4 _L_z07_RunCrossRoomTasksAndBeginUpdateMode_CheckWhirlwind
000012F4 UpdateMode
00001302 UpdateMode_JumpTable
00001352 UpdateMode7Scroll
0000136C _L_z07_UpdateMode7Scroll_Exit
0000136E UpdateMode8ContinueQuestion
00001378 UpdateMode10Stairs
00001382 UpdateMode11Death
0000138C UpdateMode12EndLevel
00001396 UpdateMode2Load
000013A4 GoToNextMode
000013A8 EndGameMode
000013B4 UpdateMode3Unfurl
000013CE _anon_z07_9
000013D2 UpdateMode4and6EnterLeave
00001400 LevelSongIds
0000140A GoToNextModePlayLevelSong
0000141C GoToNextModeResetGridOffset
00001422 L1EBF8_Exit
00001424 StepOutside
00001458 _L_z07_StepOutside_Exit
0000145A UpdateMode5Play
00001470 _L_z07_UpdateMode5Play_CheckMenuAndPause
0000149E _L_z07_UpdateMode5Play_CheckPaused
000014B2 _L_z07_UpdateMode5Play_CheckMenu
000014D6 _L_z07_UpdateMode5Play_NotInMenu
000014E6 BeginUpdateWorld
000014FE _L_z07_BeginUpdateWorld_NotInvincible
0000150C _L_z07_BeginUpdateWorld_CheckChaseTarget
00001522 _L_z07_BeginUpdateWorld_UpdateWeapons
00001582 _L_z07_BeginUpdateWorld_LoopObject
000015CE _anon_z07_10
000015D6 _L_z07_BeginUpdateWorld_NextObject
000015F8 _L_z07_BeginUpdateWorld_CheckUW
0000162C _L_z07_BeginUpdateWorld_CheckOW
00001652 _L_z07_BeginUpdateWorld_CheckZora
0000165C _L_z07_BeginUpdateWorld_TransferStatusBarMap
00001674 _L_z07_BeginUpdateWorld_FinishUpdatePlay
00001684 UpdateHeartsAndRupees
0000169E UpdatePlayer
000016C4 _anon_z07_11
000016D2 Link_EndMoveAndAnimateInRoom
000016EA _L_z07_Link_EndMoveAndAnimateInRoom_Exit
000016EC EnsureObjectAligned
0000171A L1EDEA_Exit
0000171C WalkableTiles
00001726 GetCollidableTileStill
0000172E GetCollidingTileMoving
0000173A _anon_z07_12
0000174E GetCollidableTile
0000177E _L_z07_GetCollidableTile_AdjustY
0000178C _L_z07_GetCollidableTile_AsIsX
00001794 _L_z07_GetCollidableTile_AdjustX
000017AA _L_z07_GetCollidableTile_CheckLeftBoundary
000017B0 _L_z07_GetCollidableTile_AddHotspotOffset
000017BE _L_z07_GetCollidableTile_FetchTile
0000185C _L_z07_GetCollidableTile_CheckWalkable
00001874 _L_z07_GetCollidableTile_MatchWalkableTile
00001888 _L_z07_GetCollidableTile_SetTile
000018C2 _L_z07_GetCollidableTile_ReturnTile
000018CA _L_z07_GetCollidableTile_Exit
000018CC Obj_Shove
000018F6 _L_z07_Obj_Shove_CheckPerpendicularShove
00001910 _L_z07_Obj_Shove_Exit
00001912 _L_z07_Obj_Shove_FacingHorizontally
0000191A _L_z07_Obj_Shove_MoveIfNotDone
00001924 ResetShoveInfo
00001926 SetShoveInfoWith0
00001938 ShoveMoveMin
0000193E _L_z07_ShoveMoveMin_LoopShovePixel
00001968 _L_z07_ShoveMoveMin_CheckBoundary
00001990 _L_z07_ShoveMoveMin_CheckBlocked
0000199A _L_z07_ShoveMoveMin_ChooseSpeed
000019AE _anon_z07_13
000019E4 _L_z07_ShoveMoveMin_SetGridOffset
000019EC _L_z07_ShoveMoveMin_ApplySpeed
00001A10 _L_z07_ShoveMoveMin_AddToY
00001A2A _L_z07_ShoveMoveMin_NextShovePixel
00001A34 FluteRoomSecretsOW
00001A40 WieldFlute
00001A72 _L_z07_WieldFlute_FindSecretRoom
00001A86 _L_z07_WieldFlute_Found
00001A90 _L_z07_WieldFlute_Normal
00001A94 _L_z07_WieldFlute_RevealSecret
00001A9C _L_z07_WieldFlute_FindEmptySlot
00001AB4 _L_z07_WieldFlute_Exit
00001AB6 _L_z07_WieldFlute_FluteSecretNotFound
00001AB8 _L_z07_WieldFlute_SummonWhirlwind
00001AC8 _L_z07_WieldFlute_FlagFluteUsed
00001AD2 L1EFCF_Exit
00001AD4 Walker_Move
00001AE2 _L_z07_Walker_Move_ChooseObjDirOrInputDir
00001AF8 _L_z07_Walker_Move_CheckStunned
00001B08 _L_z07_Walker_Move_FilterInput
00001B22 _L_z07_Walker_Move_ZeroMovingDir
00001B24 _L_z07_Walker_Move_SetMovingDir
00001B4E _anon_z07_14
00001B52 _L_z07_Walker_Move_OnlyLink
00001B76 _L_z07_Walker_Move_CheckBlocked
00001B7A _L_z07_Walker_Move_CheckSubroomOrDoorways
00001B96 _L_z07_Walker_Move_InSubroom
00001BAA _L_z07_Walker_Move_SkipSubroom
00001BB6 _L_z07_Walker_Move_CheckBoundary
00001BBA _L_z07_Walker_Move_CheckDoorways
00001BDA _L_z07_Walker_Move_CheckTiles
00001BEC MoveObject
00001BFC _anon_z07_15
00001C12 _L_z07_MoveObject_ApplyQSpeedToPosition
00001C3C _L_z07_MoveObject_Exit
00001C3E _L_z07_MoveObject_Down
00001C5A _L_z07_MoveObject_Right
00001C6E _L_z07_MoveObject_Left
00001C82 PlayerScreenEdgeBounds
00001C86 Walker_CheckTileCollision
00001C94 _anon_z07_16
00001C9C _L_z07_Walker_CheckTileCollision_CheckGridOffset
00001CD2 Reverse
00001CDA CheckTiles
00001CEA CheckObjAttr10AndAltDir
00001CF8 TryNextDir
00001D08 PlayerUnwalkable
00001D18 _L_z07_PlayerUnwalkable_StopMoving
00001D24 L1F148_Exit
00001D26 ResetMovingDir
00001D2E GoWalkableDir
00001D48 CheckScreenEdge
00001D6A _anon_z07_17
00001D8A GoToNextModeFromPlay
00001DAC ExitX0
00001DB0 CheckBoundary
00001DC2 Walker_GetNextAltDir
00001DCE Walker_GetNextAltDir_JumpTable
00001DDE Walker_AltDir_GetRandomObjPerpendicularDir
00001DEA _anon_z07_18
00001DFC _anon_z07_19
00001E08 Walker_AltDir_GetMovingOppositeDir
00001E1A _L_z07_Walker_AltDir_GetMovingOppositeDir_IncreasingDir
00001E20 ReverseObjDir
00001E3A Walker_AltDir_EndLoop
00001E42 _FaceUnblockedDir
00001E50 _L_z07__FaceUnblockedDir_LoopSearchStep
00001E74 L1F1FC_Exit
00001E76 LinkToLadderOffsetsX
00001E7A LinkToLadderOffsetsY
00001E7E LinkHeadTiles
00001E82 LinkHeadMagicShieldTiles
00001E86 LadderRoomsOW
00001E8C Link_EndMoveAndAnimate_Bank4
00001E94 Link_EndMoveAndDraw_Bank1
00001E96 _anon_z07_20
00001E9C Link_EndMoveAndAnimate_Bank1
00001EA2 Link_EndMoveAndDraw_Bank4
00001EAA Link_EndMoveAndDraw
00001EB2 Link_EndMoveAndAnimateBetweenRooms
00001EB8 Link_EndMoveAndAnimate
00001EDC _L_z07_Link_EndMoveAndAnimate_CheckWarpsAndAnimate
00001EE0 _L_z07_Link_EndMoveAndAnimate_TruncGridOffset
00001EF4 _L_z07_Link_EndMoveAndAnimate_CheckLadderRoom
00001F0A _L_z07_Link_EndMoveAndAnimate_LoopLadderRoom
00001F20 _L_z07_Link_EndMoveAndAnimate_CheckLadder
00001F66 _L_z07_Link_EndMoveAndAnimate_CheckWaterOW
00001F74 _L_z07_Link_EndMoveAndAnimate_SetUpLadder
00001FF0 _L_z07_Link_EndMoveAndAnimate_CheckWarps
00002014 _L_z07_Link_EndMoveAndAnimate_Animate
00002028 _L_z07_Link_EndMoveAndAnimate_ShiftDown2Pixels
00002030 _L_z07_Link_EndMoveAndAnimate_ChangeLookForState
00002044 _L_z07_Link_EndMoveAndAnimate_WieldingObject
00002052 _L_z07_Link_EndMoveAndAnimate_Draw
0000208A _L_z07_Link_EndMoveAndAnimate_HandleMagicShield
00002096 _anon_z07_21
000020A2 _L_z07_Link_EndMoveAndAnimate_LoopHeadTile
000020BE _L_z07_Link_EndMoveAndAnimate_ApplyShieldSprite
000020C6 _L_z07_Link_EndMoveAndAnimate_FixHFlip
000020E2 L1F36A_Exit
000020E4 SwordShotSpreadBaseAttr
000020E8 UpdateSwordShotOrMagicShot
000020FA _anon_z07_22
00002102 _anon_z07_23
0000212C DrawSwordShotOrMagicShot
00002152 _L_z07_DrawSwordShotOrMagicShot_Flash
00002188 _anon_z07_24
000021A0 _L_z07_DrawSwordShotOrMagicShot_PlayerShot
000021AC _L_z07_DrawSwordShotOrMagicShot_WriteMagicSprites
000021AE _L_z07_DrawSwordShotOrMagicShot_WriteSprites
000021B2 HandleShotBlocked
0000222C DeactivateLinkShot
0000222E DeactivateShot
00002232 SetShotSpreadingState
00002248 SpreadShot
00002260 _L_z07_SpreadShot_DrawShotCorner
000022AE _L_z07_SpreadShot_ReverseSub
000022BA _L_z07_SpreadShot_CheckDistance
000022E8 _L_z07_SpreadShot_Draw
000022F4 _L_z07_SpreadShot_NextCorner
0000230E _anon_z07_25
00002346 L1F49F_Exit
00002348 UpdateBoomerangOrFood
00002380 _L_z07_UpdateBoomerangOrFood_CheckMonsterType
000023A2 _L_z07_UpdateBoomerangOrFood_AttractMonsters
000023B6 _L_z07_UpdateBoomerangOrFood_Draw
000023C2 _L_z07_UpdateBoomerangOrFood_Deactivate
000023C6 BoomerangFrameCycle
000023D0 BoomerangBaseSpriteAttrCycle
000023DA BoomerangQSpeedFracsY
000023E4 BoomerangQSpeedFracsX
000023EE RDirectionToWeaponFrame
000023F2 RDirectionToWeaponBaseAttribute
000023F6 RDirectionToOffsetsX
000023FA RDirectionToOffsetsY
000023FE UpdateArrowOrBoomerang
00002424 _L_z07_UpdateArrowOrBoomerang_State10
00002440 _anon_z07_26
0000245A _anon_z07_27
00002476 _L_z07_UpdateArrowOrBoomerang_CheckPlayerArrow
00002492 _L_z07_UpdateArrowOrBoomerang_CompareLimit
000024B2 _L_z07_UpdateArrowOrBoomerang_HandleBlocked
000024B6 _L_z07_UpdateArrowOrBoomerang_AnimateBoomerang
000024BA DrawArrow
000024D2 _anon_z07_28
000024EE SetAttrAndDrawArrow
00002516 _L_z07_SetAttrAndDrawArrow_PlayerArrow
0000252A _L_z07_SetAttrAndDrawArrow_SetAttr
0000253A CheckState20
00002574 _L_z07_CheckState20_CheckBoomerangBlocked
0000257A _L_z07_CheckState20_Deactivate
00002588 _anon_z07_29
0000258A HandleArrowOrBoomerangBlocked
000025AE DrawArrowOrBoomerangAndCheckCollisions
000025C2 _L_z07_DrawArrowOrBoomerangAndCheckCollisions_DrawPlayerWeapon
000025CC _L_z07_DrawArrowOrBoomerangAndCheckCollisions_PrepareArrow
000025EA CheckState30
00002620 _L_z07_CheckState30_MoveBoomerang
0000262E _L_z07_CheckState30_SetState40
00002642 _L_z07_CheckState30_AnimateBoomerang
00002646 _L_z07_CheckState30_CheckOtherStates
0000265E _anon_z07_30
0000269A _L_z07_CheckState30_CatchBoomerang
000026B0 _L_z07_CheckState30_SetThrowerTimer
000026CC _L_z07_CheckState30_MoveTowardThrower
0000271E AnimateBoomerangAndCheckCollision
0000275A DrawBoomerangAndCheckCollision
0000277E CalcBoomerangFrame
000027C0 _anon_z07_31
000027D6 OffsetAndDrawArrow
000027F2 L_DrawArrowOrBoomerang
0000282E _L_z07_L_DrawArrowOrBoomerang_Draw
00002832 UpdateRodOrArrow
00002848 PlayerToWeaponOffsetsX
00002858 PlayerToWeaponOffsetsY
00002868 UpdateSwordOrRod
00002896 _anon_z07_32
000028C0 _L_z07_UpdateSwordOrRod_Exit
000028C2 _L_z07_UpdateSwordOrRod_DrawSwordOrRod
000028E0 _L_z07_UpdateSwordOrRod_Add4
00002962 _L_z07_UpdateSwordOrRod_CalcAttrs
0000298C _L_z07_UpdateSwordOrRod_CalcSwordAttrs
000029A0 _L_z07_UpdateSwordOrRod_SetAttrs
000029AE _anon_z07_33
000029CC _anon_z07_34
000029F8 _L_z07_UpdateSwordOrRod_MakeMagicShot
00002A02 SetUpWeaponWithState
00002A2E _L_z07_SetUpWeaponWithState_ChooseSpeed
00002A42 _anon_z07_35
00002A58 L1F854_Exit
00002A5A ResetObjState
00002A66 MakeSwordShot
00002A9E _L_z07_MakeSwordShot_SetUp
00002AAA UpdateFire
00002B0C _L_z07_UpdateFire_StandingFie
00002B2C _L_z07_UpdateFire_DrawAndCheckCollisions
00002B82 GetWideObjectMiddle
00002BAA L1F91D_Exit
00002BAC BombTimes
00002BB0 BombableWallHotspotsX
00002BB4 BombableWallHotspotsY
00002BB8 UpdateBombOrFire
00002BD0 UpdateBomb
00002C16 _L_z07_UpdateBomb_CheckState5
00002C26 L1F95F_Exit
00002C28 Bomb_CheckState4
00002C42 _L_z07_Bomb_CheckState4_LoopHotspot
00002CB0 DrawBomb
00002CCE DrawBombOrCloudAt
00002CD2 DrawBombOrCloudNoFlashing
00002CE8 DrawCloud
00002D02 BombCloudOffsetsY1
00002D06 BombCloudOffsetsX1
00002D0A BombCloudOffsetsY2
00002D0E BombCloudOffsetsX2
00002D12 DrawOtherBombClouds
00002D14 _L_z07_DrawOtherBombClouds_LoopCloud
00002D2E _L_z07_DrawOtherBombClouds_Draw
00002D6E AnimateAndDrawMetaObject
00002D88 _L_z07_AnimateAndDrawMetaObject_CheckMetaObjTimer
00002D8E _L_z07_AnimateAndDrawMetaObject_IncMetastate
00002D9C _L_z07_AnimateAndDrawMetaObject_Exit
00002D9E _L_z07_AnimateAndDrawMetaObject_AnimateSpark
00002DBC AnimateLinkBase
00002DD8 AnimateObjectWalking
00002DEA _anon_z07_36
00002DF0 SetUpWalkingSprites
00002E0A Anim_SetObjHFlipForSpriteDescriptor
00002E18 SetUpHorizontalWalkingSprites
00002E26 _anon_z07_37
00002E38 _anon_z07_38
00002E3A Anim_AdvanceAnimCounterAndSetObjPosForSpriteDescriptor
00002E48 Anim_FetchObjPosForSpriteDescriptor
00002E62 RollOverAnimCounter
00002E82 AnimateLinkObjState
00002E9C _L_z07_AnimateLinkObjState_CheckState20
00002EAC _L_z07_AnimateLinkObjState_IncState
00002EB4 _L_z07_AnimateLinkObjState_CombineStateWith30
00002EC0 _L_z07_AnimateLinkObjState_SetMovementFrame1
00002EC8 _L_z07_AnimateLinkObjState_CheckState30
00002EDA _anon_z07_39
00002EE8 ObjectTypeToAttributes
00002F48 ObjectTypeToHpPairs
00002F6E UpdateObject
00002FA6 _L_z07_UpdateObject_Init
00002FB4 _L_z07_UpdateObject_Update
00002FC2 _anon_z07_40
00002FD2 _L_z07_UpdateObject_NormalObject
00002FD6 UpdateObject_JumpTable
0000317E UpdateMetaObject
00003194 DoNothing
00003196 UpdateMetaObjectEnd
000031DC _anon_z07_41
000031F2 _L_z07_UpdateMetaObjectEnd_DropItem
00003214 _L_z07_UpdateMetaObjectEnd_Reset
00003218 InitObject
0000325C _L_z07_InitObject_UninitMonsterFromEdge
0000326C _L_z07_InitObject_InitMonsterFromEdge
000032D0 _L_z07_InitObject_NormalSpawn
000032FA _L_z07_InitObject_FetchAttrs
0000333C _L_z07_InitObject_CheckTileObj
00003346 _anon_z07_42
0000334A InitObject_JumpTable
000034C6 UpdateWhirlwind
000034D0 InitRupeeStash
000034DA UpdateRupeeStash
000034E4 InitTrap
000034EE UpdateTrap
000034F8 InitUnderworldPerson
00003502 InitUnderworldPersonLifeOrMoney
0000350C InitGrumble
00003516 UpdateUnderworldPerson
00003520 UpdateUnderworldPersonLifeOrMoney
0000352A UpdateGrumble
00003534 DecrementInvincibilityTimer
0000354E _L_z07_DecrementInvincibilityTimer_Exit
00003550 UpdateDeadDummy
00003562 DestroyMonster
00003564 SetTypeAndClearObject
00003572 FindEmptyMonsterSlot
00003574 _L_z07_FindEmptyMonsterSlot_Loop
00003586 _L_z07_FindEmptyMonsterSlot_End
0000358A InitTileObjOrItem
00003598 InitFluteSecret
0000359E ResetObjMetastateAndTimer
000035A4 ResetObjMetastate
000035B0 WaterPaletteTransferBufTemplate
000035B8 PondCycleColors
000035C4 UpdateFluteSecret
000035E6 CueTransferPondPaletteRow
000035EC _L_z07_CueTransferPondPaletteRow_CopyBytes
00003622 L1FF28_Exit
00003624 RevealPondStairs
0000363A AnimatePond
00003650 IsrReset
0000365C _anon_z07_43
00003666 _anon_z07_44
000036AE SetMMC1Control
000036CC SwitchBank
000036FA IsrVector
00003706 DriveAudio
00003708 CheckInitWhirlwindAndBeginUpdate
0000370A CheckPassiveTileObjects
0000370C CheckPowerTriforceFanfare
0000370E CheckTileObjectsBlocking
00003710 CopyCommonCodeToRam
00003712 InitCave
00003714 InitGrumble_Full
00003716 InitRupeeStash_Full
00003718 InitTrap_Full
0000371A InitUnderworldPerson_Full
0000371C InitUnderworldPersonLifeOrMoney_Full
0000371E SummonWhirlwind
00003720 TransferDemoPatterns
00003722 UpdateCavePerson
00003724 UpdateGrumble_Full
00003726 UpdateRupeeStash_Full
00003728 UpdateTrap_Full
0000372A UpdateUnderworldPerson_Full
0000372C UpdateUnderworldPersonLifeOrMoney_Full
0000372E UpdateWhirlwind_Full
00003730 _CalcDiagonalSpeedIndex
00003732 Abs
00003734 Add1ToInt16At0
00003736 AddQSpeedToPositionFraction
00003738 Anim_SetSpriteDescriptorAttributes
0000373A Anim_SetSpriteDescriptorRedPaletteRow
0000373C Anim_WriteItemSprites
0000373E Anim_WriteSpecificItemSprites
00003740 Anim_WriteStaticItemSpritesWithAttributes
00003742 AnimateAndDrawObjectWalking
00003744 BeginShove
00003746 BeginUpdateMode
00003748 BoundByRoom
0000374A BoundByRoomWithA
0000374C CheckLinkCollision
0000374E CheckMonsterCollisions
00003750 CheckPersonBlocking
00003752 DestroyObject_WRAM
00003754 DoObjectsCollide
00003756 DrawObjectWithAnim
00003758 DrawObjectWithType
0000375A GetDirectionsAndDistancesToTarget
0000375C GetOppositeDir
0000375E GetRoomFlagUWItemState
00003760 HideObjectSprites
00003762 ItemIdToDescriptor
00003764 ItemIdToSlot
00003766 ItemSlotToPaletteOffsetsOrValues
00003768 Link_BeHarmed
0000376A MapScreenPosToPpuAddr
0000376C MoveShot
0000376E PlaceWeapon
00003770 PlayBoomerangSfx
00003772 PlayEffect
00003774 PlaySample
00003776 ReverseDirections
00003778 SetBoomerangSpeed
0000377A ShowLinkSpritesBehindHorizontalDoors
0000377C SubQSpeedFromPositionFraction
0000377E TryTakeRoomItem
00003780 UpdateBombFlashEffect
00003782 UpdatePlayerPositionMarker
00003784 UpdatePositionMarker
00003786 UpdateWorldCurtainEffect
00003788 WieldCandle
0000378A World_ChangeRupees
0000378C WriteBlankPrioritySprites
0000378E InitDemo_RunTasks
00003790 InitMode1_Full
00003792 InitMode13_Full
00003794 InitModeEandF_Full
00003796 TransferCommonPatterns
00003798 UpdateMode0Demo
0000379A UpdateMode13WinGame
0000379C UpdateMode1Menu
0000379E UpdateModeDSave
000037A0 UpdateModeERegister
000037A2 UpdateModeFElimination
000037A4 TransferLevelPatternBlocks
000037A6 _InitMonsterShot_Unknown54
000037A8 CheckZora
000037AA DestroyCountedMonsterShot
000037AC ExtractHitPointValue
000037AE InitAquamentus
000037B0 InitArmosOrFlyingGhini
000037B2 InitBlueKeese
000037B4 InitBoulder
000037B6 InitBoulderSet
000037B8 InitBubble
000037BA InitDarknut
000037BC InitDigdogger1
000037BE InitDigdogger2
000037C0 InitDodongo
000037C2 InitFastOctorock
000037C4 InitGanon
000037C6 InitGel
000037C8 InitGleeok
000037CA InitGleeokHead
000037CC InitGohma
000037CE InitLamnola
000037D0 InitLeever
000037D2 InitManhandla
000037D4 InitMoldorm
000037D6 InitMonsterShot
000037D8 InitPatra
000037DA InitPeahat
000037DC InitPondFairy
000037DE InitRedOrBlackKeese
000037E0 InitRope
000037E2 InitSlowOctorockOrGhini
000037E4 InitTektite
000037E6 InitWalker
000037E8 InitZelda
000037EA RevealAndFlagSecretStairsObj
000037EC SetUpDroppedItem
000037EE UpdateAquamentus
000037F0 UpdateArmos
000037F2 UpdateBlock
000037F4 UpdateBlueLeever
000037F6 UpdateBlueWizzrobe
000037F8 UpdateBoulderSet
000037FA UpdateBubble
000037FC UpdateCandle
000037FE UpdateDarknut
00003800 UpdateDigdogger
00003802 UpdateDock
00003804 UpdateDodongo
00003806 UpdateFireball
00003808 UpdateFlyingGhini
0000380A UpdateGanon
0000380C UpdateGel
0000380E UpdateGhini
00003810 UpdateGibdo
00003812 UpdateGleeok
00003814 UpdateGleeokHead
00003816 UpdateGohma
00003818 UpdateGoriya
0000381A UpdateGuardFire
0000381C UpdateItem
0000381E UpdateKeese
00003820 UpdateLamnola
00003822 UpdateLikeLike
00003824 UpdateLynel
00003826 UpdateManhandla
00003828 UpdateMoblin
0000382A UpdateMoldorm
0000382C UpdateMonsterArrow
0000382E UpdateMonsterShot
00003830 UpdateOctorock
00003832 UpdatePatra
00003834 UpdatePatraChild
00003836 UpdatePeahat
00003838 UpdatePolsVoice
0000383A UpdatePondFairy
0000383C UpdateRedLeever
0000383E UpdateRedWizzrobe
00003840 UpdateRockOrGravestone
00003842 UpdateRockWall
00003844 UpdateRope
00003846 UpdateStalfos
00003848 UpdateStandingFire
0000384A UpdateStatues
0000384C UpdateTektiteOrBoulder
0000384E UpdateTree
00003850 UpdateVire
00003852 UpdateWallmaster
00003854 UpdateZelda
00003856 UpdateZol
00003858 UpdateZora
0000385A AnimateAndDrawLinkBehindBackground
0000385C CalculateNextRoomForDoor
0000385E ChangePlayMapSquareOW
00003860 CheckBossSoundEffectUW
00003862 CheckDoorway
00003864 CheckLadder
00003866 CheckShutters
00003868 CheckSubroom
0000386A CheckUnderworldSecrets
0000386C CheckWarps
0000386E ClearRam
00003870 CreateRoomObjects
00003872 DrawItemInInventoryWithX
00003874 DrawLinkBetweenRooms
00003876 FetchTileMapAddr
00003878 FindAndSelectOccupiedItemSlot
0000387A FindDoorAttrByDoorBit
0000387C FindNextEdgeSpawnCell
0000387E HasCompass
00003880 InitMode10
00003882 InitMode11
00003884 InitMode12
00003886 InitMode3_Sub2
00003888 InitMode3_Sub3_TransferTopHalfAttrs
0000388A InitMode3_Sub4_TransferBottomHalfAttrs
0000388C InitMode3_Sub5
0000388E InitMode3_Sub6
00003890 InitMode3_Sub7
00003892 InitMode3_Sub8
00003894 InitMode4
00003896 InitMode6
00003898 InitMode7Submodes
0000389A InitMode8
0000389C InitMode9
0000389E InitModeA
000038A0 InitModeB
000038A2 InitModeC
000038A4 InitModeD
000038A6 InitSaveRam
000038A8 IsDistanceSafeToSpawn
000038AA Link_HandleInput
000038AC MaskCurPpuMaskGrayscale
000038AE SetupObjRoomBounds
000038B0 UpdateDoors
000038B2 UpdateMenuAndMeters
000038B4 UpdateMode10Stairs_Full
000038B6 UpdateMode11Death_Full
000038B8 UpdateMode12EndLevel_Full
000038BA UpdateMode7SubmodeAndDrawLink
000038BC UpdateMode8ContinueQuestion_Full
000038BE WaitAndScrollToSplitBottom
000038C0 World_FillHearts
000038C2 CopyCommonDataToRam
000038C4 InitMode2_Submodes
000038C6 TransferCurTileBuf
000038C8 UpdateMode2Load_Full
000038CA LevelPaletteRow7TransferBuf
000038CC MenuPalettesTransferBuf
000038CE RomEnd
00A10001 VERSION_PORT
00A11100 Z80_BUSREQ
00A11200 Z80_RESET
00A14000 TMSS_PORT
00C00000 VDP_DATA
00C00004 VDP_CTRL
00FF0000 NES_RAM
00FF0000 NES_RAM_BASE
00FF0200 NES_STACK_INIT
00FF0800 PPU_STATE_BASE
00FF0800 PPU_LATCH
00FF0802 PPU_VADDR
00FF0804 PPU_CTRL
00FF0805 PPU_MASK
00FF0806 PPU_SCRL_X
00FF0807 PPU_SCRL_Y
00FF0808 PPU_DBUF
00FF0809 PPU_DHALF
00FF0810 MMC1_SHIFT
00FF0810 MMC1_STATE_BASE
00FF0811 MMC1_COUNT
00FF0812 MMC1_CTRL
00FF0820 CHR_TILE_BUF
00FF0820 CHR_STATE_BASE
00FF0830 CHR_BUF_CNT
00FF0831 CHR_BUF_VADDR
00FF6000 NES_SRAM
00FFFFFE STACK_TOP
40000000 VRAM_WRITE_0000
C0000000 CRAM_WRITE_0000
